ARM GAS  /tmp/ccjsdB5h.s 			page 1


   1              		.cpu cortex-m4
   2              		.eabi_attribute 27, 1
   3              		.eabi_attribute 28, 1
   4              		.eabi_attribute 20, 1
   5              		.eabi_attribute 21, 1
   6              		.eabi_attribute 23, 3
   7              		.eabi_attribute 24, 1
   8              		.eabi_attribute 25, 1
   9              		.eabi_attribute 26, 1
  10              		.eabi_attribute 30, 1
  11              		.eabi_attribute 34, 1
  12              		.eabi_attribute 18, 4
  13              		.file	"cmsis_os2.c"
  14              		.text
  15              	.Ltext0:
  16              		.cfi_sections	.debug_frame
  17              		.section	.text.TimerCallback,"ax",%progbits
  18              		.align	1
  19              		.syntax unified
  20              		.thumb
  21              		.thumb_func
  22              		.fpu fpv4-sp-d16
  24              	TimerCallback:
  25              	.LFB138:
  26              		.file 1 "Middlewares/Third_Party/FreeRTOS/Source/CMSIS_RTOS_V2/cmsis_os2.c"
   1:Middlewares/Third_Party/FreeRTOS/Source/CMSIS_RTOS_V2/cmsis_os2.c **** /* --------------------------------------------------------------------------
   2:Middlewares/Third_Party/FreeRTOS/Source/CMSIS_RTOS_V2/cmsis_os2.c ****  * Portions Copyright © 2017 STMicroelectronics International N.V. All rights reserved.
   3:Middlewares/Third_Party/FreeRTOS/Source/CMSIS_RTOS_V2/cmsis_os2.c ****  * Portions Copyright (c) 2013-2017 ARM Limited. All rights reserved.
   4:Middlewares/Third_Party/FreeRTOS/Source/CMSIS_RTOS_V2/cmsis_os2.c ****  * --------------------------------------------------------------------------
   5:Middlewares/Third_Party/FreeRTOS/Source/CMSIS_RTOS_V2/cmsis_os2.c ****  *
   6:Middlewares/Third_Party/FreeRTOS/Source/CMSIS_RTOS_V2/cmsis_os2.c ****  * SPDX-License-Identifier: Apache-2.0
   7:Middlewares/Third_Party/FreeRTOS/Source/CMSIS_RTOS_V2/cmsis_os2.c ****  *
   8:Middlewares/Third_Party/FreeRTOS/Source/CMSIS_RTOS_V2/cmsis_os2.c ****  * Licensed under the Apache License, Version 2.0 (the License); you may
   9:Middlewares/Third_Party/FreeRTOS/Source/CMSIS_RTOS_V2/cmsis_os2.c ****  * not use this file except in compliance with the License.
  10:Middlewares/Third_Party/FreeRTOS/Source/CMSIS_RTOS_V2/cmsis_os2.c ****  * You may obtain a copy of the License at
  11:Middlewares/Third_Party/FreeRTOS/Source/CMSIS_RTOS_V2/cmsis_os2.c ****  *
  12:Middlewares/Third_Party/FreeRTOS/Source/CMSIS_RTOS_V2/cmsis_os2.c ****  * www.apache.org/licenses/LICENSE-2.0
  13:Middlewares/Third_Party/FreeRTOS/Source/CMSIS_RTOS_V2/cmsis_os2.c ****  *
  14:Middlewares/Third_Party/FreeRTOS/Source/CMSIS_RTOS_V2/cmsis_os2.c ****  * Unless required by applicable law or agreed to in writing, software
  15:Middlewares/Third_Party/FreeRTOS/Source/CMSIS_RTOS_V2/cmsis_os2.c ****  * distributed under the License is distributed on an AS IS BASIS, WITHOUT
  16:Middlewares/Third_Party/FreeRTOS/Source/CMSIS_RTOS_V2/cmsis_os2.c ****  * WARRANTIES OR CONDITIONS OF ANY KIND, either express or implied.
  17:Middlewares/Third_Party/FreeRTOS/Source/CMSIS_RTOS_V2/cmsis_os2.c ****  * See the License for the specific language governing permissions and
  18:Middlewares/Third_Party/FreeRTOS/Source/CMSIS_RTOS_V2/cmsis_os2.c ****  * limitations under the License.
  19:Middlewares/Third_Party/FreeRTOS/Source/CMSIS_RTOS_V2/cmsis_os2.c ****  *
  20:Middlewares/Third_Party/FreeRTOS/Source/CMSIS_RTOS_V2/cmsis_os2.c ****  *      Name:    cmsis_os2.c
  21:Middlewares/Third_Party/FreeRTOS/Source/CMSIS_RTOS_V2/cmsis_os2.c ****  *      Purpose: CMSIS RTOS2 wrapper for FreeRTOS
  22:Middlewares/Third_Party/FreeRTOS/Source/CMSIS_RTOS_V2/cmsis_os2.c ****  *
  23:Middlewares/Third_Party/FreeRTOS/Source/CMSIS_RTOS_V2/cmsis_os2.c ****  *---------------------------------------------------------------------------*/
  24:Middlewares/Third_Party/FreeRTOS/Source/CMSIS_RTOS_V2/cmsis_os2.c **** 
  25:Middlewares/Third_Party/FreeRTOS/Source/CMSIS_RTOS_V2/cmsis_os2.c ****  /**
  26:Middlewares/Third_Party/FreeRTOS/Source/CMSIS_RTOS_V2/cmsis_os2.c ****   ******************************************************************************
  27:Middlewares/Third_Party/FreeRTOS/Source/CMSIS_RTOS_V2/cmsis_os2.c ****   * @attention
  28:Middlewares/Third_Party/FreeRTOS/Source/CMSIS_RTOS_V2/cmsis_os2.c ****   *
  29:Middlewares/Third_Party/FreeRTOS/Source/CMSIS_RTOS_V2/cmsis_os2.c ****   * Redistribution and use in source and binary forms, with or without
  30:Middlewares/Third_Party/FreeRTOS/Source/CMSIS_RTOS_V2/cmsis_os2.c ****   * modification, are permitted, provided that the following conditions are met:
  31:Middlewares/Third_Party/FreeRTOS/Source/CMSIS_RTOS_V2/cmsis_os2.c ****   *
  32:Middlewares/Third_Party/FreeRTOS/Source/CMSIS_RTOS_V2/cmsis_os2.c ****   * 1. Redistribution of source code must retain the above copyright notice,
ARM GAS  /tmp/ccjsdB5h.s 			page 2


  33:Middlewares/Third_Party/FreeRTOS/Source/CMSIS_RTOS_V2/cmsis_os2.c ****   *    this list of conditions and the following disclaimer.
  34:Middlewares/Third_Party/FreeRTOS/Source/CMSIS_RTOS_V2/cmsis_os2.c ****   * 2. Redistributions in binary form must reproduce the above copyright notice,
  35:Middlewares/Third_Party/FreeRTOS/Source/CMSIS_RTOS_V2/cmsis_os2.c ****   *    this list of conditions and the following disclaimer in the documentation
  36:Middlewares/Third_Party/FreeRTOS/Source/CMSIS_RTOS_V2/cmsis_os2.c ****   *    and/or other materials provided with the distribution.
  37:Middlewares/Third_Party/FreeRTOS/Source/CMSIS_RTOS_V2/cmsis_os2.c ****   * 3. Neither the name of STMicroelectronics nor the names of other
  38:Middlewares/Third_Party/FreeRTOS/Source/CMSIS_RTOS_V2/cmsis_os2.c ****   *    contributors to this software may be used to endorse or promote products
  39:Middlewares/Third_Party/FreeRTOS/Source/CMSIS_RTOS_V2/cmsis_os2.c ****   *    derived from this software without specific written permission.
  40:Middlewares/Third_Party/FreeRTOS/Source/CMSIS_RTOS_V2/cmsis_os2.c ****   * 4. This software, including modifications and/or derivative works of this
  41:Middlewares/Third_Party/FreeRTOS/Source/CMSIS_RTOS_V2/cmsis_os2.c ****   *    software, must execute solely and exclusively on microcontroller or
  42:Middlewares/Third_Party/FreeRTOS/Source/CMSIS_RTOS_V2/cmsis_os2.c ****   *    microprocessor devices manufactured by or for STMicroelectronics.
  43:Middlewares/Third_Party/FreeRTOS/Source/CMSIS_RTOS_V2/cmsis_os2.c ****   * 5. Redistribution and use of this software other than as permitted under
  44:Middlewares/Third_Party/FreeRTOS/Source/CMSIS_RTOS_V2/cmsis_os2.c ****   *    this license is void and will automatically terminate your rights under
  45:Middlewares/Third_Party/FreeRTOS/Source/CMSIS_RTOS_V2/cmsis_os2.c ****   *    this license.
  46:Middlewares/Third_Party/FreeRTOS/Source/CMSIS_RTOS_V2/cmsis_os2.c ****   *
  47:Middlewares/Third_Party/FreeRTOS/Source/CMSIS_RTOS_V2/cmsis_os2.c ****   * THIS SOFTWARE IS PROVIDED BY STMICROELECTRONICS AND CONTRIBUTORS "AS IS"
  48:Middlewares/Third_Party/FreeRTOS/Source/CMSIS_RTOS_V2/cmsis_os2.c ****   * AND ANY EXPRESS, IMPLIED OR STATUTORY WARRANTIES, INCLUDING, BUT NOT
  49:Middlewares/Third_Party/FreeRTOS/Source/CMSIS_RTOS_V2/cmsis_os2.c ****   * LIMITED TO, THE IMPLIED WARRANTIES OF MERCHANTABILITY, FITNESS FOR A
  50:Middlewares/Third_Party/FreeRTOS/Source/CMSIS_RTOS_V2/cmsis_os2.c ****   * PARTICULAR PURPOSE AND NON-INFRINGEMENT OF THIRD PARTY INTELLECTUAL PROPERTY
  51:Middlewares/Third_Party/FreeRTOS/Source/CMSIS_RTOS_V2/cmsis_os2.c ****   * RIGHTS ARE DISCLAIMED TO THE FULLEST EXTENT PERMITTED BY LAW. IN NO EVENT
  52:Middlewares/Third_Party/FreeRTOS/Source/CMSIS_RTOS_V2/cmsis_os2.c ****   * SHALL STMICROELECTRONICS OR CONTRIBUTORS BE LIABLE FOR ANY DIRECT, INDIRECT,
  53:Middlewares/Third_Party/FreeRTOS/Source/CMSIS_RTOS_V2/cmsis_os2.c ****   * INCIDENTAL, SPECIAL, EXEMPLARY, OR CONSEQUENTIAL DAMAGES (INCLUDING, BUT NOT
  54:Middlewares/Third_Party/FreeRTOS/Source/CMSIS_RTOS_V2/cmsis_os2.c ****   * LIMITED TO, PROCUREMENT OF SUBSTITUTE GOODS OR SERVICES; LOSS OF USE, DATA,
  55:Middlewares/Third_Party/FreeRTOS/Source/CMSIS_RTOS_V2/cmsis_os2.c ****   * OR PROFITS; OR BUSINESS INTERRUPTION) HOWEVER CAUSED AND ON ANY THEORY OF
  56:Middlewares/Third_Party/FreeRTOS/Source/CMSIS_RTOS_V2/cmsis_os2.c ****   * LIABILITY, WHETHER IN CONTRACT, STRICT LIABILITY, OR TORT (INCLUDING
  57:Middlewares/Third_Party/FreeRTOS/Source/CMSIS_RTOS_V2/cmsis_os2.c ****   * NEGLIGENCE OR OTHERWISE) ARISING IN ANY WAY OUT OF THE USE OF THIS SOFTWARE,
  58:Middlewares/Third_Party/FreeRTOS/Source/CMSIS_RTOS_V2/cmsis_os2.c ****   * EVEN IF ADVISED OF THE POSSIBILITY OF SUCH DAMAGE.
  59:Middlewares/Third_Party/FreeRTOS/Source/CMSIS_RTOS_V2/cmsis_os2.c ****   *
  60:Middlewares/Third_Party/FreeRTOS/Source/CMSIS_RTOS_V2/cmsis_os2.c ****   ******************************************************************************
  61:Middlewares/Third_Party/FreeRTOS/Source/CMSIS_RTOS_V2/cmsis_os2.c ****   */
  62:Middlewares/Third_Party/FreeRTOS/Source/CMSIS_RTOS_V2/cmsis_os2.c **** 
  63:Middlewares/Third_Party/FreeRTOS/Source/CMSIS_RTOS_V2/cmsis_os2.c **** 
  64:Middlewares/Third_Party/FreeRTOS/Source/CMSIS_RTOS_V2/cmsis_os2.c **** #include <string.h>
  65:Middlewares/Third_Party/FreeRTOS/Source/CMSIS_RTOS_V2/cmsis_os2.c **** 
  66:Middlewares/Third_Party/FreeRTOS/Source/CMSIS_RTOS_V2/cmsis_os2.c **** #include "cmsis_os2.h"                  // ::CMSIS:RTOS2
  67:Middlewares/Third_Party/FreeRTOS/Source/CMSIS_RTOS_V2/cmsis_os2.c **** #include "cmsis_compiler.h"
  68:Middlewares/Third_Party/FreeRTOS/Source/CMSIS_RTOS_V2/cmsis_os2.c **** 
  69:Middlewares/Third_Party/FreeRTOS/Source/CMSIS_RTOS_V2/cmsis_os2.c **** #include "FreeRTOS.h"                   // ARM.FreeRTOS::RTOS:Core
  70:Middlewares/Third_Party/FreeRTOS/Source/CMSIS_RTOS_V2/cmsis_os2.c **** #include "task.h"                       // ARM.FreeRTOS::RTOS:Core
  71:Middlewares/Third_Party/FreeRTOS/Source/CMSIS_RTOS_V2/cmsis_os2.c **** #include "event_groups.h"               // ARM.FreeRTOS::RTOS:Event Groups
  72:Middlewares/Third_Party/FreeRTOS/Source/CMSIS_RTOS_V2/cmsis_os2.c **** #include "semphr.h"                     // ARM.FreeRTOS::RTOS:Core
  73:Middlewares/Third_Party/FreeRTOS/Source/CMSIS_RTOS_V2/cmsis_os2.c **** 
  74:Middlewares/Third_Party/FreeRTOS/Source/CMSIS_RTOS_V2/cmsis_os2.c **** /*---------------------------------------------------------------------------*/
  75:Middlewares/Third_Party/FreeRTOS/Source/CMSIS_RTOS_V2/cmsis_os2.c **** #ifndef __ARM_ARCH_6M__
  76:Middlewares/Third_Party/FreeRTOS/Source/CMSIS_RTOS_V2/cmsis_os2.c ****   #define __ARM_ARCH_6M__         0
  77:Middlewares/Third_Party/FreeRTOS/Source/CMSIS_RTOS_V2/cmsis_os2.c **** #endif
  78:Middlewares/Third_Party/FreeRTOS/Source/CMSIS_RTOS_V2/cmsis_os2.c **** #ifndef __ARM_ARCH_7M__
  79:Middlewares/Third_Party/FreeRTOS/Source/CMSIS_RTOS_V2/cmsis_os2.c ****   #define __ARM_ARCH_7M__         0
  80:Middlewares/Third_Party/FreeRTOS/Source/CMSIS_RTOS_V2/cmsis_os2.c **** #endif
  81:Middlewares/Third_Party/FreeRTOS/Source/CMSIS_RTOS_V2/cmsis_os2.c **** #ifndef __ARM_ARCH_7EM__
  82:Middlewares/Third_Party/FreeRTOS/Source/CMSIS_RTOS_V2/cmsis_os2.c ****   #define __ARM_ARCH_7EM__        0
  83:Middlewares/Third_Party/FreeRTOS/Source/CMSIS_RTOS_V2/cmsis_os2.c **** #endif
  84:Middlewares/Third_Party/FreeRTOS/Source/CMSIS_RTOS_V2/cmsis_os2.c **** #ifndef __ARM_ARCH_8M_MAIN__
  85:Middlewares/Third_Party/FreeRTOS/Source/CMSIS_RTOS_V2/cmsis_os2.c ****   #define __ARM_ARCH_8M_MAIN__    0
  86:Middlewares/Third_Party/FreeRTOS/Source/CMSIS_RTOS_V2/cmsis_os2.c **** #endif
  87:Middlewares/Third_Party/FreeRTOS/Source/CMSIS_RTOS_V2/cmsis_os2.c **** #ifndef __ARM_ARCH_7A__
  88:Middlewares/Third_Party/FreeRTOS/Source/CMSIS_RTOS_V2/cmsis_os2.c ****   #define __ARM_ARCH_7A__         0
  89:Middlewares/Third_Party/FreeRTOS/Source/CMSIS_RTOS_V2/cmsis_os2.c **** #endif
ARM GAS  /tmp/ccjsdB5h.s 			page 3


  90:Middlewares/Third_Party/FreeRTOS/Source/CMSIS_RTOS_V2/cmsis_os2.c **** 
  91:Middlewares/Third_Party/FreeRTOS/Source/CMSIS_RTOS_V2/cmsis_os2.c **** #if   ((__ARM_ARCH_7M__      == 1U) || \
  92:Middlewares/Third_Party/FreeRTOS/Source/CMSIS_RTOS_V2/cmsis_os2.c ****        (__ARM_ARCH_7EM__     == 1U) || \
  93:Middlewares/Third_Party/FreeRTOS/Source/CMSIS_RTOS_V2/cmsis_os2.c ****        (__ARM_ARCH_8M_MAIN__ == 1U))
  94:Middlewares/Third_Party/FreeRTOS/Source/CMSIS_RTOS_V2/cmsis_os2.c **** #define IS_IRQ_MASKED()           ((__get_PRIMASK() != 0U) || ((KernelState == osKernelRunning) && 
  95:Middlewares/Third_Party/FreeRTOS/Source/CMSIS_RTOS_V2/cmsis_os2.c **** #elif  (__ARM_ARCH_6M__      == 1U)
  96:Middlewares/Third_Party/FreeRTOS/Source/CMSIS_RTOS_V2/cmsis_os2.c **** #define IS_IRQ_MASKED()           ((__get_PRIMASK() != 0U) &&  (KernelState == osKernelRunning))
  97:Middlewares/Third_Party/FreeRTOS/Source/CMSIS_RTOS_V2/cmsis_os2.c **** #elif (__ARM_ARCH_7A__       == 1)
  98:Middlewares/Third_Party/FreeRTOS/Source/CMSIS_RTOS_V2/cmsis_os2.c **** #define IS_IRQ_MASKED()           (0U)
  99:Middlewares/Third_Party/FreeRTOS/Source/CMSIS_RTOS_V2/cmsis_os2.c **** #else
 100:Middlewares/Third_Party/FreeRTOS/Source/CMSIS_RTOS_V2/cmsis_os2.c **** #define IS_IRQ_MASKED()           (__get_PRIMASK() != 0U)
 101:Middlewares/Third_Party/FreeRTOS/Source/CMSIS_RTOS_V2/cmsis_os2.c **** #endif
 102:Middlewares/Third_Party/FreeRTOS/Source/CMSIS_RTOS_V2/cmsis_os2.c **** 
 103:Middlewares/Third_Party/FreeRTOS/Source/CMSIS_RTOS_V2/cmsis_os2.c **** #if    (__ARM_ARCH_7A__      == 1U)
 104:Middlewares/Third_Party/FreeRTOS/Source/CMSIS_RTOS_V2/cmsis_os2.c **** /* CPSR mode bitmasks */
 105:Middlewares/Third_Party/FreeRTOS/Source/CMSIS_RTOS_V2/cmsis_os2.c **** #define CPSR_MODE_USER            0x10U
 106:Middlewares/Third_Party/FreeRTOS/Source/CMSIS_RTOS_V2/cmsis_os2.c **** #define CPSR_MODE_SYSTEM          0x1FU
 107:Middlewares/Third_Party/FreeRTOS/Source/CMSIS_RTOS_V2/cmsis_os2.c **** 
 108:Middlewares/Third_Party/FreeRTOS/Source/CMSIS_RTOS_V2/cmsis_os2.c **** #define IS_IRQ_MODE()             ((__get_mode() != CPSR_MODE_USER) && (__get_mode() != CPSR_MODE_S
 109:Middlewares/Third_Party/FreeRTOS/Source/CMSIS_RTOS_V2/cmsis_os2.c **** #else
 110:Middlewares/Third_Party/FreeRTOS/Source/CMSIS_RTOS_V2/cmsis_os2.c **** #define IS_IRQ_MODE()             (__get_IPSR() != 0U)
 111:Middlewares/Third_Party/FreeRTOS/Source/CMSIS_RTOS_V2/cmsis_os2.c **** #endif
 112:Middlewares/Third_Party/FreeRTOS/Source/CMSIS_RTOS_V2/cmsis_os2.c **** 
 113:Middlewares/Third_Party/FreeRTOS/Source/CMSIS_RTOS_V2/cmsis_os2.c **** #define IS_IRQ()                  (IS_IRQ_MODE() || IS_IRQ_MASKED())
 114:Middlewares/Third_Party/FreeRTOS/Source/CMSIS_RTOS_V2/cmsis_os2.c **** 
 115:Middlewares/Third_Party/FreeRTOS/Source/CMSIS_RTOS_V2/cmsis_os2.c **** /* Limits */
 116:Middlewares/Third_Party/FreeRTOS/Source/CMSIS_RTOS_V2/cmsis_os2.c **** #define MAX_BITS_TASK_NOTIFY      31U
 117:Middlewares/Third_Party/FreeRTOS/Source/CMSIS_RTOS_V2/cmsis_os2.c **** #define MAX_BITS_EVENT_GROUPS     24U
 118:Middlewares/Third_Party/FreeRTOS/Source/CMSIS_RTOS_V2/cmsis_os2.c **** 
 119:Middlewares/Third_Party/FreeRTOS/Source/CMSIS_RTOS_V2/cmsis_os2.c **** #define THREAD_FLAGS_INVALID_BITS (~((1UL << MAX_BITS_TASK_NOTIFY)  - 1U))
 120:Middlewares/Third_Party/FreeRTOS/Source/CMSIS_RTOS_V2/cmsis_os2.c **** #define EVENT_FLAGS_INVALID_BITS  (~((1UL << MAX_BITS_EVENT_GROUPS) - 1U))
 121:Middlewares/Third_Party/FreeRTOS/Source/CMSIS_RTOS_V2/cmsis_os2.c **** 
 122:Middlewares/Third_Party/FreeRTOS/Source/CMSIS_RTOS_V2/cmsis_os2.c **** /* Kernel version and identification string definition */
 123:Middlewares/Third_Party/FreeRTOS/Source/CMSIS_RTOS_V2/cmsis_os2.c **** #define KERNEL_VERSION            (((uint32_t)tskKERNEL_VERSION_MAJOR * 10000000UL) | \
 124:Middlewares/Third_Party/FreeRTOS/Source/CMSIS_RTOS_V2/cmsis_os2.c ****                                    ((uint32_t)tskKERNEL_VERSION_MINOR *    10000UL) | \
 125:Middlewares/Third_Party/FreeRTOS/Source/CMSIS_RTOS_V2/cmsis_os2.c ****                                    ((uint32_t)tskKERNEL_VERSION_BUILD *        1UL))
 126:Middlewares/Third_Party/FreeRTOS/Source/CMSIS_RTOS_V2/cmsis_os2.c **** 
 127:Middlewares/Third_Party/FreeRTOS/Source/CMSIS_RTOS_V2/cmsis_os2.c **** #define KERNEL_ID                 "FreeRTOS V10.0.1"
 128:Middlewares/Third_Party/FreeRTOS/Source/CMSIS_RTOS_V2/cmsis_os2.c **** 
 129:Middlewares/Third_Party/FreeRTOS/Source/CMSIS_RTOS_V2/cmsis_os2.c **** /* Timer callback information structure definition */
 130:Middlewares/Third_Party/FreeRTOS/Source/CMSIS_RTOS_V2/cmsis_os2.c **** typedef struct {
 131:Middlewares/Third_Party/FreeRTOS/Source/CMSIS_RTOS_V2/cmsis_os2.c ****   osTimerFunc_t func;
 132:Middlewares/Third_Party/FreeRTOS/Source/CMSIS_RTOS_V2/cmsis_os2.c ****   void         *arg;
 133:Middlewares/Third_Party/FreeRTOS/Source/CMSIS_RTOS_V2/cmsis_os2.c **** } TimerCallback_t;
 134:Middlewares/Third_Party/FreeRTOS/Source/CMSIS_RTOS_V2/cmsis_os2.c **** 
 135:Middlewares/Third_Party/FreeRTOS/Source/CMSIS_RTOS_V2/cmsis_os2.c **** /* Kernel initialization state */
 136:Middlewares/Third_Party/FreeRTOS/Source/CMSIS_RTOS_V2/cmsis_os2.c **** static osKernelState_t KernelState;
 137:Middlewares/Third_Party/FreeRTOS/Source/CMSIS_RTOS_V2/cmsis_os2.c **** 
 138:Middlewares/Third_Party/FreeRTOS/Source/CMSIS_RTOS_V2/cmsis_os2.c **** /* Heap region definition used by heap_5 variant */
 139:Middlewares/Third_Party/FreeRTOS/Source/CMSIS_RTOS_V2/cmsis_os2.c **** #if defined(USE_FreeRTOS_HEAP_5)
 140:Middlewares/Third_Party/FreeRTOS/Source/CMSIS_RTOS_V2/cmsis_os2.c **** #if (configAPPLICATION_ALLOCATED_HEAP == 1)
 141:Middlewares/Third_Party/FreeRTOS/Source/CMSIS_RTOS_V2/cmsis_os2.c **** /*
 142:Middlewares/Third_Party/FreeRTOS/Source/CMSIS_RTOS_V2/cmsis_os2.c ****   The application writer has already defined the array used for the RTOS
 143:Middlewares/Third_Party/FreeRTOS/Source/CMSIS_RTOS_V2/cmsis_os2.c ****   heap - probably so it can be placed in a special segment or address.
 144:Middlewares/Third_Party/FreeRTOS/Source/CMSIS_RTOS_V2/cmsis_os2.c **** */
 145:Middlewares/Third_Party/FreeRTOS/Source/CMSIS_RTOS_V2/cmsis_os2.c ****   extern uint8_t ucHeap[configTOTAL_HEAP_SIZE];
 146:Middlewares/Third_Party/FreeRTOS/Source/CMSIS_RTOS_V2/cmsis_os2.c **** #else
ARM GAS  /tmp/ccjsdB5h.s 			page 4


 147:Middlewares/Third_Party/FreeRTOS/Source/CMSIS_RTOS_V2/cmsis_os2.c ****   static uint8_t ucHeap[configTOTAL_HEAP_SIZE];
 148:Middlewares/Third_Party/FreeRTOS/Source/CMSIS_RTOS_V2/cmsis_os2.c **** #endif /* configAPPLICATION_ALLOCATED_HEAP */
 149:Middlewares/Third_Party/FreeRTOS/Source/CMSIS_RTOS_V2/cmsis_os2.c **** 
 150:Middlewares/Third_Party/FreeRTOS/Source/CMSIS_RTOS_V2/cmsis_os2.c **** static HeapRegion_t xHeapRegions[] = {
 151:Middlewares/Third_Party/FreeRTOS/Source/CMSIS_RTOS_V2/cmsis_os2.c ****   { ucHeap, configTOTAL_HEAP_SIZE },
 152:Middlewares/Third_Party/FreeRTOS/Source/CMSIS_RTOS_V2/cmsis_os2.c ****   { NULL,   0                     }
 153:Middlewares/Third_Party/FreeRTOS/Source/CMSIS_RTOS_V2/cmsis_os2.c **** };
 154:Middlewares/Third_Party/FreeRTOS/Source/CMSIS_RTOS_V2/cmsis_os2.c **** #endif /* USE_FreeRTOS_HEAP_5 */
 155:Middlewares/Third_Party/FreeRTOS/Source/CMSIS_RTOS_V2/cmsis_os2.c **** 
 156:Middlewares/Third_Party/FreeRTOS/Source/CMSIS_RTOS_V2/cmsis_os2.c **** #if defined(SysTick)
 157:Middlewares/Third_Party/FreeRTOS/Source/CMSIS_RTOS_V2/cmsis_os2.c **** /* FreeRTOS tick timer interrupt handler prototype */
 158:Middlewares/Third_Party/FreeRTOS/Source/CMSIS_RTOS_V2/cmsis_os2.c **** extern void xPortSysTickHandler (void);
 159:Middlewares/Third_Party/FreeRTOS/Source/CMSIS_RTOS_V2/cmsis_os2.c **** 
 160:Middlewares/Third_Party/FreeRTOS/Source/CMSIS_RTOS_V2/cmsis_os2.c **** /*
 161:Middlewares/Third_Party/FreeRTOS/Source/CMSIS_RTOS_V2/cmsis_os2.c ****   SysTick handler implementation that also clears overflow flag.
 162:Middlewares/Third_Party/FreeRTOS/Source/CMSIS_RTOS_V2/cmsis_os2.c **** */
 163:Middlewares/Third_Party/FreeRTOS/Source/CMSIS_RTOS_V2/cmsis_os2.c **** void SysTick_Handler (void) {
 164:Middlewares/Third_Party/FreeRTOS/Source/CMSIS_RTOS_V2/cmsis_os2.c ****   /* Clear overflow flag */
 165:Middlewares/Third_Party/FreeRTOS/Source/CMSIS_RTOS_V2/cmsis_os2.c ****   SysTick->CTRL;
 166:Middlewares/Third_Party/FreeRTOS/Source/CMSIS_RTOS_V2/cmsis_os2.c **** 
 167:Middlewares/Third_Party/FreeRTOS/Source/CMSIS_RTOS_V2/cmsis_os2.c ****   /* Call tick handler */
 168:Middlewares/Third_Party/FreeRTOS/Source/CMSIS_RTOS_V2/cmsis_os2.c ****   xPortSysTickHandler();
 169:Middlewares/Third_Party/FreeRTOS/Source/CMSIS_RTOS_V2/cmsis_os2.c **** }
 170:Middlewares/Third_Party/FreeRTOS/Source/CMSIS_RTOS_V2/cmsis_os2.c **** #endif /* SysTick */
 171:Middlewares/Third_Party/FreeRTOS/Source/CMSIS_RTOS_V2/cmsis_os2.c **** 
 172:Middlewares/Third_Party/FreeRTOS/Source/CMSIS_RTOS_V2/cmsis_os2.c **** /*---------------------------------------------------------------------------*/
 173:Middlewares/Third_Party/FreeRTOS/Source/CMSIS_RTOS_V2/cmsis_os2.c **** 
 174:Middlewares/Third_Party/FreeRTOS/Source/CMSIS_RTOS_V2/cmsis_os2.c **** osStatus_t osKernelInitialize (void) {
 175:Middlewares/Third_Party/FreeRTOS/Source/CMSIS_RTOS_V2/cmsis_os2.c ****   osStatus_t stat;
 176:Middlewares/Third_Party/FreeRTOS/Source/CMSIS_RTOS_V2/cmsis_os2.c **** 
 177:Middlewares/Third_Party/FreeRTOS/Source/CMSIS_RTOS_V2/cmsis_os2.c ****   if (IS_IRQ()) {
 178:Middlewares/Third_Party/FreeRTOS/Source/CMSIS_RTOS_V2/cmsis_os2.c ****     stat = osErrorISR;
 179:Middlewares/Third_Party/FreeRTOS/Source/CMSIS_RTOS_V2/cmsis_os2.c ****   }
 180:Middlewares/Third_Party/FreeRTOS/Source/CMSIS_RTOS_V2/cmsis_os2.c ****   else {
 181:Middlewares/Third_Party/FreeRTOS/Source/CMSIS_RTOS_V2/cmsis_os2.c ****     if (KernelState == osKernelInactive) {
 182:Middlewares/Third_Party/FreeRTOS/Source/CMSIS_RTOS_V2/cmsis_os2.c ****       #if defined(USE_FreeRTOS_HEAP_5)
 183:Middlewares/Third_Party/FreeRTOS/Source/CMSIS_RTOS_V2/cmsis_os2.c ****         vPortDefineHeapRegions (xHeapRegions);
 184:Middlewares/Third_Party/FreeRTOS/Source/CMSIS_RTOS_V2/cmsis_os2.c ****       #endif
 185:Middlewares/Third_Party/FreeRTOS/Source/CMSIS_RTOS_V2/cmsis_os2.c ****       KernelState = osKernelReady;
 186:Middlewares/Third_Party/FreeRTOS/Source/CMSIS_RTOS_V2/cmsis_os2.c ****       stat = osOK;
 187:Middlewares/Third_Party/FreeRTOS/Source/CMSIS_RTOS_V2/cmsis_os2.c ****     } else {
 188:Middlewares/Third_Party/FreeRTOS/Source/CMSIS_RTOS_V2/cmsis_os2.c ****       stat = osError;
 189:Middlewares/Third_Party/FreeRTOS/Source/CMSIS_RTOS_V2/cmsis_os2.c ****     }
 190:Middlewares/Third_Party/FreeRTOS/Source/CMSIS_RTOS_V2/cmsis_os2.c ****   }
 191:Middlewares/Third_Party/FreeRTOS/Source/CMSIS_RTOS_V2/cmsis_os2.c **** 
 192:Middlewares/Third_Party/FreeRTOS/Source/CMSIS_RTOS_V2/cmsis_os2.c ****   return (stat);
 193:Middlewares/Third_Party/FreeRTOS/Source/CMSIS_RTOS_V2/cmsis_os2.c **** }
 194:Middlewares/Third_Party/FreeRTOS/Source/CMSIS_RTOS_V2/cmsis_os2.c **** 
 195:Middlewares/Third_Party/FreeRTOS/Source/CMSIS_RTOS_V2/cmsis_os2.c **** osStatus_t osKernelGetInfo (osVersion_t *version, char *id_buf, uint32_t id_size) {
 196:Middlewares/Third_Party/FreeRTOS/Source/CMSIS_RTOS_V2/cmsis_os2.c **** 
 197:Middlewares/Third_Party/FreeRTOS/Source/CMSIS_RTOS_V2/cmsis_os2.c ****   if (version != NULL) {
 198:Middlewares/Third_Party/FreeRTOS/Source/CMSIS_RTOS_V2/cmsis_os2.c ****     version->api    = KERNEL_VERSION;
 199:Middlewares/Third_Party/FreeRTOS/Source/CMSIS_RTOS_V2/cmsis_os2.c ****     version->kernel = KERNEL_VERSION;
 200:Middlewares/Third_Party/FreeRTOS/Source/CMSIS_RTOS_V2/cmsis_os2.c ****   }
 201:Middlewares/Third_Party/FreeRTOS/Source/CMSIS_RTOS_V2/cmsis_os2.c **** 
 202:Middlewares/Third_Party/FreeRTOS/Source/CMSIS_RTOS_V2/cmsis_os2.c ****   if ((id_buf != NULL) && (id_size != 0U)) {
 203:Middlewares/Third_Party/FreeRTOS/Source/CMSIS_RTOS_V2/cmsis_os2.c ****     if (id_size > sizeof(KERNEL_ID)) {
ARM GAS  /tmp/ccjsdB5h.s 			page 5


 204:Middlewares/Third_Party/FreeRTOS/Source/CMSIS_RTOS_V2/cmsis_os2.c ****       id_size = sizeof(KERNEL_ID);
 205:Middlewares/Third_Party/FreeRTOS/Source/CMSIS_RTOS_V2/cmsis_os2.c ****     }
 206:Middlewares/Third_Party/FreeRTOS/Source/CMSIS_RTOS_V2/cmsis_os2.c ****     memcpy(id_buf, KERNEL_ID, id_size);
 207:Middlewares/Third_Party/FreeRTOS/Source/CMSIS_RTOS_V2/cmsis_os2.c ****   }
 208:Middlewares/Third_Party/FreeRTOS/Source/CMSIS_RTOS_V2/cmsis_os2.c **** 
 209:Middlewares/Third_Party/FreeRTOS/Source/CMSIS_RTOS_V2/cmsis_os2.c ****   return (osOK);
 210:Middlewares/Third_Party/FreeRTOS/Source/CMSIS_RTOS_V2/cmsis_os2.c **** }
 211:Middlewares/Third_Party/FreeRTOS/Source/CMSIS_RTOS_V2/cmsis_os2.c **** 
 212:Middlewares/Third_Party/FreeRTOS/Source/CMSIS_RTOS_V2/cmsis_os2.c **** osKernelState_t osKernelGetState (void) {
 213:Middlewares/Third_Party/FreeRTOS/Source/CMSIS_RTOS_V2/cmsis_os2.c ****   osKernelState_t state;
 214:Middlewares/Third_Party/FreeRTOS/Source/CMSIS_RTOS_V2/cmsis_os2.c **** 
 215:Middlewares/Third_Party/FreeRTOS/Source/CMSIS_RTOS_V2/cmsis_os2.c ****   switch (xTaskGetSchedulerState()) {
 216:Middlewares/Third_Party/FreeRTOS/Source/CMSIS_RTOS_V2/cmsis_os2.c ****     case taskSCHEDULER_RUNNING:
 217:Middlewares/Third_Party/FreeRTOS/Source/CMSIS_RTOS_V2/cmsis_os2.c ****       state = osKernelRunning;
 218:Middlewares/Third_Party/FreeRTOS/Source/CMSIS_RTOS_V2/cmsis_os2.c ****       break;
 219:Middlewares/Third_Party/FreeRTOS/Source/CMSIS_RTOS_V2/cmsis_os2.c **** 
 220:Middlewares/Third_Party/FreeRTOS/Source/CMSIS_RTOS_V2/cmsis_os2.c ****     case taskSCHEDULER_SUSPENDED:
 221:Middlewares/Third_Party/FreeRTOS/Source/CMSIS_RTOS_V2/cmsis_os2.c ****       state = osKernelLocked;
 222:Middlewares/Third_Party/FreeRTOS/Source/CMSIS_RTOS_V2/cmsis_os2.c ****       break;
 223:Middlewares/Third_Party/FreeRTOS/Source/CMSIS_RTOS_V2/cmsis_os2.c **** 
 224:Middlewares/Third_Party/FreeRTOS/Source/CMSIS_RTOS_V2/cmsis_os2.c ****     case taskSCHEDULER_NOT_STARTED:
 225:Middlewares/Third_Party/FreeRTOS/Source/CMSIS_RTOS_V2/cmsis_os2.c ****     default:
 226:Middlewares/Third_Party/FreeRTOS/Source/CMSIS_RTOS_V2/cmsis_os2.c ****       if (KernelState == osKernelReady) {
 227:Middlewares/Third_Party/FreeRTOS/Source/CMSIS_RTOS_V2/cmsis_os2.c ****         state = osKernelReady;
 228:Middlewares/Third_Party/FreeRTOS/Source/CMSIS_RTOS_V2/cmsis_os2.c ****       } else {
 229:Middlewares/Third_Party/FreeRTOS/Source/CMSIS_RTOS_V2/cmsis_os2.c ****         state = osKernelInactive;
 230:Middlewares/Third_Party/FreeRTOS/Source/CMSIS_RTOS_V2/cmsis_os2.c ****       }
 231:Middlewares/Third_Party/FreeRTOS/Source/CMSIS_RTOS_V2/cmsis_os2.c ****       break;
 232:Middlewares/Third_Party/FreeRTOS/Source/CMSIS_RTOS_V2/cmsis_os2.c ****   }
 233:Middlewares/Third_Party/FreeRTOS/Source/CMSIS_RTOS_V2/cmsis_os2.c **** 
 234:Middlewares/Third_Party/FreeRTOS/Source/CMSIS_RTOS_V2/cmsis_os2.c ****   return (state);
 235:Middlewares/Third_Party/FreeRTOS/Source/CMSIS_RTOS_V2/cmsis_os2.c **** }
 236:Middlewares/Third_Party/FreeRTOS/Source/CMSIS_RTOS_V2/cmsis_os2.c **** 
 237:Middlewares/Third_Party/FreeRTOS/Source/CMSIS_RTOS_V2/cmsis_os2.c **** osStatus_t osKernelStart (void) {
 238:Middlewares/Third_Party/FreeRTOS/Source/CMSIS_RTOS_V2/cmsis_os2.c ****   osStatus_t stat;
 239:Middlewares/Third_Party/FreeRTOS/Source/CMSIS_RTOS_V2/cmsis_os2.c **** 
 240:Middlewares/Third_Party/FreeRTOS/Source/CMSIS_RTOS_V2/cmsis_os2.c ****   if (IS_IRQ()) {
 241:Middlewares/Third_Party/FreeRTOS/Source/CMSIS_RTOS_V2/cmsis_os2.c ****     stat = osErrorISR;
 242:Middlewares/Third_Party/FreeRTOS/Source/CMSIS_RTOS_V2/cmsis_os2.c ****   }
 243:Middlewares/Third_Party/FreeRTOS/Source/CMSIS_RTOS_V2/cmsis_os2.c ****   else {
 244:Middlewares/Third_Party/FreeRTOS/Source/CMSIS_RTOS_V2/cmsis_os2.c ****     if (KernelState == osKernelReady) {
 245:Middlewares/Third_Party/FreeRTOS/Source/CMSIS_RTOS_V2/cmsis_os2.c ****       KernelState = osKernelRunning;
 246:Middlewares/Third_Party/FreeRTOS/Source/CMSIS_RTOS_V2/cmsis_os2.c ****       vTaskStartScheduler();
 247:Middlewares/Third_Party/FreeRTOS/Source/CMSIS_RTOS_V2/cmsis_os2.c ****       stat = osOK;
 248:Middlewares/Third_Party/FreeRTOS/Source/CMSIS_RTOS_V2/cmsis_os2.c ****     } else {
 249:Middlewares/Third_Party/FreeRTOS/Source/CMSIS_RTOS_V2/cmsis_os2.c ****       stat = osError;
 250:Middlewares/Third_Party/FreeRTOS/Source/CMSIS_RTOS_V2/cmsis_os2.c ****     }
 251:Middlewares/Third_Party/FreeRTOS/Source/CMSIS_RTOS_V2/cmsis_os2.c ****   }
 252:Middlewares/Third_Party/FreeRTOS/Source/CMSIS_RTOS_V2/cmsis_os2.c **** 
 253:Middlewares/Third_Party/FreeRTOS/Source/CMSIS_RTOS_V2/cmsis_os2.c ****   return (stat);
 254:Middlewares/Third_Party/FreeRTOS/Source/CMSIS_RTOS_V2/cmsis_os2.c **** }
 255:Middlewares/Third_Party/FreeRTOS/Source/CMSIS_RTOS_V2/cmsis_os2.c **** 
 256:Middlewares/Third_Party/FreeRTOS/Source/CMSIS_RTOS_V2/cmsis_os2.c **** int32_t osKernelLock (void) {
 257:Middlewares/Third_Party/FreeRTOS/Source/CMSIS_RTOS_V2/cmsis_os2.c ****   int32_t lock;
 258:Middlewares/Third_Party/FreeRTOS/Source/CMSIS_RTOS_V2/cmsis_os2.c **** 
 259:Middlewares/Third_Party/FreeRTOS/Source/CMSIS_RTOS_V2/cmsis_os2.c ****   if (IS_IRQ()) {
 260:Middlewares/Third_Party/FreeRTOS/Source/CMSIS_RTOS_V2/cmsis_os2.c ****     lock = (int32_t)osErrorISR;
ARM GAS  /tmp/ccjsdB5h.s 			page 6


 261:Middlewares/Third_Party/FreeRTOS/Source/CMSIS_RTOS_V2/cmsis_os2.c ****   }
 262:Middlewares/Third_Party/FreeRTOS/Source/CMSIS_RTOS_V2/cmsis_os2.c ****   else {
 263:Middlewares/Third_Party/FreeRTOS/Source/CMSIS_RTOS_V2/cmsis_os2.c ****     switch (xTaskGetSchedulerState()) {
 264:Middlewares/Third_Party/FreeRTOS/Source/CMSIS_RTOS_V2/cmsis_os2.c ****       case taskSCHEDULER_SUSPENDED:
 265:Middlewares/Third_Party/FreeRTOS/Source/CMSIS_RTOS_V2/cmsis_os2.c ****         lock = 1;
 266:Middlewares/Third_Party/FreeRTOS/Source/CMSIS_RTOS_V2/cmsis_os2.c ****         break;
 267:Middlewares/Third_Party/FreeRTOS/Source/CMSIS_RTOS_V2/cmsis_os2.c **** 
 268:Middlewares/Third_Party/FreeRTOS/Source/CMSIS_RTOS_V2/cmsis_os2.c ****       case taskSCHEDULER_RUNNING:
 269:Middlewares/Third_Party/FreeRTOS/Source/CMSIS_RTOS_V2/cmsis_os2.c ****         vTaskSuspendAll();
 270:Middlewares/Third_Party/FreeRTOS/Source/CMSIS_RTOS_V2/cmsis_os2.c ****         lock = 0;
 271:Middlewares/Third_Party/FreeRTOS/Source/CMSIS_RTOS_V2/cmsis_os2.c ****         break;
 272:Middlewares/Third_Party/FreeRTOS/Source/CMSIS_RTOS_V2/cmsis_os2.c **** 
 273:Middlewares/Third_Party/FreeRTOS/Source/CMSIS_RTOS_V2/cmsis_os2.c ****       case taskSCHEDULER_NOT_STARTED:
 274:Middlewares/Third_Party/FreeRTOS/Source/CMSIS_RTOS_V2/cmsis_os2.c ****       default:
 275:Middlewares/Third_Party/FreeRTOS/Source/CMSIS_RTOS_V2/cmsis_os2.c ****         lock = (int32_t)osError;
 276:Middlewares/Third_Party/FreeRTOS/Source/CMSIS_RTOS_V2/cmsis_os2.c ****         break;
 277:Middlewares/Third_Party/FreeRTOS/Source/CMSIS_RTOS_V2/cmsis_os2.c ****     }
 278:Middlewares/Third_Party/FreeRTOS/Source/CMSIS_RTOS_V2/cmsis_os2.c ****   }
 279:Middlewares/Third_Party/FreeRTOS/Source/CMSIS_RTOS_V2/cmsis_os2.c **** 
 280:Middlewares/Third_Party/FreeRTOS/Source/CMSIS_RTOS_V2/cmsis_os2.c ****   return (lock);
 281:Middlewares/Third_Party/FreeRTOS/Source/CMSIS_RTOS_V2/cmsis_os2.c **** }
 282:Middlewares/Third_Party/FreeRTOS/Source/CMSIS_RTOS_V2/cmsis_os2.c **** 
 283:Middlewares/Third_Party/FreeRTOS/Source/CMSIS_RTOS_V2/cmsis_os2.c **** int32_t osKernelUnlock (void) {
 284:Middlewares/Third_Party/FreeRTOS/Source/CMSIS_RTOS_V2/cmsis_os2.c ****   int32_t lock;
 285:Middlewares/Third_Party/FreeRTOS/Source/CMSIS_RTOS_V2/cmsis_os2.c **** 
 286:Middlewares/Third_Party/FreeRTOS/Source/CMSIS_RTOS_V2/cmsis_os2.c ****   if (IS_IRQ()) {
 287:Middlewares/Third_Party/FreeRTOS/Source/CMSIS_RTOS_V2/cmsis_os2.c ****     lock = (int32_t)osErrorISR;
 288:Middlewares/Third_Party/FreeRTOS/Source/CMSIS_RTOS_V2/cmsis_os2.c ****   }
 289:Middlewares/Third_Party/FreeRTOS/Source/CMSIS_RTOS_V2/cmsis_os2.c ****   else {
 290:Middlewares/Third_Party/FreeRTOS/Source/CMSIS_RTOS_V2/cmsis_os2.c ****     switch (xTaskGetSchedulerState()) {
 291:Middlewares/Third_Party/FreeRTOS/Source/CMSIS_RTOS_V2/cmsis_os2.c ****       case taskSCHEDULER_SUSPENDED:
 292:Middlewares/Third_Party/FreeRTOS/Source/CMSIS_RTOS_V2/cmsis_os2.c ****         lock = 1;
 293:Middlewares/Third_Party/FreeRTOS/Source/CMSIS_RTOS_V2/cmsis_os2.c **** 
 294:Middlewares/Third_Party/FreeRTOS/Source/CMSIS_RTOS_V2/cmsis_os2.c ****         if (xTaskResumeAll() != pdTRUE) {
 295:Middlewares/Third_Party/FreeRTOS/Source/CMSIS_RTOS_V2/cmsis_os2.c ****           if (xTaskGetSchedulerState() == taskSCHEDULER_SUSPENDED) {
 296:Middlewares/Third_Party/FreeRTOS/Source/CMSIS_RTOS_V2/cmsis_os2.c ****             lock = (int32_t)osError;
 297:Middlewares/Third_Party/FreeRTOS/Source/CMSIS_RTOS_V2/cmsis_os2.c ****           }
 298:Middlewares/Third_Party/FreeRTOS/Source/CMSIS_RTOS_V2/cmsis_os2.c ****         }
 299:Middlewares/Third_Party/FreeRTOS/Source/CMSIS_RTOS_V2/cmsis_os2.c ****         break;
 300:Middlewares/Third_Party/FreeRTOS/Source/CMSIS_RTOS_V2/cmsis_os2.c **** 
 301:Middlewares/Third_Party/FreeRTOS/Source/CMSIS_RTOS_V2/cmsis_os2.c ****       case taskSCHEDULER_RUNNING:
 302:Middlewares/Third_Party/FreeRTOS/Source/CMSIS_RTOS_V2/cmsis_os2.c ****         lock = 0;
 303:Middlewares/Third_Party/FreeRTOS/Source/CMSIS_RTOS_V2/cmsis_os2.c ****         break;
 304:Middlewares/Third_Party/FreeRTOS/Source/CMSIS_RTOS_V2/cmsis_os2.c **** 
 305:Middlewares/Third_Party/FreeRTOS/Source/CMSIS_RTOS_V2/cmsis_os2.c ****       case taskSCHEDULER_NOT_STARTED:
 306:Middlewares/Third_Party/FreeRTOS/Source/CMSIS_RTOS_V2/cmsis_os2.c ****       default:
 307:Middlewares/Third_Party/FreeRTOS/Source/CMSIS_RTOS_V2/cmsis_os2.c ****         lock = (int32_t)osError;
 308:Middlewares/Third_Party/FreeRTOS/Source/CMSIS_RTOS_V2/cmsis_os2.c ****         break;
 309:Middlewares/Third_Party/FreeRTOS/Source/CMSIS_RTOS_V2/cmsis_os2.c ****     }
 310:Middlewares/Third_Party/FreeRTOS/Source/CMSIS_RTOS_V2/cmsis_os2.c ****   }
 311:Middlewares/Third_Party/FreeRTOS/Source/CMSIS_RTOS_V2/cmsis_os2.c **** 
 312:Middlewares/Third_Party/FreeRTOS/Source/CMSIS_RTOS_V2/cmsis_os2.c ****   return (lock);
 313:Middlewares/Third_Party/FreeRTOS/Source/CMSIS_RTOS_V2/cmsis_os2.c **** }
 314:Middlewares/Third_Party/FreeRTOS/Source/CMSIS_RTOS_V2/cmsis_os2.c **** 
 315:Middlewares/Third_Party/FreeRTOS/Source/CMSIS_RTOS_V2/cmsis_os2.c **** int32_t osKernelRestoreLock (int32_t lock) {
 316:Middlewares/Third_Party/FreeRTOS/Source/CMSIS_RTOS_V2/cmsis_os2.c **** 
 317:Middlewares/Third_Party/FreeRTOS/Source/CMSIS_RTOS_V2/cmsis_os2.c ****   if (IS_IRQ()) {
ARM GAS  /tmp/ccjsdB5h.s 			page 7


 318:Middlewares/Third_Party/FreeRTOS/Source/CMSIS_RTOS_V2/cmsis_os2.c ****     lock = (int32_t)osErrorISR;
 319:Middlewares/Third_Party/FreeRTOS/Source/CMSIS_RTOS_V2/cmsis_os2.c ****   }
 320:Middlewares/Third_Party/FreeRTOS/Source/CMSIS_RTOS_V2/cmsis_os2.c ****   else {
 321:Middlewares/Third_Party/FreeRTOS/Source/CMSIS_RTOS_V2/cmsis_os2.c ****     switch (xTaskGetSchedulerState()) {
 322:Middlewares/Third_Party/FreeRTOS/Source/CMSIS_RTOS_V2/cmsis_os2.c ****       case taskSCHEDULER_SUSPENDED:
 323:Middlewares/Third_Party/FreeRTOS/Source/CMSIS_RTOS_V2/cmsis_os2.c ****       case taskSCHEDULER_RUNNING:
 324:Middlewares/Third_Party/FreeRTOS/Source/CMSIS_RTOS_V2/cmsis_os2.c ****         if (lock == 1) {
 325:Middlewares/Third_Party/FreeRTOS/Source/CMSIS_RTOS_V2/cmsis_os2.c ****           vTaskSuspendAll();
 326:Middlewares/Third_Party/FreeRTOS/Source/CMSIS_RTOS_V2/cmsis_os2.c ****         }
 327:Middlewares/Third_Party/FreeRTOS/Source/CMSIS_RTOS_V2/cmsis_os2.c ****         else {
 328:Middlewares/Third_Party/FreeRTOS/Source/CMSIS_RTOS_V2/cmsis_os2.c ****           if (lock != 0) {
 329:Middlewares/Third_Party/FreeRTOS/Source/CMSIS_RTOS_V2/cmsis_os2.c ****             lock = (int32_t)osError;
 330:Middlewares/Third_Party/FreeRTOS/Source/CMSIS_RTOS_V2/cmsis_os2.c ****           }
 331:Middlewares/Third_Party/FreeRTOS/Source/CMSIS_RTOS_V2/cmsis_os2.c ****           else {
 332:Middlewares/Third_Party/FreeRTOS/Source/CMSIS_RTOS_V2/cmsis_os2.c ****             if (xTaskResumeAll() != pdTRUE) {
 333:Middlewares/Third_Party/FreeRTOS/Source/CMSIS_RTOS_V2/cmsis_os2.c ****               if (xTaskGetSchedulerState() != taskSCHEDULER_RUNNING) {
 334:Middlewares/Third_Party/FreeRTOS/Source/CMSIS_RTOS_V2/cmsis_os2.c ****                 lock = (int32_t)osError;
 335:Middlewares/Third_Party/FreeRTOS/Source/CMSIS_RTOS_V2/cmsis_os2.c ****               }
 336:Middlewares/Third_Party/FreeRTOS/Source/CMSIS_RTOS_V2/cmsis_os2.c ****             }
 337:Middlewares/Third_Party/FreeRTOS/Source/CMSIS_RTOS_V2/cmsis_os2.c ****           }
 338:Middlewares/Third_Party/FreeRTOS/Source/CMSIS_RTOS_V2/cmsis_os2.c ****         }
 339:Middlewares/Third_Party/FreeRTOS/Source/CMSIS_RTOS_V2/cmsis_os2.c ****         break;
 340:Middlewares/Third_Party/FreeRTOS/Source/CMSIS_RTOS_V2/cmsis_os2.c **** 
 341:Middlewares/Third_Party/FreeRTOS/Source/CMSIS_RTOS_V2/cmsis_os2.c ****       case taskSCHEDULER_NOT_STARTED:
 342:Middlewares/Third_Party/FreeRTOS/Source/CMSIS_RTOS_V2/cmsis_os2.c ****       default:
 343:Middlewares/Third_Party/FreeRTOS/Source/CMSIS_RTOS_V2/cmsis_os2.c ****         lock = (int32_t)osError;
 344:Middlewares/Third_Party/FreeRTOS/Source/CMSIS_RTOS_V2/cmsis_os2.c ****         break;
 345:Middlewares/Third_Party/FreeRTOS/Source/CMSIS_RTOS_V2/cmsis_os2.c ****     }
 346:Middlewares/Third_Party/FreeRTOS/Source/CMSIS_RTOS_V2/cmsis_os2.c ****   }
 347:Middlewares/Third_Party/FreeRTOS/Source/CMSIS_RTOS_V2/cmsis_os2.c **** 
 348:Middlewares/Third_Party/FreeRTOS/Source/CMSIS_RTOS_V2/cmsis_os2.c ****   return (lock);
 349:Middlewares/Third_Party/FreeRTOS/Source/CMSIS_RTOS_V2/cmsis_os2.c **** }
 350:Middlewares/Third_Party/FreeRTOS/Source/CMSIS_RTOS_V2/cmsis_os2.c **** 
 351:Middlewares/Third_Party/FreeRTOS/Source/CMSIS_RTOS_V2/cmsis_os2.c **** uint32_t osKernelGetTickCount (void) {
 352:Middlewares/Third_Party/FreeRTOS/Source/CMSIS_RTOS_V2/cmsis_os2.c ****   TickType_t ticks;
 353:Middlewares/Third_Party/FreeRTOS/Source/CMSIS_RTOS_V2/cmsis_os2.c **** 
 354:Middlewares/Third_Party/FreeRTOS/Source/CMSIS_RTOS_V2/cmsis_os2.c ****   if (IS_IRQ()) {
 355:Middlewares/Third_Party/FreeRTOS/Source/CMSIS_RTOS_V2/cmsis_os2.c ****     ticks = xTaskGetTickCountFromISR();
 356:Middlewares/Third_Party/FreeRTOS/Source/CMSIS_RTOS_V2/cmsis_os2.c ****   } else {
 357:Middlewares/Third_Party/FreeRTOS/Source/CMSIS_RTOS_V2/cmsis_os2.c ****     ticks = xTaskGetTickCount();
 358:Middlewares/Third_Party/FreeRTOS/Source/CMSIS_RTOS_V2/cmsis_os2.c ****   }
 359:Middlewares/Third_Party/FreeRTOS/Source/CMSIS_RTOS_V2/cmsis_os2.c **** 
 360:Middlewares/Third_Party/FreeRTOS/Source/CMSIS_RTOS_V2/cmsis_os2.c ****   return (ticks);
 361:Middlewares/Third_Party/FreeRTOS/Source/CMSIS_RTOS_V2/cmsis_os2.c **** }
 362:Middlewares/Third_Party/FreeRTOS/Source/CMSIS_RTOS_V2/cmsis_os2.c **** 
 363:Middlewares/Third_Party/FreeRTOS/Source/CMSIS_RTOS_V2/cmsis_os2.c **** uint32_t osKernelGetTickFreq (void) {
 364:Middlewares/Third_Party/FreeRTOS/Source/CMSIS_RTOS_V2/cmsis_os2.c ****   return (configTICK_RATE_HZ);
 365:Middlewares/Third_Party/FreeRTOS/Source/CMSIS_RTOS_V2/cmsis_os2.c **** }
 366:Middlewares/Third_Party/FreeRTOS/Source/CMSIS_RTOS_V2/cmsis_os2.c **** 
 367:Middlewares/Third_Party/FreeRTOS/Source/CMSIS_RTOS_V2/cmsis_os2.c **** uint32_t osKernelGetSysTimerCount (void) {
 368:Middlewares/Third_Party/FreeRTOS/Source/CMSIS_RTOS_V2/cmsis_os2.c ****   TickType_t ticks;
 369:Middlewares/Third_Party/FreeRTOS/Source/CMSIS_RTOS_V2/cmsis_os2.c ****   uint32_t val;
 370:Middlewares/Third_Party/FreeRTOS/Source/CMSIS_RTOS_V2/cmsis_os2.c **** 
 371:Middlewares/Third_Party/FreeRTOS/Source/CMSIS_RTOS_V2/cmsis_os2.c ****   portDISABLE_INTERRUPTS();
 372:Middlewares/Third_Party/FreeRTOS/Source/CMSIS_RTOS_V2/cmsis_os2.c **** 
 373:Middlewares/Third_Party/FreeRTOS/Source/CMSIS_RTOS_V2/cmsis_os2.c ****   ticks = xTaskGetTickCount();
 374:Middlewares/Third_Party/FreeRTOS/Source/CMSIS_RTOS_V2/cmsis_os2.c **** 
ARM GAS  /tmp/ccjsdB5h.s 			page 8


 375:Middlewares/Third_Party/FreeRTOS/Source/CMSIS_RTOS_V2/cmsis_os2.c ****   val = ticks * ( configCPU_CLOCK_HZ / configTICK_RATE_HZ );
 376:Middlewares/Third_Party/FreeRTOS/Source/CMSIS_RTOS_V2/cmsis_os2.c ****   portENABLE_INTERRUPTS();
 377:Middlewares/Third_Party/FreeRTOS/Source/CMSIS_RTOS_V2/cmsis_os2.c **** 
 378:Middlewares/Third_Party/FreeRTOS/Source/CMSIS_RTOS_V2/cmsis_os2.c ****   return (val);
 379:Middlewares/Third_Party/FreeRTOS/Source/CMSIS_RTOS_V2/cmsis_os2.c **** }
 380:Middlewares/Third_Party/FreeRTOS/Source/CMSIS_RTOS_V2/cmsis_os2.c **** 
 381:Middlewares/Third_Party/FreeRTOS/Source/CMSIS_RTOS_V2/cmsis_os2.c **** uint32_t osKernelGetSysTimerFreq (void) {
 382:Middlewares/Third_Party/FreeRTOS/Source/CMSIS_RTOS_V2/cmsis_os2.c ****   return (configCPU_CLOCK_HZ);
 383:Middlewares/Third_Party/FreeRTOS/Source/CMSIS_RTOS_V2/cmsis_os2.c **** }
 384:Middlewares/Third_Party/FreeRTOS/Source/CMSIS_RTOS_V2/cmsis_os2.c **** 
 385:Middlewares/Third_Party/FreeRTOS/Source/CMSIS_RTOS_V2/cmsis_os2.c **** /*---------------------------------------------------------------------------*/
 386:Middlewares/Third_Party/FreeRTOS/Source/CMSIS_RTOS_V2/cmsis_os2.c **** 
 387:Middlewares/Third_Party/FreeRTOS/Source/CMSIS_RTOS_V2/cmsis_os2.c **** osThreadId_t osThreadNew (osThreadFunc_t func, void *argument, const osThreadAttr_t *attr) {
 388:Middlewares/Third_Party/FreeRTOS/Source/CMSIS_RTOS_V2/cmsis_os2.c ****   char empty;
 389:Middlewares/Third_Party/FreeRTOS/Source/CMSIS_RTOS_V2/cmsis_os2.c ****   const char *name;
 390:Middlewares/Third_Party/FreeRTOS/Source/CMSIS_RTOS_V2/cmsis_os2.c ****   uint32_t stack;
 391:Middlewares/Third_Party/FreeRTOS/Source/CMSIS_RTOS_V2/cmsis_os2.c ****   TaskHandle_t hTask;
 392:Middlewares/Third_Party/FreeRTOS/Source/CMSIS_RTOS_V2/cmsis_os2.c ****   UBaseType_t prio;
 393:Middlewares/Third_Party/FreeRTOS/Source/CMSIS_RTOS_V2/cmsis_os2.c ****   int32_t mem;
 394:Middlewares/Third_Party/FreeRTOS/Source/CMSIS_RTOS_V2/cmsis_os2.c **** 
 395:Middlewares/Third_Party/FreeRTOS/Source/CMSIS_RTOS_V2/cmsis_os2.c ****   hTask = NULL;
 396:Middlewares/Third_Party/FreeRTOS/Source/CMSIS_RTOS_V2/cmsis_os2.c **** 
 397:Middlewares/Third_Party/FreeRTOS/Source/CMSIS_RTOS_V2/cmsis_os2.c ****   if (!IS_IRQ() && (func != NULL)) {
 398:Middlewares/Third_Party/FreeRTOS/Source/CMSIS_RTOS_V2/cmsis_os2.c ****     stack = configMINIMAL_STACK_SIZE;
 399:Middlewares/Third_Party/FreeRTOS/Source/CMSIS_RTOS_V2/cmsis_os2.c ****     prio  = (UBaseType_t)osPriorityNormal;
 400:Middlewares/Third_Party/FreeRTOS/Source/CMSIS_RTOS_V2/cmsis_os2.c **** 
 401:Middlewares/Third_Party/FreeRTOS/Source/CMSIS_RTOS_V2/cmsis_os2.c ****     empty = '\0';
 402:Middlewares/Third_Party/FreeRTOS/Source/CMSIS_RTOS_V2/cmsis_os2.c ****     name  = &empty;
 403:Middlewares/Third_Party/FreeRTOS/Source/CMSIS_RTOS_V2/cmsis_os2.c ****     mem   = -1;
 404:Middlewares/Third_Party/FreeRTOS/Source/CMSIS_RTOS_V2/cmsis_os2.c **** 
 405:Middlewares/Third_Party/FreeRTOS/Source/CMSIS_RTOS_V2/cmsis_os2.c ****     if (attr != NULL) {
 406:Middlewares/Third_Party/FreeRTOS/Source/CMSIS_RTOS_V2/cmsis_os2.c ****       if (attr->name != NULL) {
 407:Middlewares/Third_Party/FreeRTOS/Source/CMSIS_RTOS_V2/cmsis_os2.c ****         name = attr->name;
 408:Middlewares/Third_Party/FreeRTOS/Source/CMSIS_RTOS_V2/cmsis_os2.c ****       }
 409:Middlewares/Third_Party/FreeRTOS/Source/CMSIS_RTOS_V2/cmsis_os2.c ****       if (attr->priority != osPriorityNone) {
 410:Middlewares/Third_Party/FreeRTOS/Source/CMSIS_RTOS_V2/cmsis_os2.c ****         prio = (UBaseType_t)attr->priority;
 411:Middlewares/Third_Party/FreeRTOS/Source/CMSIS_RTOS_V2/cmsis_os2.c ****       }
 412:Middlewares/Third_Party/FreeRTOS/Source/CMSIS_RTOS_V2/cmsis_os2.c **** 
 413:Middlewares/Third_Party/FreeRTOS/Source/CMSIS_RTOS_V2/cmsis_os2.c ****       if ((prio < osPriorityIdle) || (prio > osPriorityISR) || ((attr->attr_bits & osThreadJoinable
 414:Middlewares/Third_Party/FreeRTOS/Source/CMSIS_RTOS_V2/cmsis_os2.c ****         return (NULL);
 415:Middlewares/Third_Party/FreeRTOS/Source/CMSIS_RTOS_V2/cmsis_os2.c ****       }
 416:Middlewares/Third_Party/FreeRTOS/Source/CMSIS_RTOS_V2/cmsis_os2.c **** 
 417:Middlewares/Third_Party/FreeRTOS/Source/CMSIS_RTOS_V2/cmsis_os2.c ****       if (attr->stack_size > 0U) {
 418:Middlewares/Third_Party/FreeRTOS/Source/CMSIS_RTOS_V2/cmsis_os2.c ****         /* In FreeRTOS stack is not in bytes, but in sizeof(StackType_t) which is 4 on ARM ports.  
 419:Middlewares/Third_Party/FreeRTOS/Source/CMSIS_RTOS_V2/cmsis_os2.c ****         /* Stack size should be therefore 4 byte aligned in order to avoid division caused side eff
 420:Middlewares/Third_Party/FreeRTOS/Source/CMSIS_RTOS_V2/cmsis_os2.c ****         stack = attr->stack_size / sizeof(StackType_t);
 421:Middlewares/Third_Party/FreeRTOS/Source/CMSIS_RTOS_V2/cmsis_os2.c ****       }
 422:Middlewares/Third_Party/FreeRTOS/Source/CMSIS_RTOS_V2/cmsis_os2.c **** 
 423:Middlewares/Third_Party/FreeRTOS/Source/CMSIS_RTOS_V2/cmsis_os2.c ****       if ((attr->cb_mem    != NULL) && (attr->cb_size    >= sizeof(StaticTask_t)) &&
 424:Middlewares/Third_Party/FreeRTOS/Source/CMSIS_RTOS_V2/cmsis_os2.c ****           (attr->stack_mem != NULL) && (attr->stack_size >  0U)) {
 425:Middlewares/Third_Party/FreeRTOS/Source/CMSIS_RTOS_V2/cmsis_os2.c ****         mem = 1;
 426:Middlewares/Third_Party/FreeRTOS/Source/CMSIS_RTOS_V2/cmsis_os2.c ****       }
 427:Middlewares/Third_Party/FreeRTOS/Source/CMSIS_RTOS_V2/cmsis_os2.c ****       else {
 428:Middlewares/Third_Party/FreeRTOS/Source/CMSIS_RTOS_V2/cmsis_os2.c ****         if ((attr->cb_mem == NULL) && (attr->cb_size == 0U) && (attr->stack_mem == NULL)) {
 429:Middlewares/Third_Party/FreeRTOS/Source/CMSIS_RTOS_V2/cmsis_os2.c ****           mem = 0;
 430:Middlewares/Third_Party/FreeRTOS/Source/CMSIS_RTOS_V2/cmsis_os2.c ****         }
 431:Middlewares/Third_Party/FreeRTOS/Source/CMSIS_RTOS_V2/cmsis_os2.c ****       }
ARM GAS  /tmp/ccjsdB5h.s 			page 9


 432:Middlewares/Third_Party/FreeRTOS/Source/CMSIS_RTOS_V2/cmsis_os2.c ****     }
 433:Middlewares/Third_Party/FreeRTOS/Source/CMSIS_RTOS_V2/cmsis_os2.c ****     else {
 434:Middlewares/Third_Party/FreeRTOS/Source/CMSIS_RTOS_V2/cmsis_os2.c ****       mem = 0;
 435:Middlewares/Third_Party/FreeRTOS/Source/CMSIS_RTOS_V2/cmsis_os2.c ****     }
 436:Middlewares/Third_Party/FreeRTOS/Source/CMSIS_RTOS_V2/cmsis_os2.c **** 
 437:Middlewares/Third_Party/FreeRTOS/Source/CMSIS_RTOS_V2/cmsis_os2.c ****     if (mem == 1) {
 438:Middlewares/Third_Party/FreeRTOS/Source/CMSIS_RTOS_V2/cmsis_os2.c ****       hTask = xTaskCreateStatic ((TaskFunction_t)func, name, stack, argument, prio, (StackType_t  *
 439:Middlewares/Third_Party/FreeRTOS/Source/CMSIS_RTOS_V2/cmsis_os2.c ****                                                                                     (StaticTask_t *
 440:Middlewares/Third_Party/FreeRTOS/Source/CMSIS_RTOS_V2/cmsis_os2.c ****     }
 441:Middlewares/Third_Party/FreeRTOS/Source/CMSIS_RTOS_V2/cmsis_os2.c ****     else {
 442:Middlewares/Third_Party/FreeRTOS/Source/CMSIS_RTOS_V2/cmsis_os2.c ****       if (mem == 0) {
 443:Middlewares/Third_Party/FreeRTOS/Source/CMSIS_RTOS_V2/cmsis_os2.c ****         if (xTaskCreate ((TaskFunction_t)func, name, (uint16_t)stack, argument, prio, &hTask) != pd
 444:Middlewares/Third_Party/FreeRTOS/Source/CMSIS_RTOS_V2/cmsis_os2.c ****           hTask = NULL;
 445:Middlewares/Third_Party/FreeRTOS/Source/CMSIS_RTOS_V2/cmsis_os2.c ****         }
 446:Middlewares/Third_Party/FreeRTOS/Source/CMSIS_RTOS_V2/cmsis_os2.c ****       }
 447:Middlewares/Third_Party/FreeRTOS/Source/CMSIS_RTOS_V2/cmsis_os2.c ****     }
 448:Middlewares/Third_Party/FreeRTOS/Source/CMSIS_RTOS_V2/cmsis_os2.c ****   }
 449:Middlewares/Third_Party/FreeRTOS/Source/CMSIS_RTOS_V2/cmsis_os2.c **** 
 450:Middlewares/Third_Party/FreeRTOS/Source/CMSIS_RTOS_V2/cmsis_os2.c ****   return ((osThreadId_t)hTask);
 451:Middlewares/Third_Party/FreeRTOS/Source/CMSIS_RTOS_V2/cmsis_os2.c **** }
 452:Middlewares/Third_Party/FreeRTOS/Source/CMSIS_RTOS_V2/cmsis_os2.c **** 
 453:Middlewares/Third_Party/FreeRTOS/Source/CMSIS_RTOS_V2/cmsis_os2.c **** const char *osThreadGetName (osThreadId_t thread_id) {
 454:Middlewares/Third_Party/FreeRTOS/Source/CMSIS_RTOS_V2/cmsis_os2.c ****   TaskHandle_t hTask = (TaskHandle_t)thread_id;
 455:Middlewares/Third_Party/FreeRTOS/Source/CMSIS_RTOS_V2/cmsis_os2.c ****   const char *name;
 456:Middlewares/Third_Party/FreeRTOS/Source/CMSIS_RTOS_V2/cmsis_os2.c **** 
 457:Middlewares/Third_Party/FreeRTOS/Source/CMSIS_RTOS_V2/cmsis_os2.c ****   if (IS_IRQ() || (hTask == NULL)) {
 458:Middlewares/Third_Party/FreeRTOS/Source/CMSIS_RTOS_V2/cmsis_os2.c ****     name = NULL;
 459:Middlewares/Third_Party/FreeRTOS/Source/CMSIS_RTOS_V2/cmsis_os2.c ****   } else {
 460:Middlewares/Third_Party/FreeRTOS/Source/CMSIS_RTOS_V2/cmsis_os2.c ****     name = pcTaskGetName (hTask);
 461:Middlewares/Third_Party/FreeRTOS/Source/CMSIS_RTOS_V2/cmsis_os2.c ****   }
 462:Middlewares/Third_Party/FreeRTOS/Source/CMSIS_RTOS_V2/cmsis_os2.c **** 
 463:Middlewares/Third_Party/FreeRTOS/Source/CMSIS_RTOS_V2/cmsis_os2.c ****   return (name);
 464:Middlewares/Third_Party/FreeRTOS/Source/CMSIS_RTOS_V2/cmsis_os2.c **** }
 465:Middlewares/Third_Party/FreeRTOS/Source/CMSIS_RTOS_V2/cmsis_os2.c **** 
 466:Middlewares/Third_Party/FreeRTOS/Source/CMSIS_RTOS_V2/cmsis_os2.c **** osThreadId_t osThreadGetId (void) {
 467:Middlewares/Third_Party/FreeRTOS/Source/CMSIS_RTOS_V2/cmsis_os2.c ****   osThreadId_t id;
 468:Middlewares/Third_Party/FreeRTOS/Source/CMSIS_RTOS_V2/cmsis_os2.c **** 
 469:Middlewares/Third_Party/FreeRTOS/Source/CMSIS_RTOS_V2/cmsis_os2.c ****   if (IS_IRQ()) {
 470:Middlewares/Third_Party/FreeRTOS/Source/CMSIS_RTOS_V2/cmsis_os2.c ****     id = NULL;
 471:Middlewares/Third_Party/FreeRTOS/Source/CMSIS_RTOS_V2/cmsis_os2.c ****   } else {
 472:Middlewares/Third_Party/FreeRTOS/Source/CMSIS_RTOS_V2/cmsis_os2.c ****     id = (osThreadId_t)xTaskGetCurrentTaskHandle();
 473:Middlewares/Third_Party/FreeRTOS/Source/CMSIS_RTOS_V2/cmsis_os2.c ****   }
 474:Middlewares/Third_Party/FreeRTOS/Source/CMSIS_RTOS_V2/cmsis_os2.c **** 
 475:Middlewares/Third_Party/FreeRTOS/Source/CMSIS_RTOS_V2/cmsis_os2.c ****   return (id);
 476:Middlewares/Third_Party/FreeRTOS/Source/CMSIS_RTOS_V2/cmsis_os2.c **** }
 477:Middlewares/Third_Party/FreeRTOS/Source/CMSIS_RTOS_V2/cmsis_os2.c **** 
 478:Middlewares/Third_Party/FreeRTOS/Source/CMSIS_RTOS_V2/cmsis_os2.c **** osThreadState_t osThreadGetState (osThreadId_t thread_id) {
 479:Middlewares/Third_Party/FreeRTOS/Source/CMSIS_RTOS_V2/cmsis_os2.c ****   TaskHandle_t hTask = (TaskHandle_t)thread_id;
 480:Middlewares/Third_Party/FreeRTOS/Source/CMSIS_RTOS_V2/cmsis_os2.c ****   osThreadState_t state;
 481:Middlewares/Third_Party/FreeRTOS/Source/CMSIS_RTOS_V2/cmsis_os2.c **** 
 482:Middlewares/Third_Party/FreeRTOS/Source/CMSIS_RTOS_V2/cmsis_os2.c ****   if (IS_IRQ() || (hTask == NULL)) {
 483:Middlewares/Third_Party/FreeRTOS/Source/CMSIS_RTOS_V2/cmsis_os2.c ****     state = osThreadError;
 484:Middlewares/Third_Party/FreeRTOS/Source/CMSIS_RTOS_V2/cmsis_os2.c ****   }
 485:Middlewares/Third_Party/FreeRTOS/Source/CMSIS_RTOS_V2/cmsis_os2.c ****   else {
 486:Middlewares/Third_Party/FreeRTOS/Source/CMSIS_RTOS_V2/cmsis_os2.c ****     switch (eTaskGetState (hTask)) {
 487:Middlewares/Third_Party/FreeRTOS/Source/CMSIS_RTOS_V2/cmsis_os2.c ****       case eRunning:   state = osThreadRunning;    break;
 488:Middlewares/Third_Party/FreeRTOS/Source/CMSIS_RTOS_V2/cmsis_os2.c ****       case eReady:     state = osThreadReady;      break;
ARM GAS  /tmp/ccjsdB5h.s 			page 10


 489:Middlewares/Third_Party/FreeRTOS/Source/CMSIS_RTOS_V2/cmsis_os2.c ****       case eBlocked:
 490:Middlewares/Third_Party/FreeRTOS/Source/CMSIS_RTOS_V2/cmsis_os2.c ****       case eSuspended: state = osThreadBlocked;    break;
 491:Middlewares/Third_Party/FreeRTOS/Source/CMSIS_RTOS_V2/cmsis_os2.c ****       case eDeleted:   state = osThreadTerminated; break;
 492:Middlewares/Third_Party/FreeRTOS/Source/CMSIS_RTOS_V2/cmsis_os2.c ****       case eInvalid:
 493:Middlewares/Third_Party/FreeRTOS/Source/CMSIS_RTOS_V2/cmsis_os2.c ****       default:         state = osThreadError;      break;
 494:Middlewares/Third_Party/FreeRTOS/Source/CMSIS_RTOS_V2/cmsis_os2.c ****     }
 495:Middlewares/Third_Party/FreeRTOS/Source/CMSIS_RTOS_V2/cmsis_os2.c ****   }
 496:Middlewares/Third_Party/FreeRTOS/Source/CMSIS_RTOS_V2/cmsis_os2.c **** 
 497:Middlewares/Third_Party/FreeRTOS/Source/CMSIS_RTOS_V2/cmsis_os2.c ****   return (state);
 498:Middlewares/Third_Party/FreeRTOS/Source/CMSIS_RTOS_V2/cmsis_os2.c **** }
 499:Middlewares/Third_Party/FreeRTOS/Source/CMSIS_RTOS_V2/cmsis_os2.c **** 
 500:Middlewares/Third_Party/FreeRTOS/Source/CMSIS_RTOS_V2/cmsis_os2.c **** uint32_t osThreadGetStackSpace (osThreadId_t thread_id) {
 501:Middlewares/Third_Party/FreeRTOS/Source/CMSIS_RTOS_V2/cmsis_os2.c ****   TaskHandle_t hTask = (TaskHandle_t)thread_id;
 502:Middlewares/Third_Party/FreeRTOS/Source/CMSIS_RTOS_V2/cmsis_os2.c ****   uint32_t sz;
 503:Middlewares/Third_Party/FreeRTOS/Source/CMSIS_RTOS_V2/cmsis_os2.c **** 
 504:Middlewares/Third_Party/FreeRTOS/Source/CMSIS_RTOS_V2/cmsis_os2.c ****   if (IS_IRQ() || (hTask == NULL)) {
 505:Middlewares/Third_Party/FreeRTOS/Source/CMSIS_RTOS_V2/cmsis_os2.c ****     sz = 0U;
 506:Middlewares/Third_Party/FreeRTOS/Source/CMSIS_RTOS_V2/cmsis_os2.c ****   } else {
 507:Middlewares/Third_Party/FreeRTOS/Source/CMSIS_RTOS_V2/cmsis_os2.c ****     sz = (uint32_t)uxTaskGetStackHighWaterMark (hTask);
 508:Middlewares/Third_Party/FreeRTOS/Source/CMSIS_RTOS_V2/cmsis_os2.c ****   }
 509:Middlewares/Third_Party/FreeRTOS/Source/CMSIS_RTOS_V2/cmsis_os2.c **** 
 510:Middlewares/Third_Party/FreeRTOS/Source/CMSIS_RTOS_V2/cmsis_os2.c ****   return (sz);
 511:Middlewares/Third_Party/FreeRTOS/Source/CMSIS_RTOS_V2/cmsis_os2.c **** }
 512:Middlewares/Third_Party/FreeRTOS/Source/CMSIS_RTOS_V2/cmsis_os2.c **** 
 513:Middlewares/Third_Party/FreeRTOS/Source/CMSIS_RTOS_V2/cmsis_os2.c **** uint32_t osThreadGetStackSize	(osThreadId_t thread_id) {
 514:Middlewares/Third_Party/FreeRTOS/Source/CMSIS_RTOS_V2/cmsis_os2.c ****   /*
 515:Middlewares/Third_Party/FreeRTOS/Source/CMSIS_RTOS_V2/cmsis_os2.c ****    * this implmentation is not correct.
 516:Middlewares/Third_Party/FreeRTOS/Source/CMSIS_RTOS_V2/cmsis_os2.c ****    * this function is implmented to avoid link errors (undefined reference)
 517:Middlewares/Third_Party/FreeRTOS/Source/CMSIS_RTOS_V2/cmsis_os2.c ****    * Bug reported : https://github.com/ARM-software/CMSIS-FreeRTOS/issues/14
 518:Middlewares/Third_Party/FreeRTOS/Source/CMSIS_RTOS_V2/cmsis_os2.c ****    */
 519:Middlewares/Third_Party/FreeRTOS/Source/CMSIS_RTOS_V2/cmsis_os2.c ****   (void) thread_id;
 520:Middlewares/Third_Party/FreeRTOS/Source/CMSIS_RTOS_V2/cmsis_os2.c ****   return 0;
 521:Middlewares/Third_Party/FreeRTOS/Source/CMSIS_RTOS_V2/cmsis_os2.c **** }
 522:Middlewares/Third_Party/FreeRTOS/Source/CMSIS_RTOS_V2/cmsis_os2.c **** 
 523:Middlewares/Third_Party/FreeRTOS/Source/CMSIS_RTOS_V2/cmsis_os2.c **** osStatus_t osThreadSetPriority (osThreadId_t thread_id, osPriority_t priority) {
 524:Middlewares/Third_Party/FreeRTOS/Source/CMSIS_RTOS_V2/cmsis_os2.c ****   TaskHandle_t hTask = (TaskHandle_t)thread_id;
 525:Middlewares/Third_Party/FreeRTOS/Source/CMSIS_RTOS_V2/cmsis_os2.c ****   osStatus_t stat;
 526:Middlewares/Third_Party/FreeRTOS/Source/CMSIS_RTOS_V2/cmsis_os2.c **** 
 527:Middlewares/Third_Party/FreeRTOS/Source/CMSIS_RTOS_V2/cmsis_os2.c ****   if (IS_IRQ()) {
 528:Middlewares/Third_Party/FreeRTOS/Source/CMSIS_RTOS_V2/cmsis_os2.c ****     stat = osErrorISR;
 529:Middlewares/Third_Party/FreeRTOS/Source/CMSIS_RTOS_V2/cmsis_os2.c ****   }
 530:Middlewares/Third_Party/FreeRTOS/Source/CMSIS_RTOS_V2/cmsis_os2.c ****   else if ((hTask == NULL) || (priority < osPriorityIdle) || (priority > osPriorityISR)) {
 531:Middlewares/Third_Party/FreeRTOS/Source/CMSIS_RTOS_V2/cmsis_os2.c ****     stat = osErrorParameter;
 532:Middlewares/Third_Party/FreeRTOS/Source/CMSIS_RTOS_V2/cmsis_os2.c ****   }
 533:Middlewares/Third_Party/FreeRTOS/Source/CMSIS_RTOS_V2/cmsis_os2.c ****   else {
 534:Middlewares/Third_Party/FreeRTOS/Source/CMSIS_RTOS_V2/cmsis_os2.c ****     stat = osOK;
 535:Middlewares/Third_Party/FreeRTOS/Source/CMSIS_RTOS_V2/cmsis_os2.c ****     vTaskPrioritySet (hTask, (UBaseType_t)priority);
 536:Middlewares/Third_Party/FreeRTOS/Source/CMSIS_RTOS_V2/cmsis_os2.c ****   }
 537:Middlewares/Third_Party/FreeRTOS/Source/CMSIS_RTOS_V2/cmsis_os2.c **** 
 538:Middlewares/Third_Party/FreeRTOS/Source/CMSIS_RTOS_V2/cmsis_os2.c ****   return (stat);
 539:Middlewares/Third_Party/FreeRTOS/Source/CMSIS_RTOS_V2/cmsis_os2.c **** }
 540:Middlewares/Third_Party/FreeRTOS/Source/CMSIS_RTOS_V2/cmsis_os2.c **** 
 541:Middlewares/Third_Party/FreeRTOS/Source/CMSIS_RTOS_V2/cmsis_os2.c **** osPriority_t osThreadGetPriority (osThreadId_t thread_id) {
 542:Middlewares/Third_Party/FreeRTOS/Source/CMSIS_RTOS_V2/cmsis_os2.c ****   TaskHandle_t hTask = (TaskHandle_t)thread_id;
 543:Middlewares/Third_Party/FreeRTOS/Source/CMSIS_RTOS_V2/cmsis_os2.c ****   osPriority_t prio;
 544:Middlewares/Third_Party/FreeRTOS/Source/CMSIS_RTOS_V2/cmsis_os2.c **** 
 545:Middlewares/Third_Party/FreeRTOS/Source/CMSIS_RTOS_V2/cmsis_os2.c ****   if (IS_IRQ() || (hTask == NULL)) {
ARM GAS  /tmp/ccjsdB5h.s 			page 11


 546:Middlewares/Third_Party/FreeRTOS/Source/CMSIS_RTOS_V2/cmsis_os2.c ****     prio = osPriorityError;
 547:Middlewares/Third_Party/FreeRTOS/Source/CMSIS_RTOS_V2/cmsis_os2.c ****   } else {
 548:Middlewares/Third_Party/FreeRTOS/Source/CMSIS_RTOS_V2/cmsis_os2.c ****     prio = (osPriority_t)uxTaskPriorityGet (hTask);
 549:Middlewares/Third_Party/FreeRTOS/Source/CMSIS_RTOS_V2/cmsis_os2.c ****   }
 550:Middlewares/Third_Party/FreeRTOS/Source/CMSIS_RTOS_V2/cmsis_os2.c **** 
 551:Middlewares/Third_Party/FreeRTOS/Source/CMSIS_RTOS_V2/cmsis_os2.c ****   return (prio);
 552:Middlewares/Third_Party/FreeRTOS/Source/CMSIS_RTOS_V2/cmsis_os2.c **** }
 553:Middlewares/Third_Party/FreeRTOS/Source/CMSIS_RTOS_V2/cmsis_os2.c **** 
 554:Middlewares/Third_Party/FreeRTOS/Source/CMSIS_RTOS_V2/cmsis_os2.c **** osStatus_t osThreadYield (void) {
 555:Middlewares/Third_Party/FreeRTOS/Source/CMSIS_RTOS_V2/cmsis_os2.c ****   osStatus_t stat;
 556:Middlewares/Third_Party/FreeRTOS/Source/CMSIS_RTOS_V2/cmsis_os2.c **** 
 557:Middlewares/Third_Party/FreeRTOS/Source/CMSIS_RTOS_V2/cmsis_os2.c ****   if (IS_IRQ()) {
 558:Middlewares/Third_Party/FreeRTOS/Source/CMSIS_RTOS_V2/cmsis_os2.c ****     stat = osErrorISR;
 559:Middlewares/Third_Party/FreeRTOS/Source/CMSIS_RTOS_V2/cmsis_os2.c ****   } else {
 560:Middlewares/Third_Party/FreeRTOS/Source/CMSIS_RTOS_V2/cmsis_os2.c ****     stat = osOK;
 561:Middlewares/Third_Party/FreeRTOS/Source/CMSIS_RTOS_V2/cmsis_os2.c ****     taskYIELD();
 562:Middlewares/Third_Party/FreeRTOS/Source/CMSIS_RTOS_V2/cmsis_os2.c ****   }
 563:Middlewares/Third_Party/FreeRTOS/Source/CMSIS_RTOS_V2/cmsis_os2.c **** 
 564:Middlewares/Third_Party/FreeRTOS/Source/CMSIS_RTOS_V2/cmsis_os2.c ****   return (stat);
 565:Middlewares/Third_Party/FreeRTOS/Source/CMSIS_RTOS_V2/cmsis_os2.c **** }
 566:Middlewares/Third_Party/FreeRTOS/Source/CMSIS_RTOS_V2/cmsis_os2.c **** 
 567:Middlewares/Third_Party/FreeRTOS/Source/CMSIS_RTOS_V2/cmsis_os2.c **** osStatus_t osThreadSuspend (osThreadId_t thread_id) {
 568:Middlewares/Third_Party/FreeRTOS/Source/CMSIS_RTOS_V2/cmsis_os2.c ****   TaskHandle_t hTask = (TaskHandle_t)thread_id;
 569:Middlewares/Third_Party/FreeRTOS/Source/CMSIS_RTOS_V2/cmsis_os2.c ****   osStatus_t stat;
 570:Middlewares/Third_Party/FreeRTOS/Source/CMSIS_RTOS_V2/cmsis_os2.c **** 
 571:Middlewares/Third_Party/FreeRTOS/Source/CMSIS_RTOS_V2/cmsis_os2.c ****   if (IS_IRQ()) {
 572:Middlewares/Third_Party/FreeRTOS/Source/CMSIS_RTOS_V2/cmsis_os2.c ****     stat = osErrorISR;
 573:Middlewares/Third_Party/FreeRTOS/Source/CMSIS_RTOS_V2/cmsis_os2.c ****   }
 574:Middlewares/Third_Party/FreeRTOS/Source/CMSIS_RTOS_V2/cmsis_os2.c ****   else if (hTask == NULL) {
 575:Middlewares/Third_Party/FreeRTOS/Source/CMSIS_RTOS_V2/cmsis_os2.c ****     stat = osErrorParameter;
 576:Middlewares/Third_Party/FreeRTOS/Source/CMSIS_RTOS_V2/cmsis_os2.c ****   }
 577:Middlewares/Third_Party/FreeRTOS/Source/CMSIS_RTOS_V2/cmsis_os2.c ****   else {
 578:Middlewares/Third_Party/FreeRTOS/Source/CMSIS_RTOS_V2/cmsis_os2.c ****     stat = osOK;
 579:Middlewares/Third_Party/FreeRTOS/Source/CMSIS_RTOS_V2/cmsis_os2.c ****     vTaskSuspend (hTask);
 580:Middlewares/Third_Party/FreeRTOS/Source/CMSIS_RTOS_V2/cmsis_os2.c ****   }
 581:Middlewares/Third_Party/FreeRTOS/Source/CMSIS_RTOS_V2/cmsis_os2.c **** 
 582:Middlewares/Third_Party/FreeRTOS/Source/CMSIS_RTOS_V2/cmsis_os2.c ****   return (stat);
 583:Middlewares/Third_Party/FreeRTOS/Source/CMSIS_RTOS_V2/cmsis_os2.c **** }
 584:Middlewares/Third_Party/FreeRTOS/Source/CMSIS_RTOS_V2/cmsis_os2.c **** 
 585:Middlewares/Third_Party/FreeRTOS/Source/CMSIS_RTOS_V2/cmsis_os2.c **** osStatus_t osThreadResume (osThreadId_t thread_id) {
 586:Middlewares/Third_Party/FreeRTOS/Source/CMSIS_RTOS_V2/cmsis_os2.c ****   TaskHandle_t hTask = (TaskHandle_t)thread_id;
 587:Middlewares/Third_Party/FreeRTOS/Source/CMSIS_RTOS_V2/cmsis_os2.c ****   osStatus_t stat;
 588:Middlewares/Third_Party/FreeRTOS/Source/CMSIS_RTOS_V2/cmsis_os2.c **** 
 589:Middlewares/Third_Party/FreeRTOS/Source/CMSIS_RTOS_V2/cmsis_os2.c ****   if (IS_IRQ()) {
 590:Middlewares/Third_Party/FreeRTOS/Source/CMSIS_RTOS_V2/cmsis_os2.c ****     stat = osErrorISR;
 591:Middlewares/Third_Party/FreeRTOS/Source/CMSIS_RTOS_V2/cmsis_os2.c ****   }
 592:Middlewares/Third_Party/FreeRTOS/Source/CMSIS_RTOS_V2/cmsis_os2.c ****   else if (hTask == NULL) {
 593:Middlewares/Third_Party/FreeRTOS/Source/CMSIS_RTOS_V2/cmsis_os2.c ****     stat = osErrorParameter;
 594:Middlewares/Third_Party/FreeRTOS/Source/CMSIS_RTOS_V2/cmsis_os2.c ****   }
 595:Middlewares/Third_Party/FreeRTOS/Source/CMSIS_RTOS_V2/cmsis_os2.c ****   else {
 596:Middlewares/Third_Party/FreeRTOS/Source/CMSIS_RTOS_V2/cmsis_os2.c ****     stat = osOK;
 597:Middlewares/Third_Party/FreeRTOS/Source/CMSIS_RTOS_V2/cmsis_os2.c ****     vTaskResume (hTask);
 598:Middlewares/Third_Party/FreeRTOS/Source/CMSIS_RTOS_V2/cmsis_os2.c ****   }
 599:Middlewares/Third_Party/FreeRTOS/Source/CMSIS_RTOS_V2/cmsis_os2.c **** 
 600:Middlewares/Third_Party/FreeRTOS/Source/CMSIS_RTOS_V2/cmsis_os2.c ****   return (stat);
 601:Middlewares/Third_Party/FreeRTOS/Source/CMSIS_RTOS_V2/cmsis_os2.c **** }
 602:Middlewares/Third_Party/FreeRTOS/Source/CMSIS_RTOS_V2/cmsis_os2.c **** 
ARM GAS  /tmp/ccjsdB5h.s 			page 12


 603:Middlewares/Third_Party/FreeRTOS/Source/CMSIS_RTOS_V2/cmsis_os2.c **** __NO_RETURN void osThreadExit (void) {
 604:Middlewares/Third_Party/FreeRTOS/Source/CMSIS_RTOS_V2/cmsis_os2.c **** #ifndef USE_FreeRTOS_HEAP_1
 605:Middlewares/Third_Party/FreeRTOS/Source/CMSIS_RTOS_V2/cmsis_os2.c ****   vTaskDelete (NULL);
 606:Middlewares/Third_Party/FreeRTOS/Source/CMSIS_RTOS_V2/cmsis_os2.c **** #endif
 607:Middlewares/Third_Party/FreeRTOS/Source/CMSIS_RTOS_V2/cmsis_os2.c ****   for (;;);
 608:Middlewares/Third_Party/FreeRTOS/Source/CMSIS_RTOS_V2/cmsis_os2.c **** }
 609:Middlewares/Third_Party/FreeRTOS/Source/CMSIS_RTOS_V2/cmsis_os2.c **** 
 610:Middlewares/Third_Party/FreeRTOS/Source/CMSIS_RTOS_V2/cmsis_os2.c **** osStatus_t osThreadTerminate (osThreadId_t thread_id) {
 611:Middlewares/Third_Party/FreeRTOS/Source/CMSIS_RTOS_V2/cmsis_os2.c ****   TaskHandle_t hTask = (TaskHandle_t)thread_id;
 612:Middlewares/Third_Party/FreeRTOS/Source/CMSIS_RTOS_V2/cmsis_os2.c ****   osStatus_t stat;
 613:Middlewares/Third_Party/FreeRTOS/Source/CMSIS_RTOS_V2/cmsis_os2.c **** #ifndef USE_FreeRTOS_HEAP_1
 614:Middlewares/Third_Party/FreeRTOS/Source/CMSIS_RTOS_V2/cmsis_os2.c ****   eTaskState tstate;
 615:Middlewares/Third_Party/FreeRTOS/Source/CMSIS_RTOS_V2/cmsis_os2.c **** 
 616:Middlewares/Third_Party/FreeRTOS/Source/CMSIS_RTOS_V2/cmsis_os2.c ****   if (IS_IRQ()) {
 617:Middlewares/Third_Party/FreeRTOS/Source/CMSIS_RTOS_V2/cmsis_os2.c ****     stat = osErrorISR;
 618:Middlewares/Third_Party/FreeRTOS/Source/CMSIS_RTOS_V2/cmsis_os2.c ****   }
 619:Middlewares/Third_Party/FreeRTOS/Source/CMSIS_RTOS_V2/cmsis_os2.c ****   else if (hTask == NULL) {
 620:Middlewares/Third_Party/FreeRTOS/Source/CMSIS_RTOS_V2/cmsis_os2.c ****     stat = osErrorParameter;
 621:Middlewares/Third_Party/FreeRTOS/Source/CMSIS_RTOS_V2/cmsis_os2.c ****   }
 622:Middlewares/Third_Party/FreeRTOS/Source/CMSIS_RTOS_V2/cmsis_os2.c ****   else {
 623:Middlewares/Third_Party/FreeRTOS/Source/CMSIS_RTOS_V2/cmsis_os2.c ****     tstate = eTaskGetState (hTask);
 624:Middlewares/Third_Party/FreeRTOS/Source/CMSIS_RTOS_V2/cmsis_os2.c **** 
 625:Middlewares/Third_Party/FreeRTOS/Source/CMSIS_RTOS_V2/cmsis_os2.c ****     if (tstate != eDeleted) {
 626:Middlewares/Third_Party/FreeRTOS/Source/CMSIS_RTOS_V2/cmsis_os2.c ****       stat = osOK;
 627:Middlewares/Third_Party/FreeRTOS/Source/CMSIS_RTOS_V2/cmsis_os2.c ****       vTaskDelete (hTask);
 628:Middlewares/Third_Party/FreeRTOS/Source/CMSIS_RTOS_V2/cmsis_os2.c ****     } else {
 629:Middlewares/Third_Party/FreeRTOS/Source/CMSIS_RTOS_V2/cmsis_os2.c ****       stat = osErrorResource;
 630:Middlewares/Third_Party/FreeRTOS/Source/CMSIS_RTOS_V2/cmsis_os2.c ****     }
 631:Middlewares/Third_Party/FreeRTOS/Source/CMSIS_RTOS_V2/cmsis_os2.c ****   }
 632:Middlewares/Third_Party/FreeRTOS/Source/CMSIS_RTOS_V2/cmsis_os2.c **** #else
 633:Middlewares/Third_Party/FreeRTOS/Source/CMSIS_RTOS_V2/cmsis_os2.c ****   stat = osError;
 634:Middlewares/Third_Party/FreeRTOS/Source/CMSIS_RTOS_V2/cmsis_os2.c **** #endif
 635:Middlewares/Third_Party/FreeRTOS/Source/CMSIS_RTOS_V2/cmsis_os2.c **** 
 636:Middlewares/Third_Party/FreeRTOS/Source/CMSIS_RTOS_V2/cmsis_os2.c ****   return (stat);
 637:Middlewares/Third_Party/FreeRTOS/Source/CMSIS_RTOS_V2/cmsis_os2.c **** }
 638:Middlewares/Third_Party/FreeRTOS/Source/CMSIS_RTOS_V2/cmsis_os2.c **** 
 639:Middlewares/Third_Party/FreeRTOS/Source/CMSIS_RTOS_V2/cmsis_os2.c **** uint32_t osThreadGetCount (void) {
 640:Middlewares/Third_Party/FreeRTOS/Source/CMSIS_RTOS_V2/cmsis_os2.c ****   uint32_t count;
 641:Middlewares/Third_Party/FreeRTOS/Source/CMSIS_RTOS_V2/cmsis_os2.c **** 
 642:Middlewares/Third_Party/FreeRTOS/Source/CMSIS_RTOS_V2/cmsis_os2.c ****   if (IS_IRQ()) {
 643:Middlewares/Third_Party/FreeRTOS/Source/CMSIS_RTOS_V2/cmsis_os2.c ****     count = 0U;
 644:Middlewares/Third_Party/FreeRTOS/Source/CMSIS_RTOS_V2/cmsis_os2.c ****   } else {
 645:Middlewares/Third_Party/FreeRTOS/Source/CMSIS_RTOS_V2/cmsis_os2.c ****     count = uxTaskGetNumberOfTasks();
 646:Middlewares/Third_Party/FreeRTOS/Source/CMSIS_RTOS_V2/cmsis_os2.c ****   }
 647:Middlewares/Third_Party/FreeRTOS/Source/CMSIS_RTOS_V2/cmsis_os2.c **** 
 648:Middlewares/Third_Party/FreeRTOS/Source/CMSIS_RTOS_V2/cmsis_os2.c ****   return (count);
 649:Middlewares/Third_Party/FreeRTOS/Source/CMSIS_RTOS_V2/cmsis_os2.c **** }
 650:Middlewares/Third_Party/FreeRTOS/Source/CMSIS_RTOS_V2/cmsis_os2.c **** 
 651:Middlewares/Third_Party/FreeRTOS/Source/CMSIS_RTOS_V2/cmsis_os2.c **** uint32_t osThreadEnumerate (osThreadId_t *thread_array, uint32_t array_items) {
 652:Middlewares/Third_Party/FreeRTOS/Source/CMSIS_RTOS_V2/cmsis_os2.c ****   uint32_t i, count;
 653:Middlewares/Third_Party/FreeRTOS/Source/CMSIS_RTOS_V2/cmsis_os2.c ****   TaskStatus_t *task;
 654:Middlewares/Third_Party/FreeRTOS/Source/CMSIS_RTOS_V2/cmsis_os2.c **** 
 655:Middlewares/Third_Party/FreeRTOS/Source/CMSIS_RTOS_V2/cmsis_os2.c ****   if (IS_IRQ() || (thread_array == NULL) || (array_items == 0U)) {
 656:Middlewares/Third_Party/FreeRTOS/Source/CMSIS_RTOS_V2/cmsis_os2.c ****     count = 0U;
 657:Middlewares/Third_Party/FreeRTOS/Source/CMSIS_RTOS_V2/cmsis_os2.c ****   } else {
 658:Middlewares/Third_Party/FreeRTOS/Source/CMSIS_RTOS_V2/cmsis_os2.c ****     vTaskSuspendAll();
 659:Middlewares/Third_Party/FreeRTOS/Source/CMSIS_RTOS_V2/cmsis_os2.c **** 
ARM GAS  /tmp/ccjsdB5h.s 			page 13


 660:Middlewares/Third_Party/FreeRTOS/Source/CMSIS_RTOS_V2/cmsis_os2.c ****     count = uxTaskGetNumberOfTasks();
 661:Middlewares/Third_Party/FreeRTOS/Source/CMSIS_RTOS_V2/cmsis_os2.c ****     task  = pvPortMalloc (count * sizeof(TaskStatus_t));
 662:Middlewares/Third_Party/FreeRTOS/Source/CMSIS_RTOS_V2/cmsis_os2.c **** 
 663:Middlewares/Third_Party/FreeRTOS/Source/CMSIS_RTOS_V2/cmsis_os2.c ****     if (task != NULL) {
 664:Middlewares/Third_Party/FreeRTOS/Source/CMSIS_RTOS_V2/cmsis_os2.c ****       count = uxTaskGetSystemState (task, count, NULL);
 665:Middlewares/Third_Party/FreeRTOS/Source/CMSIS_RTOS_V2/cmsis_os2.c **** 
 666:Middlewares/Third_Party/FreeRTOS/Source/CMSIS_RTOS_V2/cmsis_os2.c ****       for (i = 0U; (i < count) && (i < array_items); i++) {
 667:Middlewares/Third_Party/FreeRTOS/Source/CMSIS_RTOS_V2/cmsis_os2.c ****         thread_array[i] = (osThreadId_t)task[i].xHandle;
 668:Middlewares/Third_Party/FreeRTOS/Source/CMSIS_RTOS_V2/cmsis_os2.c ****       }
 669:Middlewares/Third_Party/FreeRTOS/Source/CMSIS_RTOS_V2/cmsis_os2.c ****       count = i;
 670:Middlewares/Third_Party/FreeRTOS/Source/CMSIS_RTOS_V2/cmsis_os2.c ****     }
 671:Middlewares/Third_Party/FreeRTOS/Source/CMSIS_RTOS_V2/cmsis_os2.c ****     (void)xTaskResumeAll();
 672:Middlewares/Third_Party/FreeRTOS/Source/CMSIS_RTOS_V2/cmsis_os2.c **** 
 673:Middlewares/Third_Party/FreeRTOS/Source/CMSIS_RTOS_V2/cmsis_os2.c ****     vPortFree (task);
 674:Middlewares/Third_Party/FreeRTOS/Source/CMSIS_RTOS_V2/cmsis_os2.c ****   }
 675:Middlewares/Third_Party/FreeRTOS/Source/CMSIS_RTOS_V2/cmsis_os2.c **** 
 676:Middlewares/Third_Party/FreeRTOS/Source/CMSIS_RTOS_V2/cmsis_os2.c ****   return (count);
 677:Middlewares/Third_Party/FreeRTOS/Source/CMSIS_RTOS_V2/cmsis_os2.c **** }
 678:Middlewares/Third_Party/FreeRTOS/Source/CMSIS_RTOS_V2/cmsis_os2.c **** 
 679:Middlewares/Third_Party/FreeRTOS/Source/CMSIS_RTOS_V2/cmsis_os2.c **** uint32_t osThreadFlagsSet (osThreadId_t thread_id, uint32_t flags) {
 680:Middlewares/Third_Party/FreeRTOS/Source/CMSIS_RTOS_V2/cmsis_os2.c ****   TaskHandle_t hTask = (TaskHandle_t)thread_id;
 681:Middlewares/Third_Party/FreeRTOS/Source/CMSIS_RTOS_V2/cmsis_os2.c ****   uint32_t rflags;
 682:Middlewares/Third_Party/FreeRTOS/Source/CMSIS_RTOS_V2/cmsis_os2.c ****   BaseType_t yield;
 683:Middlewares/Third_Party/FreeRTOS/Source/CMSIS_RTOS_V2/cmsis_os2.c **** 
 684:Middlewares/Third_Party/FreeRTOS/Source/CMSIS_RTOS_V2/cmsis_os2.c ****   if ((hTask == NULL) || ((flags & THREAD_FLAGS_INVALID_BITS) != 0U)) {
 685:Middlewares/Third_Party/FreeRTOS/Source/CMSIS_RTOS_V2/cmsis_os2.c ****     rflags = (uint32_t)osErrorParameter;
 686:Middlewares/Third_Party/FreeRTOS/Source/CMSIS_RTOS_V2/cmsis_os2.c ****   }
 687:Middlewares/Third_Party/FreeRTOS/Source/CMSIS_RTOS_V2/cmsis_os2.c ****   else {
 688:Middlewares/Third_Party/FreeRTOS/Source/CMSIS_RTOS_V2/cmsis_os2.c ****     rflags = (uint32_t)osError;
 689:Middlewares/Third_Party/FreeRTOS/Source/CMSIS_RTOS_V2/cmsis_os2.c **** 
 690:Middlewares/Third_Party/FreeRTOS/Source/CMSIS_RTOS_V2/cmsis_os2.c ****     if (IS_IRQ()) {
 691:Middlewares/Third_Party/FreeRTOS/Source/CMSIS_RTOS_V2/cmsis_os2.c ****       yield = pdFALSE;
 692:Middlewares/Third_Party/FreeRTOS/Source/CMSIS_RTOS_V2/cmsis_os2.c **** 
 693:Middlewares/Third_Party/FreeRTOS/Source/CMSIS_RTOS_V2/cmsis_os2.c ****       (void)xTaskNotifyFromISR (hTask, flags, eSetBits, &yield);
 694:Middlewares/Third_Party/FreeRTOS/Source/CMSIS_RTOS_V2/cmsis_os2.c ****       (void)xTaskNotifyAndQueryFromISR (hTask, 0, eNoAction, &rflags, NULL);
 695:Middlewares/Third_Party/FreeRTOS/Source/CMSIS_RTOS_V2/cmsis_os2.c **** 
 696:Middlewares/Third_Party/FreeRTOS/Source/CMSIS_RTOS_V2/cmsis_os2.c ****       portYIELD_FROM_ISR (yield);
 697:Middlewares/Third_Party/FreeRTOS/Source/CMSIS_RTOS_V2/cmsis_os2.c ****     }
 698:Middlewares/Third_Party/FreeRTOS/Source/CMSIS_RTOS_V2/cmsis_os2.c ****     else {
 699:Middlewares/Third_Party/FreeRTOS/Source/CMSIS_RTOS_V2/cmsis_os2.c ****       (void)xTaskNotify (hTask, flags, eSetBits);
 700:Middlewares/Third_Party/FreeRTOS/Source/CMSIS_RTOS_V2/cmsis_os2.c ****       (void)xTaskNotifyAndQuery (hTask, 0, eNoAction, &rflags);
 701:Middlewares/Third_Party/FreeRTOS/Source/CMSIS_RTOS_V2/cmsis_os2.c ****     }
 702:Middlewares/Third_Party/FreeRTOS/Source/CMSIS_RTOS_V2/cmsis_os2.c ****   }
 703:Middlewares/Third_Party/FreeRTOS/Source/CMSIS_RTOS_V2/cmsis_os2.c ****   /* Return flags after setting */
 704:Middlewares/Third_Party/FreeRTOS/Source/CMSIS_RTOS_V2/cmsis_os2.c ****   return (rflags);
 705:Middlewares/Third_Party/FreeRTOS/Source/CMSIS_RTOS_V2/cmsis_os2.c **** }
 706:Middlewares/Third_Party/FreeRTOS/Source/CMSIS_RTOS_V2/cmsis_os2.c **** 
 707:Middlewares/Third_Party/FreeRTOS/Source/CMSIS_RTOS_V2/cmsis_os2.c **** uint32_t osThreadFlagsClear (uint32_t flags) {
 708:Middlewares/Third_Party/FreeRTOS/Source/CMSIS_RTOS_V2/cmsis_os2.c ****   TaskHandle_t hTask;
 709:Middlewares/Third_Party/FreeRTOS/Source/CMSIS_RTOS_V2/cmsis_os2.c ****   uint32_t rflags, cflags;
 710:Middlewares/Third_Party/FreeRTOS/Source/CMSIS_RTOS_V2/cmsis_os2.c **** 
 711:Middlewares/Third_Party/FreeRTOS/Source/CMSIS_RTOS_V2/cmsis_os2.c ****   if (IS_IRQ()) {
 712:Middlewares/Third_Party/FreeRTOS/Source/CMSIS_RTOS_V2/cmsis_os2.c ****     rflags = (uint32_t)osErrorISR;
 713:Middlewares/Third_Party/FreeRTOS/Source/CMSIS_RTOS_V2/cmsis_os2.c ****   }
 714:Middlewares/Third_Party/FreeRTOS/Source/CMSIS_RTOS_V2/cmsis_os2.c ****   else if ((flags & THREAD_FLAGS_INVALID_BITS) != 0U) {
 715:Middlewares/Third_Party/FreeRTOS/Source/CMSIS_RTOS_V2/cmsis_os2.c ****     rflags = (uint32_t)osErrorParameter;
 716:Middlewares/Third_Party/FreeRTOS/Source/CMSIS_RTOS_V2/cmsis_os2.c ****   }
ARM GAS  /tmp/ccjsdB5h.s 			page 14


 717:Middlewares/Third_Party/FreeRTOS/Source/CMSIS_RTOS_V2/cmsis_os2.c ****   else {
 718:Middlewares/Third_Party/FreeRTOS/Source/CMSIS_RTOS_V2/cmsis_os2.c ****     hTask = xTaskGetCurrentTaskHandle();
 719:Middlewares/Third_Party/FreeRTOS/Source/CMSIS_RTOS_V2/cmsis_os2.c **** 
 720:Middlewares/Third_Party/FreeRTOS/Source/CMSIS_RTOS_V2/cmsis_os2.c ****     if (xTaskNotifyAndQuery (hTask, 0, eNoAction, &cflags) == pdPASS) {
 721:Middlewares/Third_Party/FreeRTOS/Source/CMSIS_RTOS_V2/cmsis_os2.c ****       rflags = cflags;
 722:Middlewares/Third_Party/FreeRTOS/Source/CMSIS_RTOS_V2/cmsis_os2.c ****       cflags &= ~flags;
 723:Middlewares/Third_Party/FreeRTOS/Source/CMSIS_RTOS_V2/cmsis_os2.c **** 
 724:Middlewares/Third_Party/FreeRTOS/Source/CMSIS_RTOS_V2/cmsis_os2.c ****       if (xTaskNotify (hTask, cflags, eSetValueWithOverwrite) != pdPASS) {
 725:Middlewares/Third_Party/FreeRTOS/Source/CMSIS_RTOS_V2/cmsis_os2.c ****         rflags = (uint32_t)osError;
 726:Middlewares/Third_Party/FreeRTOS/Source/CMSIS_RTOS_V2/cmsis_os2.c ****       }
 727:Middlewares/Third_Party/FreeRTOS/Source/CMSIS_RTOS_V2/cmsis_os2.c ****     }
 728:Middlewares/Third_Party/FreeRTOS/Source/CMSIS_RTOS_V2/cmsis_os2.c ****     else {
 729:Middlewares/Third_Party/FreeRTOS/Source/CMSIS_RTOS_V2/cmsis_os2.c ****       rflags = (uint32_t)osError;
 730:Middlewares/Third_Party/FreeRTOS/Source/CMSIS_RTOS_V2/cmsis_os2.c ****     }
 731:Middlewares/Third_Party/FreeRTOS/Source/CMSIS_RTOS_V2/cmsis_os2.c ****   }
 732:Middlewares/Third_Party/FreeRTOS/Source/CMSIS_RTOS_V2/cmsis_os2.c **** 
 733:Middlewares/Third_Party/FreeRTOS/Source/CMSIS_RTOS_V2/cmsis_os2.c ****   /* Return flags before clearing */
 734:Middlewares/Third_Party/FreeRTOS/Source/CMSIS_RTOS_V2/cmsis_os2.c ****   return (rflags);
 735:Middlewares/Third_Party/FreeRTOS/Source/CMSIS_RTOS_V2/cmsis_os2.c **** }
 736:Middlewares/Third_Party/FreeRTOS/Source/CMSIS_RTOS_V2/cmsis_os2.c **** 
 737:Middlewares/Third_Party/FreeRTOS/Source/CMSIS_RTOS_V2/cmsis_os2.c **** uint32_t osThreadFlagsGet (void) {
 738:Middlewares/Third_Party/FreeRTOS/Source/CMSIS_RTOS_V2/cmsis_os2.c ****   TaskHandle_t hTask;
 739:Middlewares/Third_Party/FreeRTOS/Source/CMSIS_RTOS_V2/cmsis_os2.c ****   uint32_t rflags;
 740:Middlewares/Third_Party/FreeRTOS/Source/CMSIS_RTOS_V2/cmsis_os2.c **** 
 741:Middlewares/Third_Party/FreeRTOS/Source/CMSIS_RTOS_V2/cmsis_os2.c ****   if (IS_IRQ()) {
 742:Middlewares/Third_Party/FreeRTOS/Source/CMSIS_RTOS_V2/cmsis_os2.c ****     rflags = (uint32_t)osErrorISR;
 743:Middlewares/Third_Party/FreeRTOS/Source/CMSIS_RTOS_V2/cmsis_os2.c ****   }
 744:Middlewares/Third_Party/FreeRTOS/Source/CMSIS_RTOS_V2/cmsis_os2.c ****   else {
 745:Middlewares/Third_Party/FreeRTOS/Source/CMSIS_RTOS_V2/cmsis_os2.c ****     hTask = xTaskGetCurrentTaskHandle();
 746:Middlewares/Third_Party/FreeRTOS/Source/CMSIS_RTOS_V2/cmsis_os2.c **** 
 747:Middlewares/Third_Party/FreeRTOS/Source/CMSIS_RTOS_V2/cmsis_os2.c ****     if (xTaskNotifyAndQuery (hTask, 0, eNoAction, &rflags) != pdPASS) {
 748:Middlewares/Third_Party/FreeRTOS/Source/CMSIS_RTOS_V2/cmsis_os2.c ****       rflags = (uint32_t)osError;
 749:Middlewares/Third_Party/FreeRTOS/Source/CMSIS_RTOS_V2/cmsis_os2.c ****     }
 750:Middlewares/Third_Party/FreeRTOS/Source/CMSIS_RTOS_V2/cmsis_os2.c ****   }
 751:Middlewares/Third_Party/FreeRTOS/Source/CMSIS_RTOS_V2/cmsis_os2.c **** 
 752:Middlewares/Third_Party/FreeRTOS/Source/CMSIS_RTOS_V2/cmsis_os2.c ****   return (rflags);
 753:Middlewares/Third_Party/FreeRTOS/Source/CMSIS_RTOS_V2/cmsis_os2.c **** }
 754:Middlewares/Third_Party/FreeRTOS/Source/CMSIS_RTOS_V2/cmsis_os2.c **** 
 755:Middlewares/Third_Party/FreeRTOS/Source/CMSIS_RTOS_V2/cmsis_os2.c **** uint32_t osThreadFlagsWait (uint32_t flags, uint32_t options, uint32_t timeout) {
 756:Middlewares/Third_Party/FreeRTOS/Source/CMSIS_RTOS_V2/cmsis_os2.c ****   uint32_t rflags, nval;
 757:Middlewares/Third_Party/FreeRTOS/Source/CMSIS_RTOS_V2/cmsis_os2.c ****   uint32_t clear;
 758:Middlewares/Third_Party/FreeRTOS/Source/CMSIS_RTOS_V2/cmsis_os2.c ****   TickType_t t0, td, tout;
 759:Middlewares/Third_Party/FreeRTOS/Source/CMSIS_RTOS_V2/cmsis_os2.c ****   BaseType_t rval;
 760:Middlewares/Third_Party/FreeRTOS/Source/CMSIS_RTOS_V2/cmsis_os2.c **** 
 761:Middlewares/Third_Party/FreeRTOS/Source/CMSIS_RTOS_V2/cmsis_os2.c ****   if (IS_IRQ()) {
 762:Middlewares/Third_Party/FreeRTOS/Source/CMSIS_RTOS_V2/cmsis_os2.c ****     rflags = (uint32_t)osErrorISR;
 763:Middlewares/Third_Party/FreeRTOS/Source/CMSIS_RTOS_V2/cmsis_os2.c ****   }
 764:Middlewares/Third_Party/FreeRTOS/Source/CMSIS_RTOS_V2/cmsis_os2.c ****   else if ((flags & THREAD_FLAGS_INVALID_BITS) != 0U) {
 765:Middlewares/Third_Party/FreeRTOS/Source/CMSIS_RTOS_V2/cmsis_os2.c ****     rflags = (uint32_t)osErrorParameter;
 766:Middlewares/Third_Party/FreeRTOS/Source/CMSIS_RTOS_V2/cmsis_os2.c ****   }
 767:Middlewares/Third_Party/FreeRTOS/Source/CMSIS_RTOS_V2/cmsis_os2.c ****   else {
 768:Middlewares/Third_Party/FreeRTOS/Source/CMSIS_RTOS_V2/cmsis_os2.c ****     if ((options & osFlagsNoClear) == osFlagsNoClear) {
 769:Middlewares/Third_Party/FreeRTOS/Source/CMSIS_RTOS_V2/cmsis_os2.c ****       clear = 0U;
 770:Middlewares/Third_Party/FreeRTOS/Source/CMSIS_RTOS_V2/cmsis_os2.c ****     } else {
 771:Middlewares/Third_Party/FreeRTOS/Source/CMSIS_RTOS_V2/cmsis_os2.c ****       clear = flags;
 772:Middlewares/Third_Party/FreeRTOS/Source/CMSIS_RTOS_V2/cmsis_os2.c ****     }
 773:Middlewares/Third_Party/FreeRTOS/Source/CMSIS_RTOS_V2/cmsis_os2.c **** 
ARM GAS  /tmp/ccjsdB5h.s 			page 15


 774:Middlewares/Third_Party/FreeRTOS/Source/CMSIS_RTOS_V2/cmsis_os2.c ****     rflags = 0U;
 775:Middlewares/Third_Party/FreeRTOS/Source/CMSIS_RTOS_V2/cmsis_os2.c ****     tout   = timeout;
 776:Middlewares/Third_Party/FreeRTOS/Source/CMSIS_RTOS_V2/cmsis_os2.c **** 
 777:Middlewares/Third_Party/FreeRTOS/Source/CMSIS_RTOS_V2/cmsis_os2.c ****     t0 = xTaskGetTickCount();
 778:Middlewares/Third_Party/FreeRTOS/Source/CMSIS_RTOS_V2/cmsis_os2.c ****     do {
 779:Middlewares/Third_Party/FreeRTOS/Source/CMSIS_RTOS_V2/cmsis_os2.c ****       rval = xTaskNotifyWait (0, clear, &nval, tout);
 780:Middlewares/Third_Party/FreeRTOS/Source/CMSIS_RTOS_V2/cmsis_os2.c **** 
 781:Middlewares/Third_Party/FreeRTOS/Source/CMSIS_RTOS_V2/cmsis_os2.c ****       if (rval == pdPASS) {
 782:Middlewares/Third_Party/FreeRTOS/Source/CMSIS_RTOS_V2/cmsis_os2.c ****         rflags &= flags;
 783:Middlewares/Third_Party/FreeRTOS/Source/CMSIS_RTOS_V2/cmsis_os2.c ****         rflags |= nval;
 784:Middlewares/Third_Party/FreeRTOS/Source/CMSIS_RTOS_V2/cmsis_os2.c **** 
 785:Middlewares/Third_Party/FreeRTOS/Source/CMSIS_RTOS_V2/cmsis_os2.c ****         if ((options & osFlagsWaitAll) == osFlagsWaitAll) {
 786:Middlewares/Third_Party/FreeRTOS/Source/CMSIS_RTOS_V2/cmsis_os2.c ****           if ((flags & rflags) == flags) {
 787:Middlewares/Third_Party/FreeRTOS/Source/CMSIS_RTOS_V2/cmsis_os2.c ****             break;
 788:Middlewares/Third_Party/FreeRTOS/Source/CMSIS_RTOS_V2/cmsis_os2.c ****           } else {
 789:Middlewares/Third_Party/FreeRTOS/Source/CMSIS_RTOS_V2/cmsis_os2.c ****             if (timeout == 0U) {
 790:Middlewares/Third_Party/FreeRTOS/Source/CMSIS_RTOS_V2/cmsis_os2.c ****               rflags = (uint32_t)osErrorResource;
 791:Middlewares/Third_Party/FreeRTOS/Source/CMSIS_RTOS_V2/cmsis_os2.c ****               break;
 792:Middlewares/Third_Party/FreeRTOS/Source/CMSIS_RTOS_V2/cmsis_os2.c ****             }
 793:Middlewares/Third_Party/FreeRTOS/Source/CMSIS_RTOS_V2/cmsis_os2.c ****           }
 794:Middlewares/Third_Party/FreeRTOS/Source/CMSIS_RTOS_V2/cmsis_os2.c ****         }
 795:Middlewares/Third_Party/FreeRTOS/Source/CMSIS_RTOS_V2/cmsis_os2.c ****         else {
 796:Middlewares/Third_Party/FreeRTOS/Source/CMSIS_RTOS_V2/cmsis_os2.c ****           if ((flags & rflags) != 0) {
 797:Middlewares/Third_Party/FreeRTOS/Source/CMSIS_RTOS_V2/cmsis_os2.c ****             break;
 798:Middlewares/Third_Party/FreeRTOS/Source/CMSIS_RTOS_V2/cmsis_os2.c ****           } else {
 799:Middlewares/Third_Party/FreeRTOS/Source/CMSIS_RTOS_V2/cmsis_os2.c ****             if (timeout == 0U) {
 800:Middlewares/Third_Party/FreeRTOS/Source/CMSIS_RTOS_V2/cmsis_os2.c ****               rflags = (uint32_t)osErrorResource;
 801:Middlewares/Third_Party/FreeRTOS/Source/CMSIS_RTOS_V2/cmsis_os2.c ****               break;
 802:Middlewares/Third_Party/FreeRTOS/Source/CMSIS_RTOS_V2/cmsis_os2.c ****             }
 803:Middlewares/Third_Party/FreeRTOS/Source/CMSIS_RTOS_V2/cmsis_os2.c ****           }
 804:Middlewares/Third_Party/FreeRTOS/Source/CMSIS_RTOS_V2/cmsis_os2.c ****         }
 805:Middlewares/Third_Party/FreeRTOS/Source/CMSIS_RTOS_V2/cmsis_os2.c **** 
 806:Middlewares/Third_Party/FreeRTOS/Source/CMSIS_RTOS_V2/cmsis_os2.c ****         /* Update timeout */
 807:Middlewares/Third_Party/FreeRTOS/Source/CMSIS_RTOS_V2/cmsis_os2.c ****         td = xTaskGetTickCount() - t0;
 808:Middlewares/Third_Party/FreeRTOS/Source/CMSIS_RTOS_V2/cmsis_os2.c **** 
 809:Middlewares/Third_Party/FreeRTOS/Source/CMSIS_RTOS_V2/cmsis_os2.c ****         if (td > tout) {
 810:Middlewares/Third_Party/FreeRTOS/Source/CMSIS_RTOS_V2/cmsis_os2.c ****           tout  = 0;
 811:Middlewares/Third_Party/FreeRTOS/Source/CMSIS_RTOS_V2/cmsis_os2.c ****         } else {
 812:Middlewares/Third_Party/FreeRTOS/Source/CMSIS_RTOS_V2/cmsis_os2.c ****           tout -= td;
 813:Middlewares/Third_Party/FreeRTOS/Source/CMSIS_RTOS_V2/cmsis_os2.c ****         }
 814:Middlewares/Third_Party/FreeRTOS/Source/CMSIS_RTOS_V2/cmsis_os2.c ****       }
 815:Middlewares/Third_Party/FreeRTOS/Source/CMSIS_RTOS_V2/cmsis_os2.c ****       else {
 816:Middlewares/Third_Party/FreeRTOS/Source/CMSIS_RTOS_V2/cmsis_os2.c ****         if (timeout == 0) {
 817:Middlewares/Third_Party/FreeRTOS/Source/CMSIS_RTOS_V2/cmsis_os2.c ****           rflags = (uint32_t)osErrorResource;
 818:Middlewares/Third_Party/FreeRTOS/Source/CMSIS_RTOS_V2/cmsis_os2.c ****         } else {
 819:Middlewares/Third_Party/FreeRTOS/Source/CMSIS_RTOS_V2/cmsis_os2.c ****           rflags = (uint32_t)osErrorTimeout;
 820:Middlewares/Third_Party/FreeRTOS/Source/CMSIS_RTOS_V2/cmsis_os2.c ****         }
 821:Middlewares/Third_Party/FreeRTOS/Source/CMSIS_RTOS_V2/cmsis_os2.c ****       }
 822:Middlewares/Third_Party/FreeRTOS/Source/CMSIS_RTOS_V2/cmsis_os2.c ****     }
 823:Middlewares/Third_Party/FreeRTOS/Source/CMSIS_RTOS_V2/cmsis_os2.c ****     while (rval != pdFAIL);
 824:Middlewares/Third_Party/FreeRTOS/Source/CMSIS_RTOS_V2/cmsis_os2.c ****   }
 825:Middlewares/Third_Party/FreeRTOS/Source/CMSIS_RTOS_V2/cmsis_os2.c **** 
 826:Middlewares/Third_Party/FreeRTOS/Source/CMSIS_RTOS_V2/cmsis_os2.c ****   /* Return flags before clearing */
 827:Middlewares/Third_Party/FreeRTOS/Source/CMSIS_RTOS_V2/cmsis_os2.c ****   return (rflags);
 828:Middlewares/Third_Party/FreeRTOS/Source/CMSIS_RTOS_V2/cmsis_os2.c **** }
 829:Middlewares/Third_Party/FreeRTOS/Source/CMSIS_RTOS_V2/cmsis_os2.c **** 
 830:Middlewares/Third_Party/FreeRTOS/Source/CMSIS_RTOS_V2/cmsis_os2.c **** osStatus_t osDelay (uint32_t ticks) {
ARM GAS  /tmp/ccjsdB5h.s 			page 16


 831:Middlewares/Third_Party/FreeRTOS/Source/CMSIS_RTOS_V2/cmsis_os2.c ****   osStatus_t stat;
 832:Middlewares/Third_Party/FreeRTOS/Source/CMSIS_RTOS_V2/cmsis_os2.c **** 
 833:Middlewares/Third_Party/FreeRTOS/Source/CMSIS_RTOS_V2/cmsis_os2.c ****   if (IS_IRQ()) {
 834:Middlewares/Third_Party/FreeRTOS/Source/CMSIS_RTOS_V2/cmsis_os2.c ****     stat = osErrorISR;
 835:Middlewares/Third_Party/FreeRTOS/Source/CMSIS_RTOS_V2/cmsis_os2.c ****   }
 836:Middlewares/Third_Party/FreeRTOS/Source/CMSIS_RTOS_V2/cmsis_os2.c ****   else {
 837:Middlewares/Third_Party/FreeRTOS/Source/CMSIS_RTOS_V2/cmsis_os2.c ****     stat = osOK;
 838:Middlewares/Third_Party/FreeRTOS/Source/CMSIS_RTOS_V2/cmsis_os2.c **** 
 839:Middlewares/Third_Party/FreeRTOS/Source/CMSIS_RTOS_V2/cmsis_os2.c ****     if (ticks != 0U) {
 840:Middlewares/Third_Party/FreeRTOS/Source/CMSIS_RTOS_V2/cmsis_os2.c ****       vTaskDelay(ticks);
 841:Middlewares/Third_Party/FreeRTOS/Source/CMSIS_RTOS_V2/cmsis_os2.c ****     }
 842:Middlewares/Third_Party/FreeRTOS/Source/CMSIS_RTOS_V2/cmsis_os2.c ****   }
 843:Middlewares/Third_Party/FreeRTOS/Source/CMSIS_RTOS_V2/cmsis_os2.c **** 
 844:Middlewares/Third_Party/FreeRTOS/Source/CMSIS_RTOS_V2/cmsis_os2.c ****   return (stat);
 845:Middlewares/Third_Party/FreeRTOS/Source/CMSIS_RTOS_V2/cmsis_os2.c **** }
 846:Middlewares/Third_Party/FreeRTOS/Source/CMSIS_RTOS_V2/cmsis_os2.c **** 
 847:Middlewares/Third_Party/FreeRTOS/Source/CMSIS_RTOS_V2/cmsis_os2.c **** osStatus_t osDelayUntil (uint32_t ticks) {
 848:Middlewares/Third_Party/FreeRTOS/Source/CMSIS_RTOS_V2/cmsis_os2.c ****   TickType_t tcnt;
 849:Middlewares/Third_Party/FreeRTOS/Source/CMSIS_RTOS_V2/cmsis_os2.c ****   osStatus_t stat;
 850:Middlewares/Third_Party/FreeRTOS/Source/CMSIS_RTOS_V2/cmsis_os2.c **** 
 851:Middlewares/Third_Party/FreeRTOS/Source/CMSIS_RTOS_V2/cmsis_os2.c ****   if (IS_IRQ()) {
 852:Middlewares/Third_Party/FreeRTOS/Source/CMSIS_RTOS_V2/cmsis_os2.c ****     stat = osErrorISR;
 853:Middlewares/Third_Party/FreeRTOS/Source/CMSIS_RTOS_V2/cmsis_os2.c ****   }
 854:Middlewares/Third_Party/FreeRTOS/Source/CMSIS_RTOS_V2/cmsis_os2.c ****   else {
 855:Middlewares/Third_Party/FreeRTOS/Source/CMSIS_RTOS_V2/cmsis_os2.c ****     stat = osOK;
 856:Middlewares/Third_Party/FreeRTOS/Source/CMSIS_RTOS_V2/cmsis_os2.c ****     tcnt = xTaskGetTickCount();
 857:Middlewares/Third_Party/FreeRTOS/Source/CMSIS_RTOS_V2/cmsis_os2.c **** 
 858:Middlewares/Third_Party/FreeRTOS/Source/CMSIS_RTOS_V2/cmsis_os2.c ****     vTaskDelayUntil (&tcnt, (TickType_t)(ticks - tcnt));
 859:Middlewares/Third_Party/FreeRTOS/Source/CMSIS_RTOS_V2/cmsis_os2.c ****   }
 860:Middlewares/Third_Party/FreeRTOS/Source/CMSIS_RTOS_V2/cmsis_os2.c **** 
 861:Middlewares/Third_Party/FreeRTOS/Source/CMSIS_RTOS_V2/cmsis_os2.c ****   return (stat);
 862:Middlewares/Third_Party/FreeRTOS/Source/CMSIS_RTOS_V2/cmsis_os2.c **** }
 863:Middlewares/Third_Party/FreeRTOS/Source/CMSIS_RTOS_V2/cmsis_os2.c **** 
 864:Middlewares/Third_Party/FreeRTOS/Source/CMSIS_RTOS_V2/cmsis_os2.c **** /*---------------------------------------------------------------------------*/
 865:Middlewares/Third_Party/FreeRTOS/Source/CMSIS_RTOS_V2/cmsis_os2.c **** 
 866:Middlewares/Third_Party/FreeRTOS/Source/CMSIS_RTOS_V2/cmsis_os2.c **** static void TimerCallback (TimerHandle_t hTimer) {
  27              		.loc 1 866 0
  28              		.cfi_startproc
  29              		@ args = 0, pretend = 0, frame = 0
  30              		@ frame_needed = 0, uses_anonymous_args = 0
  31              	.LVL0:
  32 0000 08B5     		push	{r3, lr}
  33              	.LCFI0:
  34              		.cfi_def_cfa_offset 8
  35              		.cfi_offset 3, -8
  36              		.cfi_offset 14, -4
 867:Middlewares/Third_Party/FreeRTOS/Source/CMSIS_RTOS_V2/cmsis_os2.c ****   TimerCallback_t *callb;
 868:Middlewares/Third_Party/FreeRTOS/Source/CMSIS_RTOS_V2/cmsis_os2.c **** 
 869:Middlewares/Third_Party/FreeRTOS/Source/CMSIS_RTOS_V2/cmsis_os2.c ****   callb = (TimerCallback_t *)pvTimerGetTimerID (hTimer);
  37              		.loc 1 869 0
  38 0002 FFF7FEFF 		bl	pvTimerGetTimerID
  39              	.LVL1:
 870:Middlewares/Third_Party/FreeRTOS/Source/CMSIS_RTOS_V2/cmsis_os2.c **** 
 871:Middlewares/Third_Party/FreeRTOS/Source/CMSIS_RTOS_V2/cmsis_os2.c ****   if (callb != NULL) {
  40              		.loc 1 871 0
  41 0006 10B1     		cbz	r0, .L1
 872:Middlewares/Third_Party/FreeRTOS/Source/CMSIS_RTOS_V2/cmsis_os2.c ****     callb->func (callb->arg);
ARM GAS  /tmp/ccjsdB5h.s 			page 17


  42              		.loc 1 872 0
  43 0008 0268     		ldr	r2, [r0]
  44 000a 4068     		ldr	r0, [r0, #4]
  45              	.LVL2:
  46 000c 9047     		blx	r2
  47              	.LVL3:
  48              	.L1:
 873:Middlewares/Third_Party/FreeRTOS/Source/CMSIS_RTOS_V2/cmsis_os2.c ****   }
 874:Middlewares/Third_Party/FreeRTOS/Source/CMSIS_RTOS_V2/cmsis_os2.c **** }
  49              		.loc 1 874 0
  50 000e 08BD     		pop	{r3, pc}
  51              		.cfi_endproc
  52              	.LFE138:
  54              		.section	.text.osKernelInitialize,"ax",%progbits
  55              		.align	1
  56              		.global	osKernelInitialize
  57              		.syntax unified
  58              		.thumb
  59              		.thumb_func
  60              		.fpu fpv4-sp-d16
  62              	osKernelInitialize:
  63              	.LFB106:
 174:Middlewares/Third_Party/FreeRTOS/Source/CMSIS_RTOS_V2/cmsis_os2.c ****   osStatus_t stat;
  64              		.loc 1 174 0
  65              		.cfi_startproc
  66              		@ args = 0, pretend = 0, frame = 0
  67              		@ frame_needed = 0, uses_anonymous_args = 0
  68              		@ link register save eliminated.
  69              	.LBB334:
  70              	.LBB335:
  71              		.file 2 "Drivers/CMSIS/Include/cmsis_gcc.h"
   1:Drivers/CMSIS/Include/cmsis_gcc.h **** /**************************************************************************//**
   2:Drivers/CMSIS/Include/cmsis_gcc.h ****  * @file     cmsis_gcc.h
   3:Drivers/CMSIS/Include/cmsis_gcc.h ****  * @brief    CMSIS compiler GCC header file
   4:Drivers/CMSIS/Include/cmsis_gcc.h ****  * @version  V5.0.4
   5:Drivers/CMSIS/Include/cmsis_gcc.h ****  * @date     09. April 2018
   6:Drivers/CMSIS/Include/cmsis_gcc.h ****  ******************************************************************************/
   7:Drivers/CMSIS/Include/cmsis_gcc.h **** /*
   8:Drivers/CMSIS/Include/cmsis_gcc.h ****  * Copyright (c) 2009-2018 Arm Limited. All rights reserved.
   9:Drivers/CMSIS/Include/cmsis_gcc.h ****  *
  10:Drivers/CMSIS/Include/cmsis_gcc.h ****  * SPDX-License-Identifier: Apache-2.0
  11:Drivers/CMSIS/Include/cmsis_gcc.h ****  *
  12:Drivers/CMSIS/Include/cmsis_gcc.h ****  * Licensed under the Apache License, Version 2.0 (the License); you may
  13:Drivers/CMSIS/Include/cmsis_gcc.h ****  * not use this file except in compliance with the License.
  14:Drivers/CMSIS/Include/cmsis_gcc.h ****  * You may obtain a copy of the License at
  15:Drivers/CMSIS/Include/cmsis_gcc.h ****  *
  16:Drivers/CMSIS/Include/cmsis_gcc.h ****  * www.apache.org/licenses/LICENSE-2.0
  17:Drivers/CMSIS/Include/cmsis_gcc.h ****  *
  18:Drivers/CMSIS/Include/cmsis_gcc.h ****  * Unless required by applicable law or agreed to in writing, software
  19:Drivers/CMSIS/Include/cmsis_gcc.h ****  * distributed under the License is distributed on an AS IS BASIS, WITHOUT
  20:Drivers/CMSIS/Include/cmsis_gcc.h ****  * WARRANTIES OR CONDITIONS OF ANY KIND, either express or implied.
  21:Drivers/CMSIS/Include/cmsis_gcc.h ****  * See the License for the specific language governing permissions and
  22:Drivers/CMSIS/Include/cmsis_gcc.h ****  * limitations under the License.
  23:Drivers/CMSIS/Include/cmsis_gcc.h ****  */
  24:Drivers/CMSIS/Include/cmsis_gcc.h **** 
  25:Drivers/CMSIS/Include/cmsis_gcc.h **** #ifndef __CMSIS_GCC_H
  26:Drivers/CMSIS/Include/cmsis_gcc.h **** #define __CMSIS_GCC_H
ARM GAS  /tmp/ccjsdB5h.s 			page 18


  27:Drivers/CMSIS/Include/cmsis_gcc.h **** 
  28:Drivers/CMSIS/Include/cmsis_gcc.h **** /* ignore some GCC warnings */
  29:Drivers/CMSIS/Include/cmsis_gcc.h **** #pragma GCC diagnostic push
  30:Drivers/CMSIS/Include/cmsis_gcc.h **** #pragma GCC diagnostic ignored "-Wsign-conversion"
  31:Drivers/CMSIS/Include/cmsis_gcc.h **** #pragma GCC diagnostic ignored "-Wconversion"
  32:Drivers/CMSIS/Include/cmsis_gcc.h **** #pragma GCC diagnostic ignored "-Wunused-parameter"
  33:Drivers/CMSIS/Include/cmsis_gcc.h **** 
  34:Drivers/CMSIS/Include/cmsis_gcc.h **** /* Fallback for __has_builtin */
  35:Drivers/CMSIS/Include/cmsis_gcc.h **** #ifndef __has_builtin
  36:Drivers/CMSIS/Include/cmsis_gcc.h ****   #define __has_builtin(x) (0)
  37:Drivers/CMSIS/Include/cmsis_gcc.h **** #endif
  38:Drivers/CMSIS/Include/cmsis_gcc.h **** 
  39:Drivers/CMSIS/Include/cmsis_gcc.h **** /* CMSIS compiler specific defines */
  40:Drivers/CMSIS/Include/cmsis_gcc.h **** #ifndef   __ASM
  41:Drivers/CMSIS/Include/cmsis_gcc.h ****   #define __ASM                                  __asm
  42:Drivers/CMSIS/Include/cmsis_gcc.h **** #endif
  43:Drivers/CMSIS/Include/cmsis_gcc.h **** #ifndef   __INLINE
  44:Drivers/CMSIS/Include/cmsis_gcc.h ****   #define __INLINE                               inline
  45:Drivers/CMSIS/Include/cmsis_gcc.h **** #endif
  46:Drivers/CMSIS/Include/cmsis_gcc.h **** #ifndef   __STATIC_INLINE
  47:Drivers/CMSIS/Include/cmsis_gcc.h ****   #define __STATIC_INLINE                        static inline
  48:Drivers/CMSIS/Include/cmsis_gcc.h **** #endif
  49:Drivers/CMSIS/Include/cmsis_gcc.h **** #ifndef   __STATIC_FORCEINLINE                 
  50:Drivers/CMSIS/Include/cmsis_gcc.h ****   #define __STATIC_FORCEINLINE                   __attribute__((always_inline)) static inline
  51:Drivers/CMSIS/Include/cmsis_gcc.h **** #endif                                           
  52:Drivers/CMSIS/Include/cmsis_gcc.h **** #ifndef   __NO_RETURN
  53:Drivers/CMSIS/Include/cmsis_gcc.h ****   #define __NO_RETURN                            __attribute__((__noreturn__))
  54:Drivers/CMSIS/Include/cmsis_gcc.h **** #endif
  55:Drivers/CMSIS/Include/cmsis_gcc.h **** #ifndef   __USED
  56:Drivers/CMSIS/Include/cmsis_gcc.h ****   #define __USED                                 __attribute__((used))
  57:Drivers/CMSIS/Include/cmsis_gcc.h **** #endif
  58:Drivers/CMSIS/Include/cmsis_gcc.h **** #ifndef   __WEAK
  59:Drivers/CMSIS/Include/cmsis_gcc.h ****   #define __WEAK                                 __attribute__((weak))
  60:Drivers/CMSIS/Include/cmsis_gcc.h **** #endif
  61:Drivers/CMSIS/Include/cmsis_gcc.h **** #ifndef   __PACKED
  62:Drivers/CMSIS/Include/cmsis_gcc.h ****   #define __PACKED                               __attribute__((packed, aligned(1)))
  63:Drivers/CMSIS/Include/cmsis_gcc.h **** #endif
  64:Drivers/CMSIS/Include/cmsis_gcc.h **** #ifndef   __PACKED_STRUCT
  65:Drivers/CMSIS/Include/cmsis_gcc.h ****   #define __PACKED_STRUCT                        struct __attribute__((packed, aligned(1)))
  66:Drivers/CMSIS/Include/cmsis_gcc.h **** #endif
  67:Drivers/CMSIS/Include/cmsis_gcc.h **** #ifndef   __PACKED_UNION
  68:Drivers/CMSIS/Include/cmsis_gcc.h ****   #define __PACKED_UNION                         union __attribute__((packed, aligned(1)))
  69:Drivers/CMSIS/Include/cmsis_gcc.h **** #endif
  70:Drivers/CMSIS/Include/cmsis_gcc.h **** #ifndef   __UNALIGNED_UINT32        /* deprecated */
  71:Drivers/CMSIS/Include/cmsis_gcc.h ****   #pragma GCC diagnostic push
  72:Drivers/CMSIS/Include/cmsis_gcc.h ****   #pragma GCC diagnostic ignored "-Wpacked"
  73:Drivers/CMSIS/Include/cmsis_gcc.h ****   #pragma GCC diagnostic ignored "-Wattributes"
  74:Drivers/CMSIS/Include/cmsis_gcc.h ****   struct __attribute__((packed)) T_UINT32 { uint32_t v; };
  75:Drivers/CMSIS/Include/cmsis_gcc.h ****   #pragma GCC diagnostic pop
  76:Drivers/CMSIS/Include/cmsis_gcc.h ****   #define __UNALIGNED_UINT32(x)                  (((struct T_UINT32 *)(x))->v)
  77:Drivers/CMSIS/Include/cmsis_gcc.h **** #endif
  78:Drivers/CMSIS/Include/cmsis_gcc.h **** #ifndef   __UNALIGNED_UINT16_WRITE
  79:Drivers/CMSIS/Include/cmsis_gcc.h ****   #pragma GCC diagnostic push
  80:Drivers/CMSIS/Include/cmsis_gcc.h ****   #pragma GCC diagnostic ignored "-Wpacked"
  81:Drivers/CMSIS/Include/cmsis_gcc.h ****   #pragma GCC diagnostic ignored "-Wattributes"
  82:Drivers/CMSIS/Include/cmsis_gcc.h ****   __PACKED_STRUCT T_UINT16_WRITE { uint16_t v; };
  83:Drivers/CMSIS/Include/cmsis_gcc.h ****   #pragma GCC diagnostic pop
ARM GAS  /tmp/ccjsdB5h.s 			page 19


  84:Drivers/CMSIS/Include/cmsis_gcc.h ****   #define __UNALIGNED_UINT16_WRITE(addr, val)    (void)((((struct T_UINT16_WRITE *)(void *)(addr))-
  85:Drivers/CMSIS/Include/cmsis_gcc.h **** #endif
  86:Drivers/CMSIS/Include/cmsis_gcc.h **** #ifndef   __UNALIGNED_UINT16_READ
  87:Drivers/CMSIS/Include/cmsis_gcc.h ****   #pragma GCC diagnostic push
  88:Drivers/CMSIS/Include/cmsis_gcc.h ****   #pragma GCC diagnostic ignored "-Wpacked"
  89:Drivers/CMSIS/Include/cmsis_gcc.h ****   #pragma GCC diagnostic ignored "-Wattributes"
  90:Drivers/CMSIS/Include/cmsis_gcc.h ****   __PACKED_STRUCT T_UINT16_READ { uint16_t v; };
  91:Drivers/CMSIS/Include/cmsis_gcc.h ****   #pragma GCC diagnostic pop
  92:Drivers/CMSIS/Include/cmsis_gcc.h ****   #define __UNALIGNED_UINT16_READ(addr)          (((const struct T_UINT16_READ *)(const void *)(add
  93:Drivers/CMSIS/Include/cmsis_gcc.h **** #endif
  94:Drivers/CMSIS/Include/cmsis_gcc.h **** #ifndef   __UNALIGNED_UINT32_WRITE
  95:Drivers/CMSIS/Include/cmsis_gcc.h ****   #pragma GCC diagnostic push
  96:Drivers/CMSIS/Include/cmsis_gcc.h ****   #pragma GCC diagnostic ignored "-Wpacked"
  97:Drivers/CMSIS/Include/cmsis_gcc.h ****   #pragma GCC diagnostic ignored "-Wattributes"
  98:Drivers/CMSIS/Include/cmsis_gcc.h ****   __PACKED_STRUCT T_UINT32_WRITE { uint32_t v; };
  99:Drivers/CMSIS/Include/cmsis_gcc.h ****   #pragma GCC diagnostic pop
 100:Drivers/CMSIS/Include/cmsis_gcc.h ****   #define __UNALIGNED_UINT32_WRITE(addr, val)    (void)((((struct T_UINT32_WRITE *)(void *)(addr))-
 101:Drivers/CMSIS/Include/cmsis_gcc.h **** #endif
 102:Drivers/CMSIS/Include/cmsis_gcc.h **** #ifndef   __UNALIGNED_UINT32_READ
 103:Drivers/CMSIS/Include/cmsis_gcc.h ****   #pragma GCC diagnostic push
 104:Drivers/CMSIS/Include/cmsis_gcc.h ****   #pragma GCC diagnostic ignored "-Wpacked"
 105:Drivers/CMSIS/Include/cmsis_gcc.h ****   #pragma GCC diagnostic ignored "-Wattributes"
 106:Drivers/CMSIS/Include/cmsis_gcc.h ****   __PACKED_STRUCT T_UINT32_READ { uint32_t v; };
 107:Drivers/CMSIS/Include/cmsis_gcc.h ****   #pragma GCC diagnostic pop
 108:Drivers/CMSIS/Include/cmsis_gcc.h ****   #define __UNALIGNED_UINT32_READ(addr)          (((const struct T_UINT32_READ *)(const void *)(add
 109:Drivers/CMSIS/Include/cmsis_gcc.h **** #endif
 110:Drivers/CMSIS/Include/cmsis_gcc.h **** #ifndef   __ALIGNED
 111:Drivers/CMSIS/Include/cmsis_gcc.h ****   #define __ALIGNED(x)                           __attribute__((aligned(x)))
 112:Drivers/CMSIS/Include/cmsis_gcc.h **** #endif
 113:Drivers/CMSIS/Include/cmsis_gcc.h **** #ifndef   __RESTRICT
 114:Drivers/CMSIS/Include/cmsis_gcc.h ****   #define __RESTRICT                             __restrict
 115:Drivers/CMSIS/Include/cmsis_gcc.h **** #endif
 116:Drivers/CMSIS/Include/cmsis_gcc.h **** 
 117:Drivers/CMSIS/Include/cmsis_gcc.h **** 
 118:Drivers/CMSIS/Include/cmsis_gcc.h **** /* ###########################  Core Function Access  ########################### */
 119:Drivers/CMSIS/Include/cmsis_gcc.h **** /** \ingroup  CMSIS_Core_FunctionInterface
 120:Drivers/CMSIS/Include/cmsis_gcc.h ****     \defgroup CMSIS_Core_RegAccFunctions CMSIS Core Register Access Functions
 121:Drivers/CMSIS/Include/cmsis_gcc.h ****   @{
 122:Drivers/CMSIS/Include/cmsis_gcc.h ****  */
 123:Drivers/CMSIS/Include/cmsis_gcc.h **** 
 124:Drivers/CMSIS/Include/cmsis_gcc.h **** /**
 125:Drivers/CMSIS/Include/cmsis_gcc.h ****   \brief   Enable IRQ Interrupts
 126:Drivers/CMSIS/Include/cmsis_gcc.h ****   \details Enables IRQ interrupts by clearing the I-bit in the CPSR.
 127:Drivers/CMSIS/Include/cmsis_gcc.h ****            Can only be executed in Privileged modes.
 128:Drivers/CMSIS/Include/cmsis_gcc.h ****  */
 129:Drivers/CMSIS/Include/cmsis_gcc.h **** __STATIC_FORCEINLINE void __enable_irq(void)
 130:Drivers/CMSIS/Include/cmsis_gcc.h **** {
 131:Drivers/CMSIS/Include/cmsis_gcc.h ****   __ASM volatile ("cpsie i" : : : "memory");
 132:Drivers/CMSIS/Include/cmsis_gcc.h **** }
 133:Drivers/CMSIS/Include/cmsis_gcc.h **** 
 134:Drivers/CMSIS/Include/cmsis_gcc.h **** 
 135:Drivers/CMSIS/Include/cmsis_gcc.h **** /**
 136:Drivers/CMSIS/Include/cmsis_gcc.h ****   \brief   Disable IRQ Interrupts
 137:Drivers/CMSIS/Include/cmsis_gcc.h ****   \details Disables IRQ interrupts by setting the I-bit in the CPSR.
 138:Drivers/CMSIS/Include/cmsis_gcc.h ****            Can only be executed in Privileged modes.
 139:Drivers/CMSIS/Include/cmsis_gcc.h ****  */
 140:Drivers/CMSIS/Include/cmsis_gcc.h **** __STATIC_FORCEINLINE void __disable_irq(void)
ARM GAS  /tmp/ccjsdB5h.s 			page 20


 141:Drivers/CMSIS/Include/cmsis_gcc.h **** {
 142:Drivers/CMSIS/Include/cmsis_gcc.h ****   __ASM volatile ("cpsid i" : : : "memory");
 143:Drivers/CMSIS/Include/cmsis_gcc.h **** }
 144:Drivers/CMSIS/Include/cmsis_gcc.h **** 
 145:Drivers/CMSIS/Include/cmsis_gcc.h **** 
 146:Drivers/CMSIS/Include/cmsis_gcc.h **** /**
 147:Drivers/CMSIS/Include/cmsis_gcc.h ****   \brief   Get Control Register
 148:Drivers/CMSIS/Include/cmsis_gcc.h ****   \details Returns the content of the Control Register.
 149:Drivers/CMSIS/Include/cmsis_gcc.h ****   \return               Control Register value
 150:Drivers/CMSIS/Include/cmsis_gcc.h ****  */
 151:Drivers/CMSIS/Include/cmsis_gcc.h **** __STATIC_FORCEINLINE uint32_t __get_CONTROL(void)
 152:Drivers/CMSIS/Include/cmsis_gcc.h **** {
 153:Drivers/CMSIS/Include/cmsis_gcc.h ****   uint32_t result;
 154:Drivers/CMSIS/Include/cmsis_gcc.h **** 
 155:Drivers/CMSIS/Include/cmsis_gcc.h ****   __ASM volatile ("MRS %0, control" : "=r" (result) );
 156:Drivers/CMSIS/Include/cmsis_gcc.h ****   return(result);
 157:Drivers/CMSIS/Include/cmsis_gcc.h **** }
 158:Drivers/CMSIS/Include/cmsis_gcc.h **** 
 159:Drivers/CMSIS/Include/cmsis_gcc.h **** 
 160:Drivers/CMSIS/Include/cmsis_gcc.h **** #if (defined (__ARM_FEATURE_CMSE ) && (__ARM_FEATURE_CMSE == 3))
 161:Drivers/CMSIS/Include/cmsis_gcc.h **** /**
 162:Drivers/CMSIS/Include/cmsis_gcc.h ****   \brief   Get Control Register (non-secure)
 163:Drivers/CMSIS/Include/cmsis_gcc.h ****   \details Returns the content of the non-secure Control Register when in secure mode.
 164:Drivers/CMSIS/Include/cmsis_gcc.h ****   \return               non-secure Control Register value
 165:Drivers/CMSIS/Include/cmsis_gcc.h ****  */
 166:Drivers/CMSIS/Include/cmsis_gcc.h **** __STATIC_FORCEINLINE uint32_t __TZ_get_CONTROL_NS(void)
 167:Drivers/CMSIS/Include/cmsis_gcc.h **** {
 168:Drivers/CMSIS/Include/cmsis_gcc.h ****   uint32_t result;
 169:Drivers/CMSIS/Include/cmsis_gcc.h **** 
 170:Drivers/CMSIS/Include/cmsis_gcc.h ****   __ASM volatile ("MRS %0, control_ns" : "=r" (result) );
 171:Drivers/CMSIS/Include/cmsis_gcc.h ****   return(result);
 172:Drivers/CMSIS/Include/cmsis_gcc.h **** }
 173:Drivers/CMSIS/Include/cmsis_gcc.h **** #endif
 174:Drivers/CMSIS/Include/cmsis_gcc.h **** 
 175:Drivers/CMSIS/Include/cmsis_gcc.h **** 
 176:Drivers/CMSIS/Include/cmsis_gcc.h **** /**
 177:Drivers/CMSIS/Include/cmsis_gcc.h ****   \brief   Set Control Register
 178:Drivers/CMSIS/Include/cmsis_gcc.h ****   \details Writes the given value to the Control Register.
 179:Drivers/CMSIS/Include/cmsis_gcc.h ****   \param [in]    control  Control Register value to set
 180:Drivers/CMSIS/Include/cmsis_gcc.h ****  */
 181:Drivers/CMSIS/Include/cmsis_gcc.h **** __STATIC_FORCEINLINE void __set_CONTROL(uint32_t control)
 182:Drivers/CMSIS/Include/cmsis_gcc.h **** {
 183:Drivers/CMSIS/Include/cmsis_gcc.h ****   __ASM volatile ("MSR control, %0" : : "r" (control) : "memory");
 184:Drivers/CMSIS/Include/cmsis_gcc.h **** }
 185:Drivers/CMSIS/Include/cmsis_gcc.h **** 
 186:Drivers/CMSIS/Include/cmsis_gcc.h **** 
 187:Drivers/CMSIS/Include/cmsis_gcc.h **** #if (defined (__ARM_FEATURE_CMSE ) && (__ARM_FEATURE_CMSE == 3))
 188:Drivers/CMSIS/Include/cmsis_gcc.h **** /**
 189:Drivers/CMSIS/Include/cmsis_gcc.h ****   \brief   Set Control Register (non-secure)
 190:Drivers/CMSIS/Include/cmsis_gcc.h ****   \details Writes the given value to the non-secure Control Register when in secure state.
 191:Drivers/CMSIS/Include/cmsis_gcc.h ****   \param [in]    control  Control Register value to set
 192:Drivers/CMSIS/Include/cmsis_gcc.h ****  */
 193:Drivers/CMSIS/Include/cmsis_gcc.h **** __STATIC_FORCEINLINE void __TZ_set_CONTROL_NS(uint32_t control)
 194:Drivers/CMSIS/Include/cmsis_gcc.h **** {
 195:Drivers/CMSIS/Include/cmsis_gcc.h ****   __ASM volatile ("MSR control_ns, %0" : : "r" (control) : "memory");
 196:Drivers/CMSIS/Include/cmsis_gcc.h **** }
 197:Drivers/CMSIS/Include/cmsis_gcc.h **** #endif
ARM GAS  /tmp/ccjsdB5h.s 			page 21


 198:Drivers/CMSIS/Include/cmsis_gcc.h **** 
 199:Drivers/CMSIS/Include/cmsis_gcc.h **** 
 200:Drivers/CMSIS/Include/cmsis_gcc.h **** /**
 201:Drivers/CMSIS/Include/cmsis_gcc.h ****   \brief   Get IPSR Register
 202:Drivers/CMSIS/Include/cmsis_gcc.h ****   \details Returns the content of the IPSR Register.
 203:Drivers/CMSIS/Include/cmsis_gcc.h ****   \return               IPSR Register value
 204:Drivers/CMSIS/Include/cmsis_gcc.h ****  */
 205:Drivers/CMSIS/Include/cmsis_gcc.h **** __STATIC_FORCEINLINE uint32_t __get_IPSR(void)
 206:Drivers/CMSIS/Include/cmsis_gcc.h **** {
 207:Drivers/CMSIS/Include/cmsis_gcc.h ****   uint32_t result;
 208:Drivers/CMSIS/Include/cmsis_gcc.h **** 
 209:Drivers/CMSIS/Include/cmsis_gcc.h ****   __ASM volatile ("MRS %0, ipsr" : "=r" (result) );
  72              		.loc 2 209 0
  73              		.syntax unified
  74              	@ 209 "Drivers/CMSIS/Include/cmsis_gcc.h" 1
  75 0000 EFF30583 		MRS r3, ipsr
  76              	@ 0 "" 2
  77              		.thumb
  78              		.syntax unified
  79              	.LBE335:
  80              	.LBE334:
 177:Middlewares/Third_Party/FreeRTOS/Source/CMSIS_RTOS_V2/cmsis_os2.c ****     stat = osErrorISR;
  81              		.loc 1 177 0
  82 0004 ABB9     		cbnz	r3, .L7
  83              	.LBB336:
  84              	.LBB337:
 210:Drivers/CMSIS/Include/cmsis_gcc.h ****   return(result);
 211:Drivers/CMSIS/Include/cmsis_gcc.h **** }
 212:Drivers/CMSIS/Include/cmsis_gcc.h **** 
 213:Drivers/CMSIS/Include/cmsis_gcc.h **** 
 214:Drivers/CMSIS/Include/cmsis_gcc.h **** /**
 215:Drivers/CMSIS/Include/cmsis_gcc.h ****   \brief   Get APSR Register
 216:Drivers/CMSIS/Include/cmsis_gcc.h ****   \details Returns the content of the APSR Register.
 217:Drivers/CMSIS/Include/cmsis_gcc.h ****   \return               APSR Register value
 218:Drivers/CMSIS/Include/cmsis_gcc.h ****  */
 219:Drivers/CMSIS/Include/cmsis_gcc.h **** __STATIC_FORCEINLINE uint32_t __get_APSR(void)
 220:Drivers/CMSIS/Include/cmsis_gcc.h **** {
 221:Drivers/CMSIS/Include/cmsis_gcc.h ****   uint32_t result;
 222:Drivers/CMSIS/Include/cmsis_gcc.h **** 
 223:Drivers/CMSIS/Include/cmsis_gcc.h ****   __ASM volatile ("MRS %0, apsr" : "=r" (result) );
 224:Drivers/CMSIS/Include/cmsis_gcc.h ****   return(result);
 225:Drivers/CMSIS/Include/cmsis_gcc.h **** }
 226:Drivers/CMSIS/Include/cmsis_gcc.h **** 
 227:Drivers/CMSIS/Include/cmsis_gcc.h **** 
 228:Drivers/CMSIS/Include/cmsis_gcc.h **** /**
 229:Drivers/CMSIS/Include/cmsis_gcc.h ****   \brief   Get xPSR Register
 230:Drivers/CMSIS/Include/cmsis_gcc.h ****   \details Returns the content of the xPSR Register.
 231:Drivers/CMSIS/Include/cmsis_gcc.h ****   \return               xPSR Register value
 232:Drivers/CMSIS/Include/cmsis_gcc.h ****  */
 233:Drivers/CMSIS/Include/cmsis_gcc.h **** __STATIC_FORCEINLINE uint32_t __get_xPSR(void)
 234:Drivers/CMSIS/Include/cmsis_gcc.h **** {
 235:Drivers/CMSIS/Include/cmsis_gcc.h ****   uint32_t result;
 236:Drivers/CMSIS/Include/cmsis_gcc.h **** 
 237:Drivers/CMSIS/Include/cmsis_gcc.h ****   __ASM volatile ("MRS %0, xpsr" : "=r" (result) );
 238:Drivers/CMSIS/Include/cmsis_gcc.h ****   return(result);
 239:Drivers/CMSIS/Include/cmsis_gcc.h **** }
 240:Drivers/CMSIS/Include/cmsis_gcc.h **** 
ARM GAS  /tmp/ccjsdB5h.s 			page 22


 241:Drivers/CMSIS/Include/cmsis_gcc.h **** 
 242:Drivers/CMSIS/Include/cmsis_gcc.h **** /**
 243:Drivers/CMSIS/Include/cmsis_gcc.h ****   \brief   Get Process Stack Pointer
 244:Drivers/CMSIS/Include/cmsis_gcc.h ****   \details Returns the current value of the Process Stack Pointer (PSP).
 245:Drivers/CMSIS/Include/cmsis_gcc.h ****   \return               PSP Register value
 246:Drivers/CMSIS/Include/cmsis_gcc.h ****  */
 247:Drivers/CMSIS/Include/cmsis_gcc.h **** __STATIC_FORCEINLINE uint32_t __get_PSP(void)
 248:Drivers/CMSIS/Include/cmsis_gcc.h **** {
 249:Drivers/CMSIS/Include/cmsis_gcc.h ****   uint32_t result;
 250:Drivers/CMSIS/Include/cmsis_gcc.h **** 
 251:Drivers/CMSIS/Include/cmsis_gcc.h ****   __ASM volatile ("MRS %0, psp"  : "=r" (result) );
 252:Drivers/CMSIS/Include/cmsis_gcc.h ****   return(result);
 253:Drivers/CMSIS/Include/cmsis_gcc.h **** }
 254:Drivers/CMSIS/Include/cmsis_gcc.h **** 
 255:Drivers/CMSIS/Include/cmsis_gcc.h **** 
 256:Drivers/CMSIS/Include/cmsis_gcc.h **** #if (defined (__ARM_FEATURE_CMSE ) && (__ARM_FEATURE_CMSE == 3))
 257:Drivers/CMSIS/Include/cmsis_gcc.h **** /**
 258:Drivers/CMSIS/Include/cmsis_gcc.h ****   \brief   Get Process Stack Pointer (non-secure)
 259:Drivers/CMSIS/Include/cmsis_gcc.h ****   \details Returns the current value of the non-secure Process Stack Pointer (PSP) when in secure s
 260:Drivers/CMSIS/Include/cmsis_gcc.h ****   \return               PSP Register value
 261:Drivers/CMSIS/Include/cmsis_gcc.h ****  */
 262:Drivers/CMSIS/Include/cmsis_gcc.h **** __STATIC_FORCEINLINE uint32_t __TZ_get_PSP_NS(void)
 263:Drivers/CMSIS/Include/cmsis_gcc.h **** {
 264:Drivers/CMSIS/Include/cmsis_gcc.h ****   uint32_t result;
 265:Drivers/CMSIS/Include/cmsis_gcc.h **** 
 266:Drivers/CMSIS/Include/cmsis_gcc.h ****   __ASM volatile ("MRS %0, psp_ns"  : "=r" (result) );
 267:Drivers/CMSIS/Include/cmsis_gcc.h ****   return(result);
 268:Drivers/CMSIS/Include/cmsis_gcc.h **** }
 269:Drivers/CMSIS/Include/cmsis_gcc.h **** #endif
 270:Drivers/CMSIS/Include/cmsis_gcc.h **** 
 271:Drivers/CMSIS/Include/cmsis_gcc.h **** 
 272:Drivers/CMSIS/Include/cmsis_gcc.h **** /**
 273:Drivers/CMSIS/Include/cmsis_gcc.h ****   \brief   Set Process Stack Pointer
 274:Drivers/CMSIS/Include/cmsis_gcc.h ****   \details Assigns the given value to the Process Stack Pointer (PSP).
 275:Drivers/CMSIS/Include/cmsis_gcc.h ****   \param [in]    topOfProcStack  Process Stack Pointer value to set
 276:Drivers/CMSIS/Include/cmsis_gcc.h ****  */
 277:Drivers/CMSIS/Include/cmsis_gcc.h **** __STATIC_FORCEINLINE void __set_PSP(uint32_t topOfProcStack)
 278:Drivers/CMSIS/Include/cmsis_gcc.h **** {
 279:Drivers/CMSIS/Include/cmsis_gcc.h ****   __ASM volatile ("MSR psp, %0" : : "r" (topOfProcStack) : );
 280:Drivers/CMSIS/Include/cmsis_gcc.h **** }
 281:Drivers/CMSIS/Include/cmsis_gcc.h **** 
 282:Drivers/CMSIS/Include/cmsis_gcc.h **** 
 283:Drivers/CMSIS/Include/cmsis_gcc.h **** #if (defined (__ARM_FEATURE_CMSE ) && (__ARM_FEATURE_CMSE == 3))
 284:Drivers/CMSIS/Include/cmsis_gcc.h **** /**
 285:Drivers/CMSIS/Include/cmsis_gcc.h ****   \brief   Set Process Stack Pointer (non-secure)
 286:Drivers/CMSIS/Include/cmsis_gcc.h ****   \details Assigns the given value to the non-secure Process Stack Pointer (PSP) when in secure sta
 287:Drivers/CMSIS/Include/cmsis_gcc.h ****   \param [in]    topOfProcStack  Process Stack Pointer value to set
 288:Drivers/CMSIS/Include/cmsis_gcc.h ****  */
 289:Drivers/CMSIS/Include/cmsis_gcc.h **** __STATIC_FORCEINLINE void __TZ_set_PSP_NS(uint32_t topOfProcStack)
 290:Drivers/CMSIS/Include/cmsis_gcc.h **** {
 291:Drivers/CMSIS/Include/cmsis_gcc.h ****   __ASM volatile ("MSR psp_ns, %0" : : "r" (topOfProcStack) : );
 292:Drivers/CMSIS/Include/cmsis_gcc.h **** }
 293:Drivers/CMSIS/Include/cmsis_gcc.h **** #endif
 294:Drivers/CMSIS/Include/cmsis_gcc.h **** 
 295:Drivers/CMSIS/Include/cmsis_gcc.h **** 
 296:Drivers/CMSIS/Include/cmsis_gcc.h **** /**
 297:Drivers/CMSIS/Include/cmsis_gcc.h ****   \brief   Get Main Stack Pointer
ARM GAS  /tmp/ccjsdB5h.s 			page 23


 298:Drivers/CMSIS/Include/cmsis_gcc.h ****   \details Returns the current value of the Main Stack Pointer (MSP).
 299:Drivers/CMSIS/Include/cmsis_gcc.h ****   \return               MSP Register value
 300:Drivers/CMSIS/Include/cmsis_gcc.h ****  */
 301:Drivers/CMSIS/Include/cmsis_gcc.h **** __STATIC_FORCEINLINE uint32_t __get_MSP(void)
 302:Drivers/CMSIS/Include/cmsis_gcc.h **** {
 303:Drivers/CMSIS/Include/cmsis_gcc.h ****   uint32_t result;
 304:Drivers/CMSIS/Include/cmsis_gcc.h **** 
 305:Drivers/CMSIS/Include/cmsis_gcc.h ****   __ASM volatile ("MRS %0, msp" : "=r" (result) );
 306:Drivers/CMSIS/Include/cmsis_gcc.h ****   return(result);
 307:Drivers/CMSIS/Include/cmsis_gcc.h **** }
 308:Drivers/CMSIS/Include/cmsis_gcc.h **** 
 309:Drivers/CMSIS/Include/cmsis_gcc.h **** 
 310:Drivers/CMSIS/Include/cmsis_gcc.h **** #if (defined (__ARM_FEATURE_CMSE ) && (__ARM_FEATURE_CMSE == 3))
 311:Drivers/CMSIS/Include/cmsis_gcc.h **** /**
 312:Drivers/CMSIS/Include/cmsis_gcc.h ****   \brief   Get Main Stack Pointer (non-secure)
 313:Drivers/CMSIS/Include/cmsis_gcc.h ****   \details Returns the current value of the non-secure Main Stack Pointer (MSP) when in secure stat
 314:Drivers/CMSIS/Include/cmsis_gcc.h ****   \return               MSP Register value
 315:Drivers/CMSIS/Include/cmsis_gcc.h ****  */
 316:Drivers/CMSIS/Include/cmsis_gcc.h **** __STATIC_FORCEINLINE uint32_t __TZ_get_MSP_NS(void)
 317:Drivers/CMSIS/Include/cmsis_gcc.h **** {
 318:Drivers/CMSIS/Include/cmsis_gcc.h ****   uint32_t result;
 319:Drivers/CMSIS/Include/cmsis_gcc.h **** 
 320:Drivers/CMSIS/Include/cmsis_gcc.h ****   __ASM volatile ("MRS %0, msp_ns" : "=r" (result) );
 321:Drivers/CMSIS/Include/cmsis_gcc.h ****   return(result);
 322:Drivers/CMSIS/Include/cmsis_gcc.h **** }
 323:Drivers/CMSIS/Include/cmsis_gcc.h **** #endif
 324:Drivers/CMSIS/Include/cmsis_gcc.h **** 
 325:Drivers/CMSIS/Include/cmsis_gcc.h **** 
 326:Drivers/CMSIS/Include/cmsis_gcc.h **** /**
 327:Drivers/CMSIS/Include/cmsis_gcc.h ****   \brief   Set Main Stack Pointer
 328:Drivers/CMSIS/Include/cmsis_gcc.h ****   \details Assigns the given value to the Main Stack Pointer (MSP).
 329:Drivers/CMSIS/Include/cmsis_gcc.h ****   \param [in]    topOfMainStack  Main Stack Pointer value to set
 330:Drivers/CMSIS/Include/cmsis_gcc.h ****  */
 331:Drivers/CMSIS/Include/cmsis_gcc.h **** __STATIC_FORCEINLINE void __set_MSP(uint32_t topOfMainStack)
 332:Drivers/CMSIS/Include/cmsis_gcc.h **** {
 333:Drivers/CMSIS/Include/cmsis_gcc.h ****   __ASM volatile ("MSR msp, %0" : : "r" (topOfMainStack) : );
 334:Drivers/CMSIS/Include/cmsis_gcc.h **** }
 335:Drivers/CMSIS/Include/cmsis_gcc.h **** 
 336:Drivers/CMSIS/Include/cmsis_gcc.h **** 
 337:Drivers/CMSIS/Include/cmsis_gcc.h **** #if (defined (__ARM_FEATURE_CMSE ) && (__ARM_FEATURE_CMSE == 3))
 338:Drivers/CMSIS/Include/cmsis_gcc.h **** /**
 339:Drivers/CMSIS/Include/cmsis_gcc.h ****   \brief   Set Main Stack Pointer (non-secure)
 340:Drivers/CMSIS/Include/cmsis_gcc.h ****   \details Assigns the given value to the non-secure Main Stack Pointer (MSP) when in secure state.
 341:Drivers/CMSIS/Include/cmsis_gcc.h ****   \param [in]    topOfMainStack  Main Stack Pointer value to set
 342:Drivers/CMSIS/Include/cmsis_gcc.h ****  */
 343:Drivers/CMSIS/Include/cmsis_gcc.h **** __STATIC_FORCEINLINE void __TZ_set_MSP_NS(uint32_t topOfMainStack)
 344:Drivers/CMSIS/Include/cmsis_gcc.h **** {
 345:Drivers/CMSIS/Include/cmsis_gcc.h ****   __ASM volatile ("MSR msp_ns, %0" : : "r" (topOfMainStack) : );
 346:Drivers/CMSIS/Include/cmsis_gcc.h **** }
 347:Drivers/CMSIS/Include/cmsis_gcc.h **** #endif
 348:Drivers/CMSIS/Include/cmsis_gcc.h **** 
 349:Drivers/CMSIS/Include/cmsis_gcc.h **** 
 350:Drivers/CMSIS/Include/cmsis_gcc.h **** #if (defined (__ARM_FEATURE_CMSE ) && (__ARM_FEATURE_CMSE == 3))
 351:Drivers/CMSIS/Include/cmsis_gcc.h **** /**
 352:Drivers/CMSIS/Include/cmsis_gcc.h ****   \brief   Get Stack Pointer (non-secure)
 353:Drivers/CMSIS/Include/cmsis_gcc.h ****   \details Returns the current value of the non-secure Stack Pointer (SP) when in secure state.
 354:Drivers/CMSIS/Include/cmsis_gcc.h ****   \return               SP Register value
ARM GAS  /tmp/ccjsdB5h.s 			page 24


 355:Drivers/CMSIS/Include/cmsis_gcc.h ****  */
 356:Drivers/CMSIS/Include/cmsis_gcc.h **** __STATIC_FORCEINLINE uint32_t __TZ_get_SP_NS(void)
 357:Drivers/CMSIS/Include/cmsis_gcc.h **** {
 358:Drivers/CMSIS/Include/cmsis_gcc.h ****   uint32_t result;
 359:Drivers/CMSIS/Include/cmsis_gcc.h **** 
 360:Drivers/CMSIS/Include/cmsis_gcc.h ****   __ASM volatile ("MRS %0, sp_ns" : "=r" (result) );
 361:Drivers/CMSIS/Include/cmsis_gcc.h ****   return(result);
 362:Drivers/CMSIS/Include/cmsis_gcc.h **** }
 363:Drivers/CMSIS/Include/cmsis_gcc.h **** 
 364:Drivers/CMSIS/Include/cmsis_gcc.h **** 
 365:Drivers/CMSIS/Include/cmsis_gcc.h **** /**
 366:Drivers/CMSIS/Include/cmsis_gcc.h ****   \brief   Set Stack Pointer (non-secure)
 367:Drivers/CMSIS/Include/cmsis_gcc.h ****   \details Assigns the given value to the non-secure Stack Pointer (SP) when in secure state.
 368:Drivers/CMSIS/Include/cmsis_gcc.h ****   \param [in]    topOfStack  Stack Pointer value to set
 369:Drivers/CMSIS/Include/cmsis_gcc.h ****  */
 370:Drivers/CMSIS/Include/cmsis_gcc.h **** __STATIC_FORCEINLINE void __TZ_set_SP_NS(uint32_t topOfStack)
 371:Drivers/CMSIS/Include/cmsis_gcc.h **** {
 372:Drivers/CMSIS/Include/cmsis_gcc.h ****   __ASM volatile ("MSR sp_ns, %0" : : "r" (topOfStack) : );
 373:Drivers/CMSIS/Include/cmsis_gcc.h **** }
 374:Drivers/CMSIS/Include/cmsis_gcc.h **** #endif
 375:Drivers/CMSIS/Include/cmsis_gcc.h **** 
 376:Drivers/CMSIS/Include/cmsis_gcc.h **** 
 377:Drivers/CMSIS/Include/cmsis_gcc.h **** /**
 378:Drivers/CMSIS/Include/cmsis_gcc.h ****   \brief   Get Priority Mask
 379:Drivers/CMSIS/Include/cmsis_gcc.h ****   \details Returns the current state of the priority mask bit from the Priority Mask Register.
 380:Drivers/CMSIS/Include/cmsis_gcc.h ****   \return               Priority Mask value
 381:Drivers/CMSIS/Include/cmsis_gcc.h ****  */
 382:Drivers/CMSIS/Include/cmsis_gcc.h **** __STATIC_FORCEINLINE uint32_t __get_PRIMASK(void)
 383:Drivers/CMSIS/Include/cmsis_gcc.h **** {
 384:Drivers/CMSIS/Include/cmsis_gcc.h ****   uint32_t result;
 385:Drivers/CMSIS/Include/cmsis_gcc.h **** 
 386:Drivers/CMSIS/Include/cmsis_gcc.h ****   __ASM volatile ("MRS %0, primask" : "=r" (result) :: "memory");
  85              		.loc 2 386 0
  86              		.syntax unified
  87              	@ 386 "Drivers/CMSIS/Include/cmsis_gcc.h" 1
  88 0006 EFF31083 		MRS r3, primask
  89              	@ 0 "" 2
  90              		.thumb
  91              		.syntax unified
  92              	.LBE337:
  93              	.LBE336:
 177:Middlewares/Third_Party/FreeRTOS/Source/CMSIS_RTOS_V2/cmsis_os2.c ****     stat = osErrorISR;
  94              		.loc 1 177 0
  95 000a ABB9     		cbnz	r3, .L8
 177:Middlewares/Third_Party/FreeRTOS/Source/CMSIS_RTOS_V2/cmsis_os2.c ****     stat = osErrorISR;
  96              		.loc 1 177 0 is_stmt 0 discriminator 2
  97 000c 0D4B     		ldr	r3, .L12
  98 000e 1B68     		ldr	r3, [r3]
  99 0010 022B     		cmp	r3, #2
 100 0012 05D0     		beq	.L11
 181:Middlewares/Third_Party/FreeRTOS/Source/CMSIS_RTOS_V2/cmsis_os2.c ****       #if defined(USE_FreeRTOS_HEAP_5)
 101              		.loc 1 181 0 is_stmt 1
 102 0014 9BB9     		cbnz	r3, .L10
 185:Middlewares/Third_Party/FreeRTOS/Source/CMSIS_RTOS_V2/cmsis_os2.c ****       stat = osOK;
 103              		.loc 1 185 0
 104 0016 0B4B     		ldr	r3, .L12
 105 0018 0122     		movs	r2, #1
ARM GAS  /tmp/ccjsdB5h.s 			page 25


 106 001a 1A60     		str	r2, [r3]
 107              	.LVL4:
 186:Middlewares/Third_Party/FreeRTOS/Source/CMSIS_RTOS_V2/cmsis_os2.c ****     } else {
 108              		.loc 1 186 0
 109 001c 0020     		movs	r0, #0
 110 001e 7047     		bx	lr
 111              	.LVL5:
 112              	.L11:
 113              	.LBB338:
 114              	.LBB339:
 387:Drivers/CMSIS/Include/cmsis_gcc.h ****   return(result);
 388:Drivers/CMSIS/Include/cmsis_gcc.h **** }
 389:Drivers/CMSIS/Include/cmsis_gcc.h **** 
 390:Drivers/CMSIS/Include/cmsis_gcc.h **** 
 391:Drivers/CMSIS/Include/cmsis_gcc.h **** #if (defined (__ARM_FEATURE_CMSE ) && (__ARM_FEATURE_CMSE == 3))
 392:Drivers/CMSIS/Include/cmsis_gcc.h **** /**
 393:Drivers/CMSIS/Include/cmsis_gcc.h ****   \brief   Get Priority Mask (non-secure)
 394:Drivers/CMSIS/Include/cmsis_gcc.h ****   \details Returns the current state of the non-secure priority mask bit from the Priority Mask Reg
 395:Drivers/CMSIS/Include/cmsis_gcc.h ****   \return               Priority Mask value
 396:Drivers/CMSIS/Include/cmsis_gcc.h ****  */
 397:Drivers/CMSIS/Include/cmsis_gcc.h **** __STATIC_FORCEINLINE uint32_t __TZ_get_PRIMASK_NS(void)
 398:Drivers/CMSIS/Include/cmsis_gcc.h **** {
 399:Drivers/CMSIS/Include/cmsis_gcc.h ****   uint32_t result;
 400:Drivers/CMSIS/Include/cmsis_gcc.h **** 
 401:Drivers/CMSIS/Include/cmsis_gcc.h ****   __ASM volatile ("MRS %0, primask_ns" : "=r" (result) :: "memory");
 402:Drivers/CMSIS/Include/cmsis_gcc.h ****   return(result);
 403:Drivers/CMSIS/Include/cmsis_gcc.h **** }
 404:Drivers/CMSIS/Include/cmsis_gcc.h **** #endif
 405:Drivers/CMSIS/Include/cmsis_gcc.h **** 
 406:Drivers/CMSIS/Include/cmsis_gcc.h **** 
 407:Drivers/CMSIS/Include/cmsis_gcc.h **** /**
 408:Drivers/CMSIS/Include/cmsis_gcc.h ****   \brief   Set Priority Mask
 409:Drivers/CMSIS/Include/cmsis_gcc.h ****   \details Assigns the given value to the Priority Mask Register.
 410:Drivers/CMSIS/Include/cmsis_gcc.h ****   \param [in]    priMask  Priority Mask
 411:Drivers/CMSIS/Include/cmsis_gcc.h ****  */
 412:Drivers/CMSIS/Include/cmsis_gcc.h **** __STATIC_FORCEINLINE void __set_PRIMASK(uint32_t priMask)
 413:Drivers/CMSIS/Include/cmsis_gcc.h **** {
 414:Drivers/CMSIS/Include/cmsis_gcc.h ****   __ASM volatile ("MSR primask, %0" : : "r" (priMask) : "memory");
 415:Drivers/CMSIS/Include/cmsis_gcc.h **** }
 416:Drivers/CMSIS/Include/cmsis_gcc.h **** 
 417:Drivers/CMSIS/Include/cmsis_gcc.h **** 
 418:Drivers/CMSIS/Include/cmsis_gcc.h **** #if (defined (__ARM_FEATURE_CMSE ) && (__ARM_FEATURE_CMSE == 3))
 419:Drivers/CMSIS/Include/cmsis_gcc.h **** /**
 420:Drivers/CMSIS/Include/cmsis_gcc.h ****   \brief   Set Priority Mask (non-secure)
 421:Drivers/CMSIS/Include/cmsis_gcc.h ****   \details Assigns the given value to the non-secure Priority Mask Register when in secure state.
 422:Drivers/CMSIS/Include/cmsis_gcc.h ****   \param [in]    priMask  Priority Mask
 423:Drivers/CMSIS/Include/cmsis_gcc.h ****  */
 424:Drivers/CMSIS/Include/cmsis_gcc.h **** __STATIC_FORCEINLINE void __TZ_set_PRIMASK_NS(uint32_t priMask)
 425:Drivers/CMSIS/Include/cmsis_gcc.h **** {
 426:Drivers/CMSIS/Include/cmsis_gcc.h ****   __ASM volatile ("MSR primask_ns, %0" : : "r" (priMask) : "memory");
 427:Drivers/CMSIS/Include/cmsis_gcc.h **** }
 428:Drivers/CMSIS/Include/cmsis_gcc.h **** #endif
 429:Drivers/CMSIS/Include/cmsis_gcc.h **** 
 430:Drivers/CMSIS/Include/cmsis_gcc.h **** 
 431:Drivers/CMSIS/Include/cmsis_gcc.h **** #if ((defined (__ARM_ARCH_7M__      ) && (__ARM_ARCH_7M__      == 1)) || \
 432:Drivers/CMSIS/Include/cmsis_gcc.h ****      (defined (__ARM_ARCH_7EM__     ) && (__ARM_ARCH_7EM__     == 1)) || \
 433:Drivers/CMSIS/Include/cmsis_gcc.h ****      (defined (__ARM_ARCH_8M_MAIN__ ) && (__ARM_ARCH_8M_MAIN__ == 1))    )
ARM GAS  /tmp/ccjsdB5h.s 			page 26


 434:Drivers/CMSIS/Include/cmsis_gcc.h **** /**
 435:Drivers/CMSIS/Include/cmsis_gcc.h ****   \brief   Enable FIQ
 436:Drivers/CMSIS/Include/cmsis_gcc.h ****   \details Enables FIQ interrupts by clearing the F-bit in the CPSR.
 437:Drivers/CMSIS/Include/cmsis_gcc.h ****            Can only be executed in Privileged modes.
 438:Drivers/CMSIS/Include/cmsis_gcc.h ****  */
 439:Drivers/CMSIS/Include/cmsis_gcc.h **** __STATIC_FORCEINLINE void __enable_fault_irq(void)
 440:Drivers/CMSIS/Include/cmsis_gcc.h **** {
 441:Drivers/CMSIS/Include/cmsis_gcc.h ****   __ASM volatile ("cpsie f" : : : "memory");
 442:Drivers/CMSIS/Include/cmsis_gcc.h **** }
 443:Drivers/CMSIS/Include/cmsis_gcc.h **** 
 444:Drivers/CMSIS/Include/cmsis_gcc.h **** 
 445:Drivers/CMSIS/Include/cmsis_gcc.h **** /**
 446:Drivers/CMSIS/Include/cmsis_gcc.h ****   \brief   Disable FIQ
 447:Drivers/CMSIS/Include/cmsis_gcc.h ****   \details Disables FIQ interrupts by setting the F-bit in the CPSR.
 448:Drivers/CMSIS/Include/cmsis_gcc.h ****            Can only be executed in Privileged modes.
 449:Drivers/CMSIS/Include/cmsis_gcc.h ****  */
 450:Drivers/CMSIS/Include/cmsis_gcc.h **** __STATIC_FORCEINLINE void __disable_fault_irq(void)
 451:Drivers/CMSIS/Include/cmsis_gcc.h **** {
 452:Drivers/CMSIS/Include/cmsis_gcc.h ****   __ASM volatile ("cpsid f" : : : "memory");
 453:Drivers/CMSIS/Include/cmsis_gcc.h **** }
 454:Drivers/CMSIS/Include/cmsis_gcc.h **** 
 455:Drivers/CMSIS/Include/cmsis_gcc.h **** 
 456:Drivers/CMSIS/Include/cmsis_gcc.h **** /**
 457:Drivers/CMSIS/Include/cmsis_gcc.h ****   \brief   Get Base Priority
 458:Drivers/CMSIS/Include/cmsis_gcc.h ****   \details Returns the current value of the Base Priority register.
 459:Drivers/CMSIS/Include/cmsis_gcc.h ****   \return               Base Priority register value
 460:Drivers/CMSIS/Include/cmsis_gcc.h ****  */
 461:Drivers/CMSIS/Include/cmsis_gcc.h **** __STATIC_FORCEINLINE uint32_t __get_BASEPRI(void)
 462:Drivers/CMSIS/Include/cmsis_gcc.h **** {
 463:Drivers/CMSIS/Include/cmsis_gcc.h ****   uint32_t result;
 464:Drivers/CMSIS/Include/cmsis_gcc.h **** 
 465:Drivers/CMSIS/Include/cmsis_gcc.h ****   __ASM volatile ("MRS %0, basepri" : "=r" (result) );
 115              		.loc 2 465 0
 116              		.syntax unified
 117              	@ 465 "Drivers/CMSIS/Include/cmsis_gcc.h" 1
 118 0020 EFF31183 		MRS r3, basepri
 119              	@ 0 "" 2
 120              		.thumb
 121              		.syntax unified
 122              	.LBE339:
 123              	.LBE338:
 188:Middlewares/Third_Party/FreeRTOS/Source/CMSIS_RTOS_V2/cmsis_os2.c ****     }
 124              		.loc 1 188 0
 125 0024 002B     		cmp	r3, #0
 126 0026 14BF     		ite	ne
 127 0028 6FF00500 		mvnne	r0, #5
 128 002c 4FF0FF30 		moveq	r0, #-1
 129 0030 7047     		bx	lr
 130              	.L7:
 178:Middlewares/Third_Party/FreeRTOS/Source/CMSIS_RTOS_V2/cmsis_os2.c ****   }
 131              		.loc 1 178 0
 132 0032 6FF00500 		mvn	r0, #5
 133 0036 7047     		bx	lr
 134              	.L8:
 135 0038 6FF00500 		mvn	r0, #5
 136 003c 7047     		bx	lr
 137              	.L10:
ARM GAS  /tmp/ccjsdB5h.s 			page 27


 188:Middlewares/Third_Party/FreeRTOS/Source/CMSIS_RTOS_V2/cmsis_os2.c ****     }
 138              		.loc 1 188 0
 139 003e 4FF0FF30 		mov	r0, #-1
 140              	.LVL6:
 193:Middlewares/Third_Party/FreeRTOS/Source/CMSIS_RTOS_V2/cmsis_os2.c **** 
 141              		.loc 1 193 0
 142 0042 7047     		bx	lr
 143              	.L13:
 144              		.align	2
 145              	.L12:
 146 0044 00000000 		.word	.LANCHOR0
 147              		.cfi_endproc
 148              	.LFE106:
 150              		.section	.text.osKernelGetInfo,"ax",%progbits
 151              		.align	1
 152              		.global	osKernelGetInfo
 153              		.syntax unified
 154              		.thumb
 155              		.thumb_func
 156              		.fpu fpv4-sp-d16
 158              	osKernelGetInfo:
 159              	.LFB107:
 195:Middlewares/Third_Party/FreeRTOS/Source/CMSIS_RTOS_V2/cmsis_os2.c **** 
 160              		.loc 1 195 0
 161              		.cfi_startproc
 162              		@ args = 0, pretend = 0, frame = 0
 163              		@ frame_needed = 0, uses_anonymous_args = 0
 164              	.LVL7:
 165 0000 08B5     		push	{r3, lr}
 166              	.LCFI1:
 167              		.cfi_def_cfa_offset 8
 168              		.cfi_offset 3, -8
 169              		.cfi_offset 14, -4
 197:Middlewares/Third_Party/FreeRTOS/Source/CMSIS_RTOS_V2/cmsis_os2.c ****     version->api    = KERNEL_VERSION;
 170              		.loc 1 197 0
 171 0002 18B1     		cbz	r0, .L15
 172 0004 0346     		mov	r3, r0
 198:Middlewares/Third_Party/FreeRTOS/Source/CMSIS_RTOS_V2/cmsis_os2.c ****     version->kernel = KERNEL_VERSION;
 173              		.loc 1 198 0
 174 0006 0748     		ldr	r0, .L18
 175              	.LVL8:
 176 0008 1860     		str	r0, [r3]
 199:Middlewares/Third_Party/FreeRTOS/Source/CMSIS_RTOS_V2/cmsis_os2.c ****   }
 177              		.loc 1 199 0
 178 000a 5860     		str	r0, [r3, #4]
 179              	.LVL9:
 180              	.L15:
 202:Middlewares/Third_Party/FreeRTOS/Source/CMSIS_RTOS_V2/cmsis_os2.c ****     if (id_size > sizeof(KERNEL_ID)) {
 181              		.loc 1 202 0
 182 000c 39B1     		cbz	r1, .L16
 202:Middlewares/Third_Party/FreeRTOS/Source/CMSIS_RTOS_V2/cmsis_os2.c ****     if (id_size > sizeof(KERNEL_ID)) {
 183              		.loc 1 202 0 is_stmt 0 discriminator 1
 184 000e 32B1     		cbz	r2, .L16
 185 0010 0846     		mov	r0, r1
 186              	.LVL10:
 206:Middlewares/Third_Party/FreeRTOS/Source/CMSIS_RTOS_V2/cmsis_os2.c ****   }
 187              		.loc 1 206 0 is_stmt 1
ARM GAS  /tmp/ccjsdB5h.s 			page 28


 188 0012 112A     		cmp	r2, #17
 189 0014 28BF     		it	cs
 190 0016 1122     		movcs	r2, #17
 191              	.LVL11:
 192 0018 0349     		ldr	r1, .L18+4
 193              	.LVL12:
 194 001a FFF7FEFF 		bl	memcpy
 195              	.LVL13:
 196              	.L16:
 210:Middlewares/Third_Party/FreeRTOS/Source/CMSIS_RTOS_V2/cmsis_os2.c **** 
 197              		.loc 1 210 0
 198 001e 0020     		movs	r0, #0
 199 0020 08BD     		pop	{r3, pc}
 200              	.L19:
 201 0022 00BF     		.align	2
 202              	.L18:
 203 0024 01E1F505 		.word	100000001
 204 0028 00000000 		.word	.LC0
 205              		.cfi_endproc
 206              	.LFE107:
 208              		.section	.text.osKernelGetState,"ax",%progbits
 209              		.align	1
 210              		.global	osKernelGetState
 211              		.syntax unified
 212              		.thumb
 213              		.thumb_func
 214              		.fpu fpv4-sp-d16
 216              	osKernelGetState:
 217              	.LFB108:
 212:Middlewares/Third_Party/FreeRTOS/Source/CMSIS_RTOS_V2/cmsis_os2.c ****   osKernelState_t state;
 218              		.loc 1 212 0
 219              		.cfi_startproc
 220              		@ args = 0, pretend = 0, frame = 0
 221              		@ frame_needed = 0, uses_anonymous_args = 0
 222 0000 08B5     		push	{r3, lr}
 223              	.LCFI2:
 224              		.cfi_def_cfa_offset 8
 225              		.cfi_offset 3, -8
 226              		.cfi_offset 14, -4
 215:Middlewares/Third_Party/FreeRTOS/Source/CMSIS_RTOS_V2/cmsis_os2.c ****     case taskSCHEDULER_RUNNING:
 227              		.loc 1 215 0
 228 0002 FFF7FEFF 		bl	xTaskGetSchedulerState
 229              	.LVL14:
 230 0006 40B1     		cbz	r0, .L22
 231 0008 0228     		cmp	r0, #2
 232 000a 08D0     		beq	.L24
 226:Middlewares/Third_Party/FreeRTOS/Source/CMSIS_RTOS_V2/cmsis_os2.c ****         state = osKernelReady;
 233              		.loc 1 226 0
 234 000c 054B     		ldr	r3, .L27
 235 000e 1868     		ldr	r0, [r3]
 236 0010 0128     		cmp	r0, #1
 237 0012 14BF     		ite	ne
 238 0014 0020     		movne	r0, #0
 239 0016 0120     		moveq	r0, #1
 240 0018 00E0     		b	.L20
 241              	.L22:
 221:Middlewares/Third_Party/FreeRTOS/Source/CMSIS_RTOS_V2/cmsis_os2.c ****       break;
ARM GAS  /tmp/ccjsdB5h.s 			page 29


 242              		.loc 1 221 0
 243 001a 0320     		movs	r0, #3
 244              	.L20:
 235:Middlewares/Third_Party/FreeRTOS/Source/CMSIS_RTOS_V2/cmsis_os2.c **** 
 245              		.loc 1 235 0
 246 001c 08BD     		pop	{r3, pc}
 247              	.L24:
 217:Middlewares/Third_Party/FreeRTOS/Source/CMSIS_RTOS_V2/cmsis_os2.c ****       break;
 248              		.loc 1 217 0
 249 001e 0220     		movs	r0, #2
 250              	.LVL15:
 234:Middlewares/Third_Party/FreeRTOS/Source/CMSIS_RTOS_V2/cmsis_os2.c **** }
 251              		.loc 1 234 0
 252 0020 FCE7     		b	.L20
 253              	.L28:
 254 0022 00BF     		.align	2
 255              	.L27:
 256 0024 00000000 		.word	.LANCHOR0
 257              		.cfi_endproc
 258              	.LFE108:
 260              		.section	.text.osKernelStart,"ax",%progbits
 261              		.align	1
 262              		.global	osKernelStart
 263              		.syntax unified
 264              		.thumb
 265              		.thumb_func
 266              		.fpu fpv4-sp-d16
 268              	osKernelStart:
 269              	.LFB109:
 237:Middlewares/Third_Party/FreeRTOS/Source/CMSIS_RTOS_V2/cmsis_os2.c ****   osStatus_t stat;
 270              		.loc 1 237 0
 271              		.cfi_startproc
 272              		@ args = 0, pretend = 0, frame = 0
 273              		@ frame_needed = 0, uses_anonymous_args = 0
 274 0000 08B5     		push	{r3, lr}
 275              	.LCFI3:
 276              		.cfi_def_cfa_offset 8
 277              		.cfi_offset 3, -8
 278              		.cfi_offset 14, -4
 279              	.LBB340:
 280              	.LBB341:
 209:Drivers/CMSIS/Include/cmsis_gcc.h ****   return(result);
 281              		.loc 2 209 0
 282              		.syntax unified
 283              	@ 209 "Drivers/CMSIS/Include/cmsis_gcc.h" 1
 284 0002 EFF30583 		MRS r3, ipsr
 285              	@ 0 "" 2
 286              		.thumb
 287              		.syntax unified
 288              	.LBE341:
 289              	.LBE340:
 240:Middlewares/Third_Party/FreeRTOS/Source/CMSIS_RTOS_V2/cmsis_os2.c ****     stat = osErrorISR;
 290              		.loc 1 240 0
 291 0006 C3B9     		cbnz	r3, .L32
 292              	.LBB342:
 293              	.LBB343:
 386:Drivers/CMSIS/Include/cmsis_gcc.h ****   return(result);
ARM GAS  /tmp/ccjsdB5h.s 			page 30


 294              		.loc 2 386 0
 295              		.syntax unified
 296              	@ 386 "Drivers/CMSIS/Include/cmsis_gcc.h" 1
 297 0008 EFF31083 		MRS r3, primask
 298              	@ 0 "" 2
 299              		.thumb
 300              		.syntax unified
 301              	.LBE343:
 302              	.LBE342:
 240:Middlewares/Third_Party/FreeRTOS/Source/CMSIS_RTOS_V2/cmsis_os2.c ****     stat = osErrorISR;
 303              		.loc 1 240 0
 304 000c C3B9     		cbnz	r3, .L33
 240:Middlewares/Third_Party/FreeRTOS/Source/CMSIS_RTOS_V2/cmsis_os2.c ****     stat = osErrorISR;
 305              		.loc 1 240 0 is_stmt 0 discriminator 2
 306 000e 0F4B     		ldr	r3, .L38
 307 0010 1B68     		ldr	r3, [r3]
 308 0012 022B     		cmp	r3, #2
 309 0014 08D0     		beq	.L37
 244:Middlewares/Third_Party/FreeRTOS/Source/CMSIS_RTOS_V2/cmsis_os2.c ****       KernelState = osKernelRunning;
 310              		.loc 1 244 0 is_stmt 1
 311 0016 012B     		cmp	r3, #1
 312 0018 15D1     		bne	.L35
 245:Middlewares/Third_Party/FreeRTOS/Source/CMSIS_RTOS_V2/cmsis_os2.c ****       vTaskStartScheduler();
 313              		.loc 1 245 0
 314 001a 0C4B     		ldr	r3, .L38
 315 001c 0222     		movs	r2, #2
 316 001e 1A60     		str	r2, [r3]
 246:Middlewares/Third_Party/FreeRTOS/Source/CMSIS_RTOS_V2/cmsis_os2.c ****       stat = osOK;
 317              		.loc 1 246 0
 318 0020 FFF7FEFF 		bl	vTaskStartScheduler
 319              	.LVL16:
 247:Middlewares/Third_Party/FreeRTOS/Source/CMSIS_RTOS_V2/cmsis_os2.c ****     } else {
 320              		.loc 1 247 0
 321 0024 0020     		movs	r0, #0
 322              	.LVL17:
 323              	.L29:
 254:Middlewares/Third_Party/FreeRTOS/Source/CMSIS_RTOS_V2/cmsis_os2.c **** 
 324              		.loc 1 254 0
 325 0026 08BD     		pop	{r3, pc}
 326              	.L37:
 327              	.LBB344:
 328              	.LBB345:
 329              		.loc 2 465 0
 330              		.syntax unified
 331              	@ 465 "Drivers/CMSIS/Include/cmsis_gcc.h" 1
 332 0028 EFF31183 		MRS r3, basepri
 333              	@ 0 "" 2
 334              		.thumb
 335              		.syntax unified
 336              	.LBE345:
 337              	.LBE344:
 249:Middlewares/Third_Party/FreeRTOS/Source/CMSIS_RTOS_V2/cmsis_os2.c ****     }
 338              		.loc 1 249 0
 339 002c 002B     		cmp	r3, #0
 340 002e 14BF     		ite	ne
 341 0030 6FF00500 		mvnne	r0, #5
 342 0034 4FF0FF30 		moveq	r0, #-1
ARM GAS  /tmp/ccjsdB5h.s 			page 31


 343 0038 F5E7     		b	.L29
 344              	.L32:
 241:Middlewares/Third_Party/FreeRTOS/Source/CMSIS_RTOS_V2/cmsis_os2.c ****   }
 345              		.loc 1 241 0
 346 003a 6FF00500 		mvn	r0, #5
 347 003e F2E7     		b	.L29
 348              	.L33:
 349 0040 6FF00500 		mvn	r0, #5
 350 0044 EFE7     		b	.L29
 351              	.L35:
 249:Middlewares/Third_Party/FreeRTOS/Source/CMSIS_RTOS_V2/cmsis_os2.c ****     }
 352              		.loc 1 249 0
 353 0046 4FF0FF30 		mov	r0, #-1
 354              	.LVL18:
 253:Middlewares/Third_Party/FreeRTOS/Source/CMSIS_RTOS_V2/cmsis_os2.c **** }
 355              		.loc 1 253 0
 356 004a ECE7     		b	.L29
 357              	.L39:
 358              		.align	2
 359              	.L38:
 360 004c 00000000 		.word	.LANCHOR0
 361              		.cfi_endproc
 362              	.LFE109:
 364              		.section	.text.osKernelLock,"ax",%progbits
 365              		.align	1
 366              		.global	osKernelLock
 367              		.syntax unified
 368              		.thumb
 369              		.thumb_func
 370              		.fpu fpv4-sp-d16
 372              	osKernelLock:
 373              	.LFB110:
 256:Middlewares/Third_Party/FreeRTOS/Source/CMSIS_RTOS_V2/cmsis_os2.c ****   int32_t lock;
 374              		.loc 1 256 0
 375              		.cfi_startproc
 376              		@ args = 0, pretend = 0, frame = 0
 377              		@ frame_needed = 0, uses_anonymous_args = 0
 378 0000 08B5     		push	{r3, lr}
 379              	.LCFI4:
 380              		.cfi_def_cfa_offset 8
 381              		.cfi_offset 3, -8
 382              		.cfi_offset 14, -4
 383              	.LBB346:
 384              	.LBB347:
 209:Drivers/CMSIS/Include/cmsis_gcc.h ****   return(result);
 385              		.loc 2 209 0
 386              		.syntax unified
 387              	@ 209 "Drivers/CMSIS/Include/cmsis_gcc.h" 1
 388 0002 EFF30583 		MRS r3, ipsr
 389              	@ 0 "" 2
 390              		.thumb
 391              		.syntax unified
 392              	.LBE347:
 393              	.LBE346:
 259:Middlewares/Third_Party/FreeRTOS/Source/CMSIS_RTOS_V2/cmsis_os2.c ****     lock = (int32_t)osErrorISR;
 394              		.loc 1 259 0
 395 0006 ABB9     		cbnz	r3, .L45
ARM GAS  /tmp/ccjsdB5h.s 			page 32


 396              	.LBB348:
 397              	.LBB349:
 386:Drivers/CMSIS/Include/cmsis_gcc.h ****   return(result);
 398              		.loc 2 386 0
 399              		.syntax unified
 400              	@ 386 "Drivers/CMSIS/Include/cmsis_gcc.h" 1
 401 0008 EFF31083 		MRS r3, primask
 402              	@ 0 "" 2
 403              		.thumb
 404              		.syntax unified
 405              	.LBE349:
 406              	.LBE348:
 259:Middlewares/Third_Party/FreeRTOS/Source/CMSIS_RTOS_V2/cmsis_os2.c ****     lock = (int32_t)osErrorISR;
 407              		.loc 1 259 0
 408 000c ABB9     		cbnz	r3, .L46
 259:Middlewares/Third_Party/FreeRTOS/Source/CMSIS_RTOS_V2/cmsis_os2.c ****     lock = (int32_t)osErrorISR;
 409              		.loc 1 259 0 is_stmt 0 discriminator 2
 410 000e 0F4B     		ldr	r3, .L50
 411 0010 1B68     		ldr	r3, [r3]
 412 0012 022B     		cmp	r3, #2
 413 0014 02D1     		bne	.L42
 414              	.LBB350:
 415              	.LBB351:
 416              		.loc 2 465 0 is_stmt 1
 417              		.syntax unified
 418              	@ 465 "Drivers/CMSIS/Include/cmsis_gcc.h" 1
 419 0016 EFF31183 		MRS r3, basepri
 420              	@ 0 "" 2
 421              		.thumb
 422              		.syntax unified
 423              	.LBE351:
 424              	.LBE350:
 259:Middlewares/Third_Party/FreeRTOS/Source/CMSIS_RTOS_V2/cmsis_os2.c ****     lock = (int32_t)osErrorISR;
 425              		.loc 1 259 0
 426 001a 8BB9     		cbnz	r3, .L47
 427              	.L42:
 263:Middlewares/Third_Party/FreeRTOS/Source/CMSIS_RTOS_V2/cmsis_os2.c ****       case taskSCHEDULER_SUSPENDED:
 428              		.loc 1 263 0
 429 001c FFF7FEFF 		bl	xTaskGetSchedulerState
 430              	.LVL19:
 431 0020 88B1     		cbz	r0, .L48
 432 0022 0228     		cmp	r0, #2
 433 0024 02D0     		beq	.L44
 275:Middlewares/Third_Party/FreeRTOS/Source/CMSIS_RTOS_V2/cmsis_os2.c ****         break;
 434              		.loc 1 275 0
 435 0026 4FF0FF30 		mov	r0, #-1
 436              	.L40:
 281:Middlewares/Third_Party/FreeRTOS/Source/CMSIS_RTOS_V2/cmsis_os2.c **** 
 437              		.loc 1 281 0
 438 002a 08BD     		pop	{r3, pc}
 439              	.L44:
 269:Middlewares/Third_Party/FreeRTOS/Source/CMSIS_RTOS_V2/cmsis_os2.c ****         lock = 0;
 440              		.loc 1 269 0
 441 002c FFF7FEFF 		bl	vTaskSuspendAll
 442              	.LVL20:
 270:Middlewares/Third_Party/FreeRTOS/Source/CMSIS_RTOS_V2/cmsis_os2.c ****         break;
 443              		.loc 1 270 0
ARM GAS  /tmp/ccjsdB5h.s 			page 33


 444 0030 0020     		movs	r0, #0
 271:Middlewares/Third_Party/FreeRTOS/Source/CMSIS_RTOS_V2/cmsis_os2.c **** 
 445              		.loc 1 271 0
 446 0032 FAE7     		b	.L40
 447              	.LVL21:
 448              	.L45:
 260:Middlewares/Third_Party/FreeRTOS/Source/CMSIS_RTOS_V2/cmsis_os2.c ****   }
 449              		.loc 1 260 0
 450 0034 6FF00500 		mvn	r0, #5
 451 0038 F7E7     		b	.L40
 452              	.L46:
 453 003a 6FF00500 		mvn	r0, #5
 454 003e F4E7     		b	.L40
 455              	.L47:
 456 0040 6FF00500 		mvn	r0, #5
 457 0044 F1E7     		b	.L40
 458              	.L48:
 265:Middlewares/Third_Party/FreeRTOS/Source/CMSIS_RTOS_V2/cmsis_os2.c ****         break;
 459              		.loc 1 265 0
 460 0046 0120     		movs	r0, #1
 461              	.LVL22:
 280:Middlewares/Third_Party/FreeRTOS/Source/CMSIS_RTOS_V2/cmsis_os2.c **** }
 462              		.loc 1 280 0
 463 0048 EFE7     		b	.L40
 464              	.L51:
 465 004a 00BF     		.align	2
 466              	.L50:
 467 004c 00000000 		.word	.LANCHOR0
 468              		.cfi_endproc
 469              	.LFE110:
 471              		.section	.text.osKernelUnlock,"ax",%progbits
 472              		.align	1
 473              		.global	osKernelUnlock
 474              		.syntax unified
 475              		.thumb
 476              		.thumb_func
 477              		.fpu fpv4-sp-d16
 479              	osKernelUnlock:
 480              	.LFB111:
 283:Middlewares/Third_Party/FreeRTOS/Source/CMSIS_RTOS_V2/cmsis_os2.c ****   int32_t lock;
 481              		.loc 1 283 0
 482              		.cfi_startproc
 483              		@ args = 0, pretend = 0, frame = 0
 484              		@ frame_needed = 0, uses_anonymous_args = 0
 485 0000 08B5     		push	{r3, lr}
 486              	.LCFI5:
 487              		.cfi_def_cfa_offset 8
 488              		.cfi_offset 3, -8
 489              		.cfi_offset 14, -4
 490              	.LBB352:
 491              	.LBB353:
 209:Drivers/CMSIS/Include/cmsis_gcc.h ****   return(result);
 492              		.loc 2 209 0
 493              		.syntax unified
 494              	@ 209 "Drivers/CMSIS/Include/cmsis_gcc.h" 1
 495 0002 EFF30583 		MRS r3, ipsr
 496              	@ 0 "" 2
ARM GAS  /tmp/ccjsdB5h.s 			page 34


 497              		.thumb
 498              		.syntax unified
 499              	.LBE353:
 500              	.LBE352:
 286:Middlewares/Third_Party/FreeRTOS/Source/CMSIS_RTOS_V2/cmsis_os2.c ****     lock = (int32_t)osErrorISR;
 501              		.loc 1 286 0
 502 0006 F3B9     		cbnz	r3, .L57
 503              	.LBB354:
 504              	.LBB355:
 386:Drivers/CMSIS/Include/cmsis_gcc.h ****   return(result);
 505              		.loc 2 386 0
 506              		.syntax unified
 507              	@ 386 "Drivers/CMSIS/Include/cmsis_gcc.h" 1
 508 0008 EFF31083 		MRS r3, primask
 509              	@ 0 "" 2
 510              		.thumb
 511              		.syntax unified
 512              	.LBE355:
 513              	.LBE354:
 286:Middlewares/Third_Party/FreeRTOS/Source/CMSIS_RTOS_V2/cmsis_os2.c ****     lock = (int32_t)osErrorISR;
 514              		.loc 1 286 0
 515 000c F3B9     		cbnz	r3, .L58
 286:Middlewares/Third_Party/FreeRTOS/Source/CMSIS_RTOS_V2/cmsis_os2.c ****     lock = (int32_t)osErrorISR;
 516              		.loc 1 286 0 is_stmt 0 discriminator 2
 517 000e 134B     		ldr	r3, .L64
 518 0010 1B68     		ldr	r3, [r3]
 519 0012 022B     		cmp	r3, #2
 520 0014 02D1     		bne	.L54
 521              	.LBB356:
 522              	.LBB357:
 523              		.loc 2 465 0 is_stmt 1
 524              		.syntax unified
 525              	@ 465 "Drivers/CMSIS/Include/cmsis_gcc.h" 1
 526 0016 EFF31183 		MRS r3, basepri
 527              	@ 0 "" 2
 528              		.thumb
 529              		.syntax unified
 530              	.LBE357:
 531              	.LBE356:
 286:Middlewares/Third_Party/FreeRTOS/Source/CMSIS_RTOS_V2/cmsis_os2.c ****     lock = (int32_t)osErrorISR;
 532              		.loc 1 286 0
 533 001a D3B9     		cbnz	r3, .L59
 534              	.L54:
 290:Middlewares/Third_Party/FreeRTOS/Source/CMSIS_RTOS_V2/cmsis_os2.c ****       case taskSCHEDULER_SUSPENDED:
 535              		.loc 1 290 0
 536 001c FFF7FEFF 		bl	xTaskGetSchedulerState
 537              	.LVL23:
 538 0020 28B1     		cbz	r0, .L56
 307:Middlewares/Third_Party/FreeRTOS/Source/CMSIS_RTOS_V2/cmsis_os2.c ****         break;
 539              		.loc 1 307 0
 540 0022 0228     		cmp	r0, #2
 541 0024 0CBF     		ite	eq
 542 0026 0020     		moveq	r0, #0
 543 0028 4FF0FF30 		movne	r0, #-1
 544              	.L52:
 313:Middlewares/Third_Party/FreeRTOS/Source/CMSIS_RTOS_V2/cmsis_os2.c **** 
 545              		.loc 1 313 0
ARM GAS  /tmp/ccjsdB5h.s 			page 35


 546 002c 08BD     		pop	{r3, pc}
 547              	.L56:
 548              	.LVL24:
 294:Middlewares/Third_Party/FreeRTOS/Source/CMSIS_RTOS_V2/cmsis_os2.c ****           if (xTaskGetSchedulerState() == taskSCHEDULER_SUSPENDED) {
 549              		.loc 1 294 0
 550 002e FFF7FEFF 		bl	xTaskResumeAll
 551              	.LVL25:
 552 0032 0128     		cmp	r0, #1
 553 0034 10D0     		beq	.L61
 295:Middlewares/Third_Party/FreeRTOS/Source/CMSIS_RTOS_V2/cmsis_os2.c ****             lock = (int32_t)osError;
 554              		.loc 1 295 0
 555 0036 FFF7FEFF 		bl	xTaskGetSchedulerState
 556              	.LVL26:
 557 003a 0028     		cmp	r0, #0
 296:Middlewares/Third_Party/FreeRTOS/Source/CMSIS_RTOS_V2/cmsis_os2.c ****           }
 558              		.loc 1 296 0
 559 003c 14BF     		ite	ne
 560 003e 0120     		movne	r0, #1
 561 0040 4FF0FF30 		moveq	r0, #-1
 562 0044 F2E7     		b	.L52
 563              	.LVL27:
 564              	.L57:
 287:Middlewares/Third_Party/FreeRTOS/Source/CMSIS_RTOS_V2/cmsis_os2.c ****   }
 565              		.loc 1 287 0
 566 0046 6FF00500 		mvn	r0, #5
 567 004a EFE7     		b	.L52
 568              	.L58:
 569 004c 6FF00500 		mvn	r0, #5
 570 0050 ECE7     		b	.L52
 571              	.L59:
 572 0052 6FF00500 		mvn	r0, #5
 573 0056 E9E7     		b	.L52
 574              	.LVL28:
 575              	.L61:
 292:Middlewares/Third_Party/FreeRTOS/Source/CMSIS_RTOS_V2/cmsis_os2.c **** 
 576              		.loc 1 292 0
 577 0058 0120     		movs	r0, #1
 578 005a E7E7     		b	.L52
 579              	.L65:
 580              		.align	2
 581              	.L64:
 582 005c 00000000 		.word	.LANCHOR0
 583              		.cfi_endproc
 584              	.LFE111:
 586              		.section	.text.osKernelRestoreLock,"ax",%progbits
 587              		.align	1
 588              		.global	osKernelRestoreLock
 589              		.syntax unified
 590              		.thumb
 591              		.thumb_func
 592              		.fpu fpv4-sp-d16
 594              	osKernelRestoreLock:
 595              	.LFB112:
 315:Middlewares/Third_Party/FreeRTOS/Source/CMSIS_RTOS_V2/cmsis_os2.c **** 
 596              		.loc 1 315 0
 597              		.cfi_startproc
 598              		@ args = 0, pretend = 0, frame = 0
ARM GAS  /tmp/ccjsdB5h.s 			page 36


 599              		@ frame_needed = 0, uses_anonymous_args = 0
 600              	.LVL29:
 601              	.LBB358:
 602              	.LBB359:
 209:Drivers/CMSIS/Include/cmsis_gcc.h ****   return(result);
 603              		.loc 2 209 0
 604              		.syntax unified
 605              	@ 209 "Drivers/CMSIS/Include/cmsis_gcc.h" 1
 606 0000 EFF30583 		MRS r3, ipsr
 607              	@ 0 "" 2
 608              		.thumb
 609              		.syntax unified
 610              	.LBE359:
 611              	.LBE358:
 317:Middlewares/Third_Party/FreeRTOS/Source/CMSIS_RTOS_V2/cmsis_os2.c ****     lock = (int32_t)osErrorISR;
 612              		.loc 1 317 0
 613 0004 13BB     		cbnz	r3, .L71
 614              	.LBB360:
 615              	.LBB361:
 386:Drivers/CMSIS/Include/cmsis_gcc.h ****   return(result);
 616              		.loc 2 386 0
 617              		.syntax unified
 618              	@ 386 "Drivers/CMSIS/Include/cmsis_gcc.h" 1
 619 0006 EFF31083 		MRS r3, primask
 620              	@ 0 "" 2
 621              		.thumb
 622              		.syntax unified
 623              	.LBE361:
 624              	.LBE360:
 317:Middlewares/Third_Party/FreeRTOS/Source/CMSIS_RTOS_V2/cmsis_os2.c ****     lock = (int32_t)osErrorISR;
 625              		.loc 1 317 0
 626 000a 13BB     		cbnz	r3, .L72
 317:Middlewares/Third_Party/FreeRTOS/Source/CMSIS_RTOS_V2/cmsis_os2.c ****     lock = (int32_t)osErrorISR;
 627              		.loc 1 317 0 is_stmt 0 discriminator 2
 628 000c 184B     		ldr	r3, .L82
 629 000e 1B68     		ldr	r3, [r3]
 630 0010 022B     		cmp	r3, #2
 631 0012 02D1     		bne	.L68
 632              	.LBB362:
 633              	.LBB363:
 634              		.loc 2 465 0 is_stmt 1
 635              		.syntax unified
 636              	@ 465 "Drivers/CMSIS/Include/cmsis_gcc.h" 1
 637 0014 EFF31183 		MRS r3, basepri
 638              	@ 0 "" 2
 639              		.thumb
 640              		.syntax unified
 641              	.LBE363:
 642              	.LBE362:
 317:Middlewares/Third_Party/FreeRTOS/Source/CMSIS_RTOS_V2/cmsis_os2.c ****     lock = (int32_t)osErrorISR;
 643              		.loc 1 317 0
 644 0018 F3B9     		cbnz	r3, .L73
 645              	.L68:
 315:Middlewares/Third_Party/FreeRTOS/Source/CMSIS_RTOS_V2/cmsis_os2.c **** 
 646              		.loc 1 315 0
 647 001a 10B5     		push	{r4, lr}
 648              	.LCFI6:
ARM GAS  /tmp/ccjsdB5h.s 			page 37


 649              		.cfi_def_cfa_offset 8
 650              		.cfi_offset 4, -8
 651              		.cfi_offset 14, -4
 652 001c 0446     		mov	r4, r0
 321:Middlewares/Third_Party/FreeRTOS/Source/CMSIS_RTOS_V2/cmsis_os2.c ****       case taskSCHEDULER_SUSPENDED:
 653              		.loc 1 321 0
 654 001e FFF7FEFF 		bl	xTaskGetSchedulerState
 655              	.LVL30:
 656 0022 08B1     		cbz	r0, .L69
 657 0024 0228     		cmp	r0, #2
 658 0026 1AD1     		bne	.L77
 659              	.L69:
 324:Middlewares/Third_Party/FreeRTOS/Source/CMSIS_RTOS_V2/cmsis_os2.c ****           vTaskSuspendAll();
 660              		.loc 1 324 0
 661 0028 012C     		cmp	r4, #1
 662 002a 0BD0     		beq	.L81
 328:Middlewares/Third_Party/FreeRTOS/Source/CMSIS_RTOS_V2/cmsis_os2.c ****             lock = (int32_t)osError;
 663              		.loc 1 328 0
 664 002c D4B9     		cbnz	r4, .L75
 332:Middlewares/Third_Party/FreeRTOS/Source/CMSIS_RTOS_V2/cmsis_os2.c ****               if (xTaskGetSchedulerState() != taskSCHEDULER_RUNNING) {
 665              		.loc 1 332 0
 666 002e FFF7FEFF 		bl	xTaskResumeAll
 667              	.LVL31:
 668 0032 0128     		cmp	r0, #1
 669 0034 19D0     		beq	.L76
 333:Middlewares/Third_Party/FreeRTOS/Source/CMSIS_RTOS_V2/cmsis_os2.c ****                 lock = (int32_t)osError;
 670              		.loc 1 333 0
 671 0036 FFF7FEFF 		bl	xTaskGetSchedulerState
 672              	.LVL32:
 673 003a 0238     		subs	r0, r0, #2
 674 003c 18BF     		it	ne
 675 003e 4FF0FF30 		movne	r0, #-1
 676              	.LVL33:
 677              	.L66:
 349:Middlewares/Third_Party/FreeRTOS/Source/CMSIS_RTOS_V2/cmsis_os2.c **** 
 678              		.loc 1 349 0
 679 0042 10BD     		pop	{r4, pc}
 680              	.LVL34:
 681              	.L81:
 325:Middlewares/Third_Party/FreeRTOS/Source/CMSIS_RTOS_V2/cmsis_os2.c ****         }
 682              		.loc 1 325 0
 683 0044 FFF7FEFF 		bl	vTaskSuspendAll
 684              	.LVL35:
 685 0048 2046     		mov	r0, r4
 686 004a FAE7     		b	.L66
 687              	.LVL36:
 688              	.L71:
 689              	.LCFI7:
 690              		.cfi_def_cfa_offset 0
 691              		.cfi_restore 4
 692              		.cfi_restore 14
 318:Middlewares/Third_Party/FreeRTOS/Source/CMSIS_RTOS_V2/cmsis_os2.c ****   }
 693              		.loc 1 318 0
 694 004c 6FF00500 		mvn	r0, #5
 695              	.LVL37:
 696 0050 7047     		bx	lr
 697              	.LVL38:
ARM GAS  /tmp/ccjsdB5h.s 			page 38


 698              	.L72:
 699 0052 6FF00500 		mvn	r0, #5
 700              	.LVL39:
 701 0056 7047     		bx	lr
 702              	.LVL40:
 703              	.L73:
 704 0058 6FF00500 		mvn	r0, #5
 705              	.LVL41:
 349:Middlewares/Third_Party/FreeRTOS/Source/CMSIS_RTOS_V2/cmsis_os2.c **** 
 706              		.loc 1 349 0
 707 005c 7047     		bx	lr
 708              	.LVL42:
 709              	.L77:
 710              	.LCFI8:
 711              		.cfi_def_cfa_offset 8
 712              		.cfi_offset 4, -8
 713              		.cfi_offset 14, -4
 343:Middlewares/Third_Party/FreeRTOS/Source/CMSIS_RTOS_V2/cmsis_os2.c ****         break;
 714              		.loc 1 343 0
 715 005e 4FF0FF30 		mov	r0, #-1
 716 0062 EEE7     		b	.L66
 717              	.L75:
 329:Middlewares/Third_Party/FreeRTOS/Source/CMSIS_RTOS_V2/cmsis_os2.c ****           }
 718              		.loc 1 329 0
 719 0064 4FF0FF30 		mov	r0, #-1
 720 0068 EBE7     		b	.L66
 721              	.L76:
 722 006a 2046     		mov	r0, r4
 348:Middlewares/Third_Party/FreeRTOS/Source/CMSIS_RTOS_V2/cmsis_os2.c **** }
 723              		.loc 1 348 0
 724 006c E9E7     		b	.L66
 725              	.L83:
 726 006e 00BF     		.align	2
 727              	.L82:
 728 0070 00000000 		.word	.LANCHOR0
 729              		.cfi_endproc
 730              	.LFE112:
 732              		.section	.text.osKernelGetTickCount,"ax",%progbits
 733              		.align	1
 734              		.global	osKernelGetTickCount
 735              		.syntax unified
 736              		.thumb
 737              		.thumb_func
 738              		.fpu fpv4-sp-d16
 740              	osKernelGetTickCount:
 741              	.LFB113:
 351:Middlewares/Third_Party/FreeRTOS/Source/CMSIS_RTOS_V2/cmsis_os2.c ****   TickType_t ticks;
 742              		.loc 1 351 0
 743              		.cfi_startproc
 744              		@ args = 0, pretend = 0, frame = 0
 745              		@ frame_needed = 0, uses_anonymous_args = 0
 746 0000 08B5     		push	{r3, lr}
 747              	.LCFI9:
 748              		.cfi_def_cfa_offset 8
 749              		.cfi_offset 3, -8
 750              		.cfi_offset 14, -4
 751              	.LBB364:
ARM GAS  /tmp/ccjsdB5h.s 			page 39


 752              	.LBB365:
 209:Drivers/CMSIS/Include/cmsis_gcc.h ****   return(result);
 753              		.loc 2 209 0
 754              		.syntax unified
 755              	@ 209 "Drivers/CMSIS/Include/cmsis_gcc.h" 1
 756 0002 EFF30583 		MRS r3, ipsr
 757              	@ 0 "" 2
 758              		.thumb
 759              		.syntax unified
 760              	.LBE365:
 761              	.LBE364:
 354:Middlewares/Third_Party/FreeRTOS/Source/CMSIS_RTOS_V2/cmsis_os2.c ****     ticks = xTaskGetTickCountFromISR();
 762              		.loc 1 354 0
 763 0006 63B9     		cbnz	r3, .L85
 764              	.LBB366:
 765              	.LBB367:
 386:Drivers/CMSIS/Include/cmsis_gcc.h ****   return(result);
 766              		.loc 2 386 0
 767              		.syntax unified
 768              	@ 386 "Drivers/CMSIS/Include/cmsis_gcc.h" 1
 769 0008 EFF31083 		MRS r3, primask
 770              	@ 0 "" 2
 771              		.thumb
 772              		.syntax unified
 773              	.LBE367:
 774              	.LBE366:
 354:Middlewares/Third_Party/FreeRTOS/Source/CMSIS_RTOS_V2/cmsis_os2.c ****     ticks = xTaskGetTickCountFromISR();
 775              		.loc 1 354 0
 776 000c 4BB9     		cbnz	r3, .L85
 354:Middlewares/Third_Party/FreeRTOS/Source/CMSIS_RTOS_V2/cmsis_os2.c ****     ticks = xTaskGetTickCountFromISR();
 777              		.loc 1 354 0 is_stmt 0 discriminator 2
 778 000e 064B     		ldr	r3, .L89
 779 0010 1B68     		ldr	r3, [r3]
 780 0012 022B     		cmp	r3, #2
 781 0014 02D1     		bne	.L86
 782              	.LBB368:
 783              	.LBB369:
 784              		.loc 2 465 0 is_stmt 1
 785              		.syntax unified
 786              	@ 465 "Drivers/CMSIS/Include/cmsis_gcc.h" 1
 787 0016 EFF31183 		MRS r3, basepri
 788              	@ 0 "" 2
 789              		.thumb
 790              		.syntax unified
 791              	.LBE369:
 792              	.LBE368:
 354:Middlewares/Third_Party/FreeRTOS/Source/CMSIS_RTOS_V2/cmsis_os2.c ****     ticks = xTaskGetTickCountFromISR();
 793              		.loc 1 354 0
 794 001a 13B9     		cbnz	r3, .L85
 795              	.L86:
 357:Middlewares/Third_Party/FreeRTOS/Source/CMSIS_RTOS_V2/cmsis_os2.c ****   }
 796              		.loc 1 357 0
 797 001c FFF7FEFF 		bl	xTaskGetTickCount
 798              	.LVL43:
 360:Middlewares/Third_Party/FreeRTOS/Source/CMSIS_RTOS_V2/cmsis_os2.c **** }
 799              		.loc 1 360 0
 800 0020 01E0     		b	.L84
ARM GAS  /tmp/ccjsdB5h.s 			page 40


 801              	.LVL44:
 802              	.L85:
 355:Middlewares/Third_Party/FreeRTOS/Source/CMSIS_RTOS_V2/cmsis_os2.c ****   } else {
 803              		.loc 1 355 0
 804 0022 FFF7FEFF 		bl	xTaskGetTickCountFromISR
 805              	.LVL45:
 806              	.L84:
 361:Middlewares/Third_Party/FreeRTOS/Source/CMSIS_RTOS_V2/cmsis_os2.c **** 
 807              		.loc 1 361 0
 808 0026 08BD     		pop	{r3, pc}
 809              	.L90:
 810              		.align	2
 811              	.L89:
 812 0028 00000000 		.word	.LANCHOR0
 813              		.cfi_endproc
 814              	.LFE113:
 816              		.section	.text.osKernelGetTickFreq,"ax",%progbits
 817              		.align	1
 818              		.global	osKernelGetTickFreq
 819              		.syntax unified
 820              		.thumb
 821              		.thumb_func
 822              		.fpu fpv4-sp-d16
 824              	osKernelGetTickFreq:
 825              	.LFB114:
 363:Middlewares/Third_Party/FreeRTOS/Source/CMSIS_RTOS_V2/cmsis_os2.c ****   return (configTICK_RATE_HZ);
 826              		.loc 1 363 0
 827              		.cfi_startproc
 828              		@ args = 0, pretend = 0, frame = 0
 829              		@ frame_needed = 0, uses_anonymous_args = 0
 830              		@ link register save eliminated.
 365:Middlewares/Third_Party/FreeRTOS/Source/CMSIS_RTOS_V2/cmsis_os2.c **** 
 831              		.loc 1 365 0
 832 0000 4FF47A70 		mov	r0, #1000
 833 0004 7047     		bx	lr
 834              		.cfi_endproc
 835              	.LFE114:
 837              		.section	.text.osKernelGetSysTimerCount,"ax",%progbits
 838              		.align	1
 839              		.global	osKernelGetSysTimerCount
 840              		.syntax unified
 841              		.thumb
 842              		.thumb_func
 843              		.fpu fpv4-sp-d16
 845              	osKernelGetSysTimerCount:
 846              	.LFB115:
 367:Middlewares/Third_Party/FreeRTOS/Source/CMSIS_RTOS_V2/cmsis_os2.c ****   TickType_t ticks;
 847              		.loc 1 367 0
 848              		.cfi_startproc
 849              		@ args = 0, pretend = 0, frame = 0
 850              		@ frame_needed = 0, uses_anonymous_args = 0
 851 0000 08B5     		push	{r3, lr}
 852              	.LCFI10:
 853              		.cfi_def_cfa_offset 8
 854              		.cfi_offset 3, -8
 855              		.cfi_offset 14, -4
 856              	.LBB370:
ARM GAS  /tmp/ccjsdB5h.s 			page 41


 857              	.LBB371:
 858              		.file 3 "Middlewares/Third_Party/FreeRTOS/Source/portable/GCC/ARM_CM4F/portmacro.h"
   1:Middlewares/Third_Party/FreeRTOS/Source/portable/GCC/ARM_CM4F/portmacro.h **** /*
   2:Middlewares/Third_Party/FreeRTOS/Source/portable/GCC/ARM_CM4F/portmacro.h ****  * FreeRTOS Kernel V10.0.1
   3:Middlewares/Third_Party/FreeRTOS/Source/portable/GCC/ARM_CM4F/portmacro.h ****  * Copyright (C) 2017 Amazon.com, Inc. or its affiliates.  All Rights Reserved.
   4:Middlewares/Third_Party/FreeRTOS/Source/portable/GCC/ARM_CM4F/portmacro.h ****  *
   5:Middlewares/Third_Party/FreeRTOS/Source/portable/GCC/ARM_CM4F/portmacro.h ****  * Permission is hereby granted, free of charge, to any person obtaining a copy of
   6:Middlewares/Third_Party/FreeRTOS/Source/portable/GCC/ARM_CM4F/portmacro.h ****  * this software and associated documentation files (the "Software"), to deal in
   7:Middlewares/Third_Party/FreeRTOS/Source/portable/GCC/ARM_CM4F/portmacro.h ****  * the Software without restriction, including without limitation the rights to
   8:Middlewares/Third_Party/FreeRTOS/Source/portable/GCC/ARM_CM4F/portmacro.h ****  * use, copy, modify, merge, publish, distribute, sublicense, and/or sell copies of
   9:Middlewares/Third_Party/FreeRTOS/Source/portable/GCC/ARM_CM4F/portmacro.h ****  * the Software, and to permit persons to whom the Software is furnished to do so,
  10:Middlewares/Third_Party/FreeRTOS/Source/portable/GCC/ARM_CM4F/portmacro.h ****  * subject to the following conditions:
  11:Middlewares/Third_Party/FreeRTOS/Source/portable/GCC/ARM_CM4F/portmacro.h ****  *
  12:Middlewares/Third_Party/FreeRTOS/Source/portable/GCC/ARM_CM4F/portmacro.h ****  * The above copyright notice and this permission notice shall be included in all
  13:Middlewares/Third_Party/FreeRTOS/Source/portable/GCC/ARM_CM4F/portmacro.h ****  * copies or substantial portions of the Software.
  14:Middlewares/Third_Party/FreeRTOS/Source/portable/GCC/ARM_CM4F/portmacro.h ****  *
  15:Middlewares/Third_Party/FreeRTOS/Source/portable/GCC/ARM_CM4F/portmacro.h ****  * THE SOFTWARE IS PROVIDED "AS IS", WITHOUT WARRANTY OF ANY KIND, EXPRESS OR
  16:Middlewares/Third_Party/FreeRTOS/Source/portable/GCC/ARM_CM4F/portmacro.h ****  * IMPLIED, INCLUDING BUT NOT LIMITED TO THE WARRANTIES OF MERCHANTABILITY, FITNESS
  17:Middlewares/Third_Party/FreeRTOS/Source/portable/GCC/ARM_CM4F/portmacro.h ****  * FOR A PARTICULAR PURPOSE AND NONINFRINGEMENT. IN NO EVENT SHALL THE AUTHORS OR
  18:Middlewares/Third_Party/FreeRTOS/Source/portable/GCC/ARM_CM4F/portmacro.h ****  * COPYRIGHT HOLDERS BE LIABLE FOR ANY CLAIM, DAMAGES OR OTHER LIABILITY, WHETHER
  19:Middlewares/Third_Party/FreeRTOS/Source/portable/GCC/ARM_CM4F/portmacro.h ****  * IN AN ACTION OF CONTRACT, TORT OR OTHERWISE, ARISING FROM, OUT OF OR IN
  20:Middlewares/Third_Party/FreeRTOS/Source/portable/GCC/ARM_CM4F/portmacro.h ****  * CONNECTION WITH THE SOFTWARE OR THE USE OR OTHER DEALINGS IN THE SOFTWARE.
  21:Middlewares/Third_Party/FreeRTOS/Source/portable/GCC/ARM_CM4F/portmacro.h ****  *
  22:Middlewares/Third_Party/FreeRTOS/Source/portable/GCC/ARM_CM4F/portmacro.h ****  * http://www.FreeRTOS.org
  23:Middlewares/Third_Party/FreeRTOS/Source/portable/GCC/ARM_CM4F/portmacro.h ****  * http://aws.amazon.com/freertos
  24:Middlewares/Third_Party/FreeRTOS/Source/portable/GCC/ARM_CM4F/portmacro.h ****  *
  25:Middlewares/Third_Party/FreeRTOS/Source/portable/GCC/ARM_CM4F/portmacro.h ****  * 1 tab == 4 spaces!
  26:Middlewares/Third_Party/FreeRTOS/Source/portable/GCC/ARM_CM4F/portmacro.h ****  */
  27:Middlewares/Third_Party/FreeRTOS/Source/portable/GCC/ARM_CM4F/portmacro.h **** 
  28:Middlewares/Third_Party/FreeRTOS/Source/portable/GCC/ARM_CM4F/portmacro.h **** 
  29:Middlewares/Third_Party/FreeRTOS/Source/portable/GCC/ARM_CM4F/portmacro.h **** #ifndef PORTMACRO_H
  30:Middlewares/Third_Party/FreeRTOS/Source/portable/GCC/ARM_CM4F/portmacro.h **** #define PORTMACRO_H
  31:Middlewares/Third_Party/FreeRTOS/Source/portable/GCC/ARM_CM4F/portmacro.h **** 
  32:Middlewares/Third_Party/FreeRTOS/Source/portable/GCC/ARM_CM4F/portmacro.h **** #ifdef __cplusplus
  33:Middlewares/Third_Party/FreeRTOS/Source/portable/GCC/ARM_CM4F/portmacro.h **** extern "C" {
  34:Middlewares/Third_Party/FreeRTOS/Source/portable/GCC/ARM_CM4F/portmacro.h **** #endif
  35:Middlewares/Third_Party/FreeRTOS/Source/portable/GCC/ARM_CM4F/portmacro.h **** 
  36:Middlewares/Third_Party/FreeRTOS/Source/portable/GCC/ARM_CM4F/portmacro.h **** /*-----------------------------------------------------------
  37:Middlewares/Third_Party/FreeRTOS/Source/portable/GCC/ARM_CM4F/portmacro.h ****  * Port specific definitions.
  38:Middlewares/Third_Party/FreeRTOS/Source/portable/GCC/ARM_CM4F/portmacro.h ****  *
  39:Middlewares/Third_Party/FreeRTOS/Source/portable/GCC/ARM_CM4F/portmacro.h ****  * The settings in this file configure FreeRTOS correctly for the
  40:Middlewares/Third_Party/FreeRTOS/Source/portable/GCC/ARM_CM4F/portmacro.h ****  * given hardware and compiler.
  41:Middlewares/Third_Party/FreeRTOS/Source/portable/GCC/ARM_CM4F/portmacro.h ****  *
  42:Middlewares/Third_Party/FreeRTOS/Source/portable/GCC/ARM_CM4F/portmacro.h ****  * These settings should not be altered.
  43:Middlewares/Third_Party/FreeRTOS/Source/portable/GCC/ARM_CM4F/portmacro.h ****  *-----------------------------------------------------------
  44:Middlewares/Third_Party/FreeRTOS/Source/portable/GCC/ARM_CM4F/portmacro.h ****  */
  45:Middlewares/Third_Party/FreeRTOS/Source/portable/GCC/ARM_CM4F/portmacro.h **** 
  46:Middlewares/Third_Party/FreeRTOS/Source/portable/GCC/ARM_CM4F/portmacro.h **** /* Type definitions. */
  47:Middlewares/Third_Party/FreeRTOS/Source/portable/GCC/ARM_CM4F/portmacro.h **** #define portCHAR		char
  48:Middlewares/Third_Party/FreeRTOS/Source/portable/GCC/ARM_CM4F/portmacro.h **** #define portFLOAT		float
  49:Middlewares/Third_Party/FreeRTOS/Source/portable/GCC/ARM_CM4F/portmacro.h **** #define portDOUBLE		double
  50:Middlewares/Third_Party/FreeRTOS/Source/portable/GCC/ARM_CM4F/portmacro.h **** #define portLONG		long
  51:Middlewares/Third_Party/FreeRTOS/Source/portable/GCC/ARM_CM4F/portmacro.h **** #define portSHORT		short
  52:Middlewares/Third_Party/FreeRTOS/Source/portable/GCC/ARM_CM4F/portmacro.h **** #define portSTACK_TYPE	uint32_t
  53:Middlewares/Third_Party/FreeRTOS/Source/portable/GCC/ARM_CM4F/portmacro.h **** #define portBASE_TYPE	long
  54:Middlewares/Third_Party/FreeRTOS/Source/portable/GCC/ARM_CM4F/portmacro.h **** 
  55:Middlewares/Third_Party/FreeRTOS/Source/portable/GCC/ARM_CM4F/portmacro.h **** typedef portSTACK_TYPE StackType_t;
ARM GAS  /tmp/ccjsdB5h.s 			page 42


  56:Middlewares/Third_Party/FreeRTOS/Source/portable/GCC/ARM_CM4F/portmacro.h **** typedef long BaseType_t;
  57:Middlewares/Third_Party/FreeRTOS/Source/portable/GCC/ARM_CM4F/portmacro.h **** typedef unsigned long UBaseType_t;
  58:Middlewares/Third_Party/FreeRTOS/Source/portable/GCC/ARM_CM4F/portmacro.h **** 
  59:Middlewares/Third_Party/FreeRTOS/Source/portable/GCC/ARM_CM4F/portmacro.h **** #if( configUSE_16_BIT_TICKS == 1 )
  60:Middlewares/Third_Party/FreeRTOS/Source/portable/GCC/ARM_CM4F/portmacro.h **** 	typedef uint16_t TickType_t;
  61:Middlewares/Third_Party/FreeRTOS/Source/portable/GCC/ARM_CM4F/portmacro.h **** 	#define portMAX_DELAY ( TickType_t ) 0xffff
  62:Middlewares/Third_Party/FreeRTOS/Source/portable/GCC/ARM_CM4F/portmacro.h **** #else
  63:Middlewares/Third_Party/FreeRTOS/Source/portable/GCC/ARM_CM4F/portmacro.h **** 	typedef uint32_t TickType_t;
  64:Middlewares/Third_Party/FreeRTOS/Source/portable/GCC/ARM_CM4F/portmacro.h **** 	#define portMAX_DELAY ( TickType_t ) 0xffffffffUL
  65:Middlewares/Third_Party/FreeRTOS/Source/portable/GCC/ARM_CM4F/portmacro.h **** 
  66:Middlewares/Third_Party/FreeRTOS/Source/portable/GCC/ARM_CM4F/portmacro.h **** 	/* 32-bit tick type on a 32-bit architecture, so reads of the tick count do
  67:Middlewares/Third_Party/FreeRTOS/Source/portable/GCC/ARM_CM4F/portmacro.h **** 	not need to be guarded with a critical section. */
  68:Middlewares/Third_Party/FreeRTOS/Source/portable/GCC/ARM_CM4F/portmacro.h **** 	#define portTICK_TYPE_IS_ATOMIC 1
  69:Middlewares/Third_Party/FreeRTOS/Source/portable/GCC/ARM_CM4F/portmacro.h **** #endif
  70:Middlewares/Third_Party/FreeRTOS/Source/portable/GCC/ARM_CM4F/portmacro.h **** /*-----------------------------------------------------------*/
  71:Middlewares/Third_Party/FreeRTOS/Source/portable/GCC/ARM_CM4F/portmacro.h **** 
  72:Middlewares/Third_Party/FreeRTOS/Source/portable/GCC/ARM_CM4F/portmacro.h **** /* Architecture specifics. */
  73:Middlewares/Third_Party/FreeRTOS/Source/portable/GCC/ARM_CM4F/portmacro.h **** #define portSTACK_GROWTH			( -1 )
  74:Middlewares/Third_Party/FreeRTOS/Source/portable/GCC/ARM_CM4F/portmacro.h **** #define portTICK_PERIOD_MS			( ( TickType_t ) 1000 / configTICK_RATE_HZ )
  75:Middlewares/Third_Party/FreeRTOS/Source/portable/GCC/ARM_CM4F/portmacro.h **** #define portBYTE_ALIGNMENT			8
  76:Middlewares/Third_Party/FreeRTOS/Source/portable/GCC/ARM_CM4F/portmacro.h **** /*-----------------------------------------------------------*/
  77:Middlewares/Third_Party/FreeRTOS/Source/portable/GCC/ARM_CM4F/portmacro.h **** 
  78:Middlewares/Third_Party/FreeRTOS/Source/portable/GCC/ARM_CM4F/portmacro.h **** /* Scheduler utilities. */
  79:Middlewares/Third_Party/FreeRTOS/Source/portable/GCC/ARM_CM4F/portmacro.h **** #define portYIELD() 															\
  80:Middlewares/Third_Party/FreeRTOS/Source/portable/GCC/ARM_CM4F/portmacro.h **** {																				\
  81:Middlewares/Third_Party/FreeRTOS/Source/portable/GCC/ARM_CM4F/portmacro.h **** 	/* Set a PendSV to request a context switch. */								\
  82:Middlewares/Third_Party/FreeRTOS/Source/portable/GCC/ARM_CM4F/portmacro.h **** 	portNVIC_INT_CTRL_REG = portNVIC_PENDSVSET_BIT;								\
  83:Middlewares/Third_Party/FreeRTOS/Source/portable/GCC/ARM_CM4F/portmacro.h **** 																				\
  84:Middlewares/Third_Party/FreeRTOS/Source/portable/GCC/ARM_CM4F/portmacro.h **** 	/* Barriers are normally not required but do ensure the code is completely	\
  85:Middlewares/Third_Party/FreeRTOS/Source/portable/GCC/ARM_CM4F/portmacro.h **** 	within the specified behaviour for the architecture. */						\
  86:Middlewares/Third_Party/FreeRTOS/Source/portable/GCC/ARM_CM4F/portmacro.h **** 	__asm volatile( "dsb" ::: "memory" );										\
  87:Middlewares/Third_Party/FreeRTOS/Source/portable/GCC/ARM_CM4F/portmacro.h **** 	__asm volatile( "isb" );													\
  88:Middlewares/Third_Party/FreeRTOS/Source/portable/GCC/ARM_CM4F/portmacro.h **** }
  89:Middlewares/Third_Party/FreeRTOS/Source/portable/GCC/ARM_CM4F/portmacro.h **** 
  90:Middlewares/Third_Party/FreeRTOS/Source/portable/GCC/ARM_CM4F/portmacro.h **** #define portNVIC_INT_CTRL_REG		( * ( ( volatile uint32_t * ) 0xe000ed04 ) )
  91:Middlewares/Third_Party/FreeRTOS/Source/portable/GCC/ARM_CM4F/portmacro.h **** #define portNVIC_PENDSVSET_BIT		( 1UL << 28UL )
  92:Middlewares/Third_Party/FreeRTOS/Source/portable/GCC/ARM_CM4F/portmacro.h **** #define portEND_SWITCHING_ISR( xSwitchRequired ) if( xSwitchRequired != pdFALSE ) portYIELD()
  93:Middlewares/Third_Party/FreeRTOS/Source/portable/GCC/ARM_CM4F/portmacro.h **** #define portYIELD_FROM_ISR( x ) portEND_SWITCHING_ISR( x )
  94:Middlewares/Third_Party/FreeRTOS/Source/portable/GCC/ARM_CM4F/portmacro.h **** /*-----------------------------------------------------------*/
  95:Middlewares/Third_Party/FreeRTOS/Source/portable/GCC/ARM_CM4F/portmacro.h **** 
  96:Middlewares/Third_Party/FreeRTOS/Source/portable/GCC/ARM_CM4F/portmacro.h **** /* Critical section management. */
  97:Middlewares/Third_Party/FreeRTOS/Source/portable/GCC/ARM_CM4F/portmacro.h **** extern void vPortEnterCritical( void );
  98:Middlewares/Third_Party/FreeRTOS/Source/portable/GCC/ARM_CM4F/portmacro.h **** extern void vPortExitCritical( void );
  99:Middlewares/Third_Party/FreeRTOS/Source/portable/GCC/ARM_CM4F/portmacro.h **** #define portSET_INTERRUPT_MASK_FROM_ISR()		ulPortRaiseBASEPRI()
 100:Middlewares/Third_Party/FreeRTOS/Source/portable/GCC/ARM_CM4F/portmacro.h **** #define portCLEAR_INTERRUPT_MASK_FROM_ISR(x)	vPortSetBASEPRI(x)
 101:Middlewares/Third_Party/FreeRTOS/Source/portable/GCC/ARM_CM4F/portmacro.h **** #define portDISABLE_INTERRUPTS()				vPortRaiseBASEPRI()
 102:Middlewares/Third_Party/FreeRTOS/Source/portable/GCC/ARM_CM4F/portmacro.h **** #define portENABLE_INTERRUPTS()					vPortSetBASEPRI(0)
 103:Middlewares/Third_Party/FreeRTOS/Source/portable/GCC/ARM_CM4F/portmacro.h **** #define portENTER_CRITICAL()					vPortEnterCritical()
 104:Middlewares/Third_Party/FreeRTOS/Source/portable/GCC/ARM_CM4F/portmacro.h **** #define portEXIT_CRITICAL()						vPortExitCritical()
 105:Middlewares/Third_Party/FreeRTOS/Source/portable/GCC/ARM_CM4F/portmacro.h **** 
 106:Middlewares/Third_Party/FreeRTOS/Source/portable/GCC/ARM_CM4F/portmacro.h **** /*-----------------------------------------------------------*/
 107:Middlewares/Third_Party/FreeRTOS/Source/portable/GCC/ARM_CM4F/portmacro.h **** 
 108:Middlewares/Third_Party/FreeRTOS/Source/portable/GCC/ARM_CM4F/portmacro.h **** /* Task function macros as described on the FreeRTOS.org WEB site.  These are
 109:Middlewares/Third_Party/FreeRTOS/Source/portable/GCC/ARM_CM4F/portmacro.h **** not necessary for to use this port.  They are defined so the common demo files
 110:Middlewares/Third_Party/FreeRTOS/Source/portable/GCC/ARM_CM4F/portmacro.h **** (which build with all the ports) will build. */
 111:Middlewares/Third_Party/FreeRTOS/Source/portable/GCC/ARM_CM4F/portmacro.h **** #define portTASK_FUNCTION_PROTO( vFunction, pvParameters ) void vFunction( void *pvParameters )
 112:Middlewares/Third_Party/FreeRTOS/Source/portable/GCC/ARM_CM4F/portmacro.h **** #define portTASK_FUNCTION( vFunction, pvParameters ) void vFunction( void *pvParameters )
ARM GAS  /tmp/ccjsdB5h.s 			page 43


 113:Middlewares/Third_Party/FreeRTOS/Source/portable/GCC/ARM_CM4F/portmacro.h **** /*-----------------------------------------------------------*/
 114:Middlewares/Third_Party/FreeRTOS/Source/portable/GCC/ARM_CM4F/portmacro.h **** 
 115:Middlewares/Third_Party/FreeRTOS/Source/portable/GCC/ARM_CM4F/portmacro.h **** /* Tickless idle/low power functionality. */
 116:Middlewares/Third_Party/FreeRTOS/Source/portable/GCC/ARM_CM4F/portmacro.h **** #ifndef portSUPPRESS_TICKS_AND_SLEEP
 117:Middlewares/Third_Party/FreeRTOS/Source/portable/GCC/ARM_CM4F/portmacro.h **** 	extern void vPortSuppressTicksAndSleep( TickType_t xExpectedIdleTime );
 118:Middlewares/Third_Party/FreeRTOS/Source/portable/GCC/ARM_CM4F/portmacro.h **** 	#define portSUPPRESS_TICKS_AND_SLEEP( xExpectedIdleTime ) vPortSuppressTicksAndSleep( xExpectedIdl
 119:Middlewares/Third_Party/FreeRTOS/Source/portable/GCC/ARM_CM4F/portmacro.h **** #endif
 120:Middlewares/Third_Party/FreeRTOS/Source/portable/GCC/ARM_CM4F/portmacro.h **** /*-----------------------------------------------------------*/
 121:Middlewares/Third_Party/FreeRTOS/Source/portable/GCC/ARM_CM4F/portmacro.h **** 
 122:Middlewares/Third_Party/FreeRTOS/Source/portable/GCC/ARM_CM4F/portmacro.h **** /* Architecture specific optimisations. */
 123:Middlewares/Third_Party/FreeRTOS/Source/portable/GCC/ARM_CM4F/portmacro.h **** #ifndef configUSE_PORT_OPTIMISED_TASK_SELECTION
 124:Middlewares/Third_Party/FreeRTOS/Source/portable/GCC/ARM_CM4F/portmacro.h **** 	#define configUSE_PORT_OPTIMISED_TASK_SELECTION 1
 125:Middlewares/Third_Party/FreeRTOS/Source/portable/GCC/ARM_CM4F/portmacro.h **** #endif
 126:Middlewares/Third_Party/FreeRTOS/Source/portable/GCC/ARM_CM4F/portmacro.h **** 
 127:Middlewares/Third_Party/FreeRTOS/Source/portable/GCC/ARM_CM4F/portmacro.h **** #if configUSE_PORT_OPTIMISED_TASK_SELECTION == 1
 128:Middlewares/Third_Party/FreeRTOS/Source/portable/GCC/ARM_CM4F/portmacro.h **** 
 129:Middlewares/Third_Party/FreeRTOS/Source/portable/GCC/ARM_CM4F/portmacro.h **** 	/* Generic helper function. */
 130:Middlewares/Third_Party/FreeRTOS/Source/portable/GCC/ARM_CM4F/portmacro.h **** 	__attribute__( ( always_inline ) ) static inline uint8_t ucPortCountLeadingZeros( uint32_t ulBitma
 131:Middlewares/Third_Party/FreeRTOS/Source/portable/GCC/ARM_CM4F/portmacro.h **** 	{
 132:Middlewares/Third_Party/FreeRTOS/Source/portable/GCC/ARM_CM4F/portmacro.h **** 	uint8_t ucReturn;
 133:Middlewares/Third_Party/FreeRTOS/Source/portable/GCC/ARM_CM4F/portmacro.h **** 
 134:Middlewares/Third_Party/FreeRTOS/Source/portable/GCC/ARM_CM4F/portmacro.h **** 		__asm volatile ( "clz %0, %1" : "=r" ( ucReturn ) : "r" ( ulBitmap ) : "memory" );
 135:Middlewares/Third_Party/FreeRTOS/Source/portable/GCC/ARM_CM4F/portmacro.h **** 		return ucReturn;
 136:Middlewares/Third_Party/FreeRTOS/Source/portable/GCC/ARM_CM4F/portmacro.h **** 	}
 137:Middlewares/Third_Party/FreeRTOS/Source/portable/GCC/ARM_CM4F/portmacro.h **** 
 138:Middlewares/Third_Party/FreeRTOS/Source/portable/GCC/ARM_CM4F/portmacro.h **** 	/* Check the configuration. */
 139:Middlewares/Third_Party/FreeRTOS/Source/portable/GCC/ARM_CM4F/portmacro.h **** 	#if( configMAX_PRIORITIES > 32 )
 140:Middlewares/Third_Party/FreeRTOS/Source/portable/GCC/ARM_CM4F/portmacro.h **** 		#error configUSE_PORT_OPTIMISED_TASK_SELECTION can only be set to 1 when configMAX_PRIORITIES is 
 141:Middlewares/Third_Party/FreeRTOS/Source/portable/GCC/ARM_CM4F/portmacro.h **** 	#endif
 142:Middlewares/Third_Party/FreeRTOS/Source/portable/GCC/ARM_CM4F/portmacro.h **** 
 143:Middlewares/Third_Party/FreeRTOS/Source/portable/GCC/ARM_CM4F/portmacro.h **** 	/* Store/clear the ready priorities in a bit map. */
 144:Middlewares/Third_Party/FreeRTOS/Source/portable/GCC/ARM_CM4F/portmacro.h **** 	#define portRECORD_READY_PRIORITY( uxPriority, uxReadyPriorities ) ( uxReadyPriorities ) |= ( 1UL 
 145:Middlewares/Third_Party/FreeRTOS/Source/portable/GCC/ARM_CM4F/portmacro.h **** 	#define portRESET_READY_PRIORITY( uxPriority, uxReadyPriorities ) ( uxReadyPriorities ) &= ~( 1UL 
 146:Middlewares/Third_Party/FreeRTOS/Source/portable/GCC/ARM_CM4F/portmacro.h **** 
 147:Middlewares/Third_Party/FreeRTOS/Source/portable/GCC/ARM_CM4F/portmacro.h **** 	/*-----------------------------------------------------------*/
 148:Middlewares/Third_Party/FreeRTOS/Source/portable/GCC/ARM_CM4F/portmacro.h **** 
 149:Middlewares/Third_Party/FreeRTOS/Source/portable/GCC/ARM_CM4F/portmacro.h **** 	#define portGET_HIGHEST_PRIORITY( uxTopPriority, uxReadyPriorities ) uxTopPriority = ( 31UL - ( ui
 150:Middlewares/Third_Party/FreeRTOS/Source/portable/GCC/ARM_CM4F/portmacro.h **** 
 151:Middlewares/Third_Party/FreeRTOS/Source/portable/GCC/ARM_CM4F/portmacro.h **** #endif /* configUSE_PORT_OPTIMISED_TASK_SELECTION */
 152:Middlewares/Third_Party/FreeRTOS/Source/portable/GCC/ARM_CM4F/portmacro.h **** 
 153:Middlewares/Third_Party/FreeRTOS/Source/portable/GCC/ARM_CM4F/portmacro.h **** /*-----------------------------------------------------------*/
 154:Middlewares/Third_Party/FreeRTOS/Source/portable/GCC/ARM_CM4F/portmacro.h **** 
 155:Middlewares/Third_Party/FreeRTOS/Source/portable/GCC/ARM_CM4F/portmacro.h **** #ifdef configASSERT
 156:Middlewares/Third_Party/FreeRTOS/Source/portable/GCC/ARM_CM4F/portmacro.h **** 	void vPortValidateInterruptPriority( void );
 157:Middlewares/Third_Party/FreeRTOS/Source/portable/GCC/ARM_CM4F/portmacro.h **** 	#define portASSERT_IF_INTERRUPT_PRIORITY_INVALID() 	vPortValidateInterruptPriority()
 158:Middlewares/Third_Party/FreeRTOS/Source/portable/GCC/ARM_CM4F/portmacro.h **** #endif
 159:Middlewares/Third_Party/FreeRTOS/Source/portable/GCC/ARM_CM4F/portmacro.h **** 
 160:Middlewares/Third_Party/FreeRTOS/Source/portable/GCC/ARM_CM4F/portmacro.h **** /* portNOP() is not required by this port. */
 161:Middlewares/Third_Party/FreeRTOS/Source/portable/GCC/ARM_CM4F/portmacro.h **** #define portNOP()
 162:Middlewares/Third_Party/FreeRTOS/Source/portable/GCC/ARM_CM4F/portmacro.h **** 
 163:Middlewares/Third_Party/FreeRTOS/Source/portable/GCC/ARM_CM4F/portmacro.h **** #define portINLINE	__inline
 164:Middlewares/Third_Party/FreeRTOS/Source/portable/GCC/ARM_CM4F/portmacro.h **** 
 165:Middlewares/Third_Party/FreeRTOS/Source/portable/GCC/ARM_CM4F/portmacro.h **** #ifndef portFORCE_INLINE
 166:Middlewares/Third_Party/FreeRTOS/Source/portable/GCC/ARM_CM4F/portmacro.h **** 	#define portFORCE_INLINE inline __attribute__(( always_inline))
 167:Middlewares/Third_Party/FreeRTOS/Source/portable/GCC/ARM_CM4F/portmacro.h **** #endif
 168:Middlewares/Third_Party/FreeRTOS/Source/portable/GCC/ARM_CM4F/portmacro.h **** 
 169:Middlewares/Third_Party/FreeRTOS/Source/portable/GCC/ARM_CM4F/portmacro.h **** portFORCE_INLINE static BaseType_t xPortIsInsideInterrupt( void )
ARM GAS  /tmp/ccjsdB5h.s 			page 44


 170:Middlewares/Third_Party/FreeRTOS/Source/portable/GCC/ARM_CM4F/portmacro.h **** {
 171:Middlewares/Third_Party/FreeRTOS/Source/portable/GCC/ARM_CM4F/portmacro.h **** uint32_t ulCurrentInterrupt;
 172:Middlewares/Third_Party/FreeRTOS/Source/portable/GCC/ARM_CM4F/portmacro.h **** BaseType_t xReturn;
 173:Middlewares/Third_Party/FreeRTOS/Source/portable/GCC/ARM_CM4F/portmacro.h **** 
 174:Middlewares/Third_Party/FreeRTOS/Source/portable/GCC/ARM_CM4F/portmacro.h **** 	/* Obtain the number of the currently executing interrupt. */
 175:Middlewares/Third_Party/FreeRTOS/Source/portable/GCC/ARM_CM4F/portmacro.h **** 	__asm volatile( "mrs %0, ipsr" : "=r"( ulCurrentInterrupt ) :: "memory" );
 176:Middlewares/Third_Party/FreeRTOS/Source/portable/GCC/ARM_CM4F/portmacro.h **** 
 177:Middlewares/Third_Party/FreeRTOS/Source/portable/GCC/ARM_CM4F/portmacro.h **** 	if( ulCurrentInterrupt == 0 )
 178:Middlewares/Third_Party/FreeRTOS/Source/portable/GCC/ARM_CM4F/portmacro.h **** 	{
 179:Middlewares/Third_Party/FreeRTOS/Source/portable/GCC/ARM_CM4F/portmacro.h **** 		xReturn = pdFALSE;
 180:Middlewares/Third_Party/FreeRTOS/Source/portable/GCC/ARM_CM4F/portmacro.h **** 	}
 181:Middlewares/Third_Party/FreeRTOS/Source/portable/GCC/ARM_CM4F/portmacro.h **** 	else
 182:Middlewares/Third_Party/FreeRTOS/Source/portable/GCC/ARM_CM4F/portmacro.h **** 	{
 183:Middlewares/Third_Party/FreeRTOS/Source/portable/GCC/ARM_CM4F/portmacro.h **** 		xReturn = pdTRUE;
 184:Middlewares/Third_Party/FreeRTOS/Source/portable/GCC/ARM_CM4F/portmacro.h **** 	}
 185:Middlewares/Third_Party/FreeRTOS/Source/portable/GCC/ARM_CM4F/portmacro.h **** 
 186:Middlewares/Third_Party/FreeRTOS/Source/portable/GCC/ARM_CM4F/portmacro.h **** 	return xReturn;
 187:Middlewares/Third_Party/FreeRTOS/Source/portable/GCC/ARM_CM4F/portmacro.h **** }
 188:Middlewares/Third_Party/FreeRTOS/Source/portable/GCC/ARM_CM4F/portmacro.h **** 
 189:Middlewares/Third_Party/FreeRTOS/Source/portable/GCC/ARM_CM4F/portmacro.h **** /*-----------------------------------------------------------*/
 190:Middlewares/Third_Party/FreeRTOS/Source/portable/GCC/ARM_CM4F/portmacro.h **** 
 191:Middlewares/Third_Party/FreeRTOS/Source/portable/GCC/ARM_CM4F/portmacro.h **** portFORCE_INLINE static void vPortRaiseBASEPRI( void )
 192:Middlewares/Third_Party/FreeRTOS/Source/portable/GCC/ARM_CM4F/portmacro.h **** {
 193:Middlewares/Third_Party/FreeRTOS/Source/portable/GCC/ARM_CM4F/portmacro.h **** uint32_t ulNewBASEPRI;
 194:Middlewares/Third_Party/FreeRTOS/Source/portable/GCC/ARM_CM4F/portmacro.h **** 
 195:Middlewares/Third_Party/FreeRTOS/Source/portable/GCC/ARM_CM4F/portmacro.h **** 	__asm volatile
 859              		.loc 3 195 0
 860              		.syntax unified
 861              	@ 195 "Middlewares/Third_Party/FreeRTOS/Source/portable/GCC/ARM_CM4F/portmacro.h" 1
 862 0002 4FF05003 			mov r3, #80												
 863 0006 83F31188 		msr basepri, r3											
 864 000a BFF36F8F 		isb														
 865 000e BFF34F8F 		dsb														
 866              	
 867              	@ 0 "" 2
 868              		.thumb
 869              		.syntax unified
 870              	.LBE371:
 871              	.LBE370:
 373:Middlewares/Third_Party/FreeRTOS/Source/CMSIS_RTOS_V2/cmsis_os2.c **** 
 872              		.loc 1 373 0
 873 0012 FFF7FEFF 		bl	xTaskGetTickCount
 874              	.LVL46:
 375:Middlewares/Third_Party/FreeRTOS/Source/CMSIS_RTOS_V2/cmsis_os2.c ****   portENABLE_INTERRUPTS();
 875              		.loc 1 375 0
 876 0016 064B     		ldr	r3, .L94
 877 0018 1B68     		ldr	r3, [r3]
 878 001a 064A     		ldr	r2, .L94+4
 879 001c A2FB0323 		umull	r2, r3, r2, r3
 880 0020 9B09     		lsrs	r3, r3, #6
 881 0022 00FB03F0 		mul	r0, r0, r3
 882              	.LVL47:
 883              	.LBB372:
 884              	.LBB373:
 196:Middlewares/Third_Party/FreeRTOS/Source/portable/GCC/ARM_CM4F/portmacro.h **** 	(
 197:Middlewares/Third_Party/FreeRTOS/Source/portable/GCC/ARM_CM4F/portmacro.h **** 		"	mov %0, %1												\n"	\
 198:Middlewares/Third_Party/FreeRTOS/Source/portable/GCC/ARM_CM4F/portmacro.h **** 		"	msr basepri, %0											\n" \
ARM GAS  /tmp/ccjsdB5h.s 			page 45


 199:Middlewares/Third_Party/FreeRTOS/Source/portable/GCC/ARM_CM4F/portmacro.h **** 		"	isb														\n" \
 200:Middlewares/Third_Party/FreeRTOS/Source/portable/GCC/ARM_CM4F/portmacro.h **** 		"	dsb														\n" \
 201:Middlewares/Third_Party/FreeRTOS/Source/portable/GCC/ARM_CM4F/portmacro.h **** 		:"=r" (ulNewBASEPRI) : "i" ( configMAX_SYSCALL_INTERRUPT_PRIORITY ) : "memory"
 202:Middlewares/Third_Party/FreeRTOS/Source/portable/GCC/ARM_CM4F/portmacro.h **** 	);
 203:Middlewares/Third_Party/FreeRTOS/Source/portable/GCC/ARM_CM4F/portmacro.h **** }
 204:Middlewares/Third_Party/FreeRTOS/Source/portable/GCC/ARM_CM4F/portmacro.h **** 
 205:Middlewares/Third_Party/FreeRTOS/Source/portable/GCC/ARM_CM4F/portmacro.h **** /*-----------------------------------------------------------*/
 206:Middlewares/Third_Party/FreeRTOS/Source/portable/GCC/ARM_CM4F/portmacro.h **** 
 207:Middlewares/Third_Party/FreeRTOS/Source/portable/GCC/ARM_CM4F/portmacro.h **** portFORCE_INLINE static uint32_t ulPortRaiseBASEPRI( void )
 208:Middlewares/Third_Party/FreeRTOS/Source/portable/GCC/ARM_CM4F/portmacro.h **** {
 209:Middlewares/Third_Party/FreeRTOS/Source/portable/GCC/ARM_CM4F/portmacro.h **** uint32_t ulOriginalBASEPRI, ulNewBASEPRI;
 210:Middlewares/Third_Party/FreeRTOS/Source/portable/GCC/ARM_CM4F/portmacro.h **** 
 211:Middlewares/Third_Party/FreeRTOS/Source/portable/GCC/ARM_CM4F/portmacro.h **** 	__asm volatile
 212:Middlewares/Third_Party/FreeRTOS/Source/portable/GCC/ARM_CM4F/portmacro.h **** 	(
 213:Middlewares/Third_Party/FreeRTOS/Source/portable/GCC/ARM_CM4F/portmacro.h **** 		"	mrs %0, basepri											\n" \
 214:Middlewares/Third_Party/FreeRTOS/Source/portable/GCC/ARM_CM4F/portmacro.h **** 		"	mov %1, %2												\n"	\
 215:Middlewares/Third_Party/FreeRTOS/Source/portable/GCC/ARM_CM4F/portmacro.h **** 		"	msr basepri, %1											\n" \
 216:Middlewares/Third_Party/FreeRTOS/Source/portable/GCC/ARM_CM4F/portmacro.h **** 		"	isb														\n" \
 217:Middlewares/Third_Party/FreeRTOS/Source/portable/GCC/ARM_CM4F/portmacro.h **** 		"	dsb														\n" \
 218:Middlewares/Third_Party/FreeRTOS/Source/portable/GCC/ARM_CM4F/portmacro.h **** 		:"=r" (ulOriginalBASEPRI), "=r" (ulNewBASEPRI) : "i" ( configMAX_SYSCALL_INTERRUPT_PRIORITY ) : "
 219:Middlewares/Third_Party/FreeRTOS/Source/portable/GCC/ARM_CM4F/portmacro.h **** 	);
 220:Middlewares/Third_Party/FreeRTOS/Source/portable/GCC/ARM_CM4F/portmacro.h **** 
 221:Middlewares/Third_Party/FreeRTOS/Source/portable/GCC/ARM_CM4F/portmacro.h **** 	/* This return will not be reached but is necessary to prevent compiler
 222:Middlewares/Third_Party/FreeRTOS/Source/portable/GCC/ARM_CM4F/portmacro.h **** 	warnings. */
 223:Middlewares/Third_Party/FreeRTOS/Source/portable/GCC/ARM_CM4F/portmacro.h **** 	return ulOriginalBASEPRI;
 224:Middlewares/Third_Party/FreeRTOS/Source/portable/GCC/ARM_CM4F/portmacro.h **** }
 225:Middlewares/Third_Party/FreeRTOS/Source/portable/GCC/ARM_CM4F/portmacro.h **** /*-----------------------------------------------------------*/
 226:Middlewares/Third_Party/FreeRTOS/Source/portable/GCC/ARM_CM4F/portmacro.h **** 
 227:Middlewares/Third_Party/FreeRTOS/Source/portable/GCC/ARM_CM4F/portmacro.h **** portFORCE_INLINE static void vPortSetBASEPRI( uint32_t ulNewMaskValue )
 228:Middlewares/Third_Party/FreeRTOS/Source/portable/GCC/ARM_CM4F/portmacro.h **** {
 229:Middlewares/Third_Party/FreeRTOS/Source/portable/GCC/ARM_CM4F/portmacro.h **** 	__asm volatile
 885              		.loc 3 229 0
 886 0026 0023     		movs	r3, #0
 887              		.syntax unified
 888              	@ 229 "Middlewares/Third_Party/FreeRTOS/Source/portable/GCC/ARM_CM4F/portmacro.h" 1
 889 0028 83F31188 			msr basepri, r3	
 890              	@ 0 "" 2
 891              	.LVL48:
 892              		.thumb
 893              		.syntax unified
 894              	.LBE373:
 895              	.LBE372:
 379:Middlewares/Third_Party/FreeRTOS/Source/CMSIS_RTOS_V2/cmsis_os2.c **** 
 896              		.loc 1 379 0
 897 002c 08BD     		pop	{r3, pc}
 898              	.L95:
 899 002e 00BF     		.align	2
 900              	.L94:
 901 0030 00000000 		.word	SystemCoreClock
 902 0034 D34D6210 		.word	274877907
 903              		.cfi_endproc
 904              	.LFE115:
 906              		.section	.text.osKernelGetSysTimerFreq,"ax",%progbits
 907              		.align	1
 908              		.global	osKernelGetSysTimerFreq
 909              		.syntax unified
 910              		.thumb
ARM GAS  /tmp/ccjsdB5h.s 			page 46


 911              		.thumb_func
 912              		.fpu fpv4-sp-d16
 914              	osKernelGetSysTimerFreq:
 915              	.LFB116:
 381:Middlewares/Third_Party/FreeRTOS/Source/CMSIS_RTOS_V2/cmsis_os2.c ****   return (configCPU_CLOCK_HZ);
 916              		.loc 1 381 0
 917              		.cfi_startproc
 918              		@ args = 0, pretend = 0, frame = 0
 919              		@ frame_needed = 0, uses_anonymous_args = 0
 920              		@ link register save eliminated.
 383:Middlewares/Third_Party/FreeRTOS/Source/CMSIS_RTOS_V2/cmsis_os2.c **** 
 921              		.loc 1 383 0
 922 0000 014B     		ldr	r3, .L97
 923 0002 1868     		ldr	r0, [r3]
 924 0004 7047     		bx	lr
 925              	.L98:
 926 0006 00BF     		.align	2
 927              	.L97:
 928 0008 00000000 		.word	SystemCoreClock
 929              		.cfi_endproc
 930              	.LFE116:
 932              		.section	.text.osThreadNew,"ax",%progbits
 933              		.align	1
 934              		.global	osThreadNew
 935              		.syntax unified
 936              		.thumb
 937              		.thumb_func
 938              		.fpu fpv4-sp-d16
 940              	osThreadNew:
 941              	.LFB117:
 387:Middlewares/Third_Party/FreeRTOS/Source/CMSIS_RTOS_V2/cmsis_os2.c ****   char empty;
 942              		.loc 1 387 0
 943              		.cfi_startproc
 944              		@ args = 0, pretend = 0, frame = 8
 945              		@ frame_needed = 0, uses_anonymous_args = 0
 946              	.LVL49:
 947 0000 F0B5     		push	{r4, r5, r6, r7, lr}
 948              	.LCFI11:
 949              		.cfi_def_cfa_offset 20
 950              		.cfi_offset 4, -20
 951              		.cfi_offset 5, -16
 952              		.cfi_offset 6, -12
 953              		.cfi_offset 7, -8
 954              		.cfi_offset 14, -4
 955 0002 87B0     		sub	sp, sp, #28
 956              	.LCFI12:
 957              		.cfi_def_cfa_offset 48
 395:Middlewares/Third_Party/FreeRTOS/Source/CMSIS_RTOS_V2/cmsis_os2.c **** 
 958              		.loc 1 395 0
 959 0004 0024     		movs	r4, #0
 960 0006 0494     		str	r4, [sp, #16]
 961              	.LBB374:
 962              	.LBB375:
 209:Drivers/CMSIS/Include/cmsis_gcc.h ****   return(result);
 963              		.loc 2 209 0
 964              		.syntax unified
 965              	@ 209 "Drivers/CMSIS/Include/cmsis_gcc.h" 1
ARM GAS  /tmp/ccjsdB5h.s 			page 47


 966 0008 EFF30584 		MRS r4, ipsr
 967              	@ 0 "" 2
 968              		.thumb
 969              		.syntax unified
 970              	.LBE375:
 971              	.LBE374:
 397:Middlewares/Third_Party/FreeRTOS/Source/CMSIS_RTOS_V2/cmsis_os2.c ****     stack = configMINIMAL_STACK_SIZE;
 972              		.loc 1 397 0
 973 000c DCB9     		cbnz	r4, .L100
 974              	.LBB376:
 975              	.LBB377:
 386:Drivers/CMSIS/Include/cmsis_gcc.h ****   return(result);
 976              		.loc 2 386 0
 977              		.syntax unified
 978              	@ 386 "Drivers/CMSIS/Include/cmsis_gcc.h" 1
 979 000e EFF31083 		MRS r3, primask
 980              	@ 0 "" 2
 981              		.thumb
 982              		.syntax unified
 983              	.LBE377:
 984              	.LBE376:
 397:Middlewares/Third_Party/FreeRTOS/Source/CMSIS_RTOS_V2/cmsis_os2.c ****     stack = configMINIMAL_STACK_SIZE;
 985              		.loc 1 397 0
 986 0012 C3B9     		cbnz	r3, .L100
 397:Middlewares/Third_Party/FreeRTOS/Source/CMSIS_RTOS_V2/cmsis_os2.c ****     stack = configMINIMAL_STACK_SIZE;
 987              		.loc 1 397 0 is_stmt 0 discriminator 2
 988 0014 2D4B     		ldr	r3, .L119
 989 0016 1B68     		ldr	r3, [r3]
 990 0018 022B     		cmp	r3, #2
 991 001a 10D0     		beq	.L117
 992              	.L101:
 397:Middlewares/Third_Party/FreeRTOS/Source/CMSIS_RTOS_V2/cmsis_os2.c ****     stack = configMINIMAL_STACK_SIZE;
 993              		.loc 1 397 0 discriminator 5
 994 001c 98B1     		cbz	r0, .L100
 995 001e 0B46     		mov	r3, r1
 996              	.LVL50:
 401:Middlewares/Third_Party/FreeRTOS/Source/CMSIS_RTOS_V2/cmsis_os2.c ****     name  = &empty;
 997              		.loc 1 401 0 is_stmt 1
 998 0020 0021     		movs	r1, #0
 999              	.LVL51:
 1000 0022 8DF81710 		strb	r1, [sp, #23]
 1001              	.LVL52:
 405:Middlewares/Third_Party/FreeRTOS/Source/CMSIS_RTOS_V2/cmsis_os2.c ****       if (attr->name != NULL) {
 1002              		.loc 1 405 0
 1003 0026 002A     		cmp	r2, #0
 1004 0028 3DD0     		beq	.L110
 406:Middlewares/Third_Party/FreeRTOS/Source/CMSIS_RTOS_V2/cmsis_os2.c ****         name = attr->name;
 1005              		.loc 1 406 0
 1006 002a 1168     		ldr	r1, [r2]
 1007 002c 71B1     		cbz	r1, .L118
 1008              	.L103:
 1009              	.LVL53:
 409:Middlewares/Third_Party/FreeRTOS/Source/CMSIS_RTOS_V2/cmsis_os2.c ****         prio = (UBaseType_t)attr->priority;
 1010              		.loc 1 409 0
 1011 002e 9469     		ldr	r4, [r2, #24]
 1012 0030 7CB1     		cbz	r4, .L112
 1013              	.LVL54:
ARM GAS  /tmp/ccjsdB5h.s 			page 48


 1014 0032 2546     		mov	r5, r4
 413:Middlewares/Third_Party/FreeRTOS/Source/CMSIS_RTOS_V2/cmsis_os2.c ****         return (NULL);
 1015              		.loc 1 413 0
 1016 0034 013C     		subs	r4, r4, #1
 1017              	.LVL55:
 1018 0036 372C     		cmp	r4, #55
 1019 0038 0CD9     		bls	.L104
 414:Middlewares/Third_Party/FreeRTOS/Source/CMSIS_RTOS_V2/cmsis_os2.c ****       }
 1020              		.loc 1 414 0
 1021 003a 0020     		movs	r0, #0
 1022              	.LVL56:
 1023 003c 04E0     		b	.L99
 1024              	.LVL57:
 1025              	.L117:
 1026              	.LBB378:
 1027              	.LBB379:
 1028              		.loc 2 465 0
 1029              		.syntax unified
 1030              	@ 465 "Drivers/CMSIS/Include/cmsis_gcc.h" 1
 1031 003e EFF31183 		MRS r3, basepri
 1032              	@ 0 "" 2
 1033              		.thumb
 1034              		.syntax unified
 1035              	.LBE379:
 1036              	.LBE378:
 397:Middlewares/Third_Party/FreeRTOS/Source/CMSIS_RTOS_V2/cmsis_os2.c ****     stack = configMINIMAL_STACK_SIZE;
 1037              		.loc 1 397 0
 1038 0042 002B     		cmp	r3, #0
 1039 0044 EAD0     		beq	.L101
 1040              	.LVL58:
 1041              	.L100:
 450:Middlewares/Third_Party/FreeRTOS/Source/CMSIS_RTOS_V2/cmsis_os2.c **** }
 1042              		.loc 1 450 0
 1043 0046 0498     		ldr	r0, [sp, #16]
 1044              	.L99:
 451:Middlewares/Third_Party/FreeRTOS/Source/CMSIS_RTOS_V2/cmsis_os2.c **** 
 1045              		.loc 1 451 0
 1046 0048 07B0     		add	sp, sp, #28
 1047              	.LCFI13:
 1048              		.cfi_remember_state
 1049              		.cfi_def_cfa_offset 20
 1050              		@ sp needed
 1051 004a F0BD     		pop	{r4, r5, r6, r7, pc}
 1052              	.LVL59:
 1053              	.L118:
 1054              	.LCFI14:
 1055              		.cfi_restore_state
 402:Middlewares/Third_Party/FreeRTOS/Source/CMSIS_RTOS_V2/cmsis_os2.c ****     mem   = -1;
 1056              		.loc 1 402 0
 1057 004c 0DF11701 		add	r1, sp, #23
 1058              	.LVL60:
 1059 0050 EDE7     		b	.L103
 1060              	.L112:
 1061 0052 1825     		movs	r5, #24
 1062              	.LVL61:
 1063              	.L104:
 413:Middlewares/Third_Party/FreeRTOS/Source/CMSIS_RTOS_V2/cmsis_os2.c ****         return (NULL);
ARM GAS  /tmp/ccjsdB5h.s 			page 49


 1064              		.loc 1 413 0 discriminator 1
 1065 0054 5468     		ldr	r4, [r2, #4]
 1066 0056 14F0010F 		tst	r4, #1
 1067 005a 35D1     		bne	.L114
 417:Middlewares/Third_Party/FreeRTOS/Source/CMSIS_RTOS_V2/cmsis_os2.c ****         /* In FreeRTOS stack is not in bytes, but in sizeof(StackType_t) which is 4 on ARM ports.  
 1068              		.loc 1 417 0
 1069 005c 5469     		ldr	r4, [r2, #20]
 1070 005e A4B1     		cbz	r4, .L115
 420:Middlewares/Third_Party/FreeRTOS/Source/CMSIS_RTOS_V2/cmsis_os2.c ****       }
 1071              		.loc 1 420 0
 1072 0060 4FEA940C 		lsr	ip, r4, #2
 1073              	.LVL62:
 1074              	.L106:
 423:Middlewares/Third_Party/FreeRTOS/Source/CMSIS_RTOS_V2/cmsis_os2.c ****           (attr->stack_mem != NULL) && (attr->stack_size >  0U)) {
 1075              		.loc 1 423 0
 1076 0064 9668     		ldr	r6, [r2, #8]
 1077 0066 9EB1     		cbz	r6, .L107
 423:Middlewares/Third_Party/FreeRTOS/Source/CMSIS_RTOS_V2/cmsis_os2.c ****           (attr->stack_mem != NULL) && (attr->stack_size >  0U)) {
 1078              		.loc 1 423 0 is_stmt 0 discriminator 1
 1079 0068 D768     		ldr	r7, [r2, #12]
 1080 006a 5B2F     		cmp	r7, #91
 1081 006c EBD9     		bls	.L100
 423:Middlewares/Third_Party/FreeRTOS/Source/CMSIS_RTOS_V2/cmsis_os2.c ****           (attr->stack_mem != NULL) && (attr->stack_size >  0U)) {
 1082              		.loc 1 423 0 discriminator 2
 1083 006e 1769     		ldr	r7, [r2, #16]
 1084 0070 002F     		cmp	r7, #0
 1085 0072 E8D0     		beq	.L100
 424:Middlewares/Third_Party/FreeRTOS/Source/CMSIS_RTOS_V2/cmsis_os2.c ****         mem = 1;
 1086              		.loc 1 424 0 is_stmt 1
 1087 0074 002C     		cmp	r4, #0
 1088 0076 E6D0     		beq	.L100
 1089              	.LVL63:
 438:Middlewares/Third_Party/FreeRTOS/Source/CMSIS_RTOS_V2/cmsis_os2.c ****                                                                                     (StaticTask_t *
 1090              		.loc 1 438 0
 1091 0078 0296     		str	r6, [sp, #8]
 1092 007a 1269     		ldr	r2, [r2, #16]
 1093              	.LVL64:
 1094 007c 0192     		str	r2, [sp, #4]
 1095 007e 0095     		str	r5, [sp]
 1096 0080 6246     		mov	r2, ip
 1097 0082 FFF7FEFF 		bl	xTaskCreateStatic
 1098              	.LVL65:
 1099 0086 0490     		str	r0, [sp, #16]
 1100 0088 DDE7     		b	.L100
 1101              	.LVL66:
 1102              	.L115:
 398:Middlewares/Third_Party/FreeRTOS/Source/CMSIS_RTOS_V2/cmsis_os2.c ****     prio  = (UBaseType_t)osPriorityNormal;
 1103              		.loc 1 398 0
 1104 008a 4FF0800C 		mov	ip, #128
 1105 008e E9E7     		b	.L106
 1106              	.LVL67:
 1107              	.L107:
 428:Middlewares/Third_Party/FreeRTOS/Source/CMSIS_RTOS_V2/cmsis_os2.c ****           mem = 0;
 1108              		.loc 1 428 0 discriminator 1
 1109 0090 D468     		ldr	r4, [r2, #12]
 1110 0092 002C     		cmp	r4, #0
 1111 0094 D7D1     		bne	.L100
ARM GAS  /tmp/ccjsdB5h.s 			page 50


 428:Middlewares/Third_Party/FreeRTOS/Source/CMSIS_RTOS_V2/cmsis_os2.c ****           mem = 0;
 1112              		.loc 1 428 0 is_stmt 0 discriminator 2
 1113 0096 1269     		ldr	r2, [r2, #16]
 1114              	.LVL68:
 1115 0098 0032     		adds	r2, r2, #0
 1116 009a 18BF     		it	ne
 1117 009c 0122     		movne	r2, #1
 1118 009e 5242     		negs	r2, r2
 1119              	.LVL69:
 442:Middlewares/Third_Party/FreeRTOS/Source/CMSIS_RTOS_V2/cmsis_os2.c ****         if (xTaskCreate ((TaskFunction_t)func, name, (uint16_t)stack, argument, prio, &hTask) != pd
 1120              		.loc 1 442 0 is_stmt 1 discriminator 2
 1121 00a0 002A     		cmp	r2, #0
 1122 00a2 D0D1     		bne	.L100
 1123 00a4 04E0     		b	.L102
 1124              	.LVL70:
 1125              	.L110:
 399:Middlewares/Third_Party/FreeRTOS/Source/CMSIS_RTOS_V2/cmsis_os2.c **** 
 1126              		.loc 1 399 0
 1127 00a6 1825     		movs	r5, #24
 398:Middlewares/Third_Party/FreeRTOS/Source/CMSIS_RTOS_V2/cmsis_os2.c ****     prio  = (UBaseType_t)osPriorityNormal;
 1128              		.loc 1 398 0
 1129 00a8 4FF0800C 		mov	ip, #128
 402:Middlewares/Third_Party/FreeRTOS/Source/CMSIS_RTOS_V2/cmsis_os2.c ****     mem   = -1;
 1130              		.loc 1 402 0
 1131 00ac 0DF11701 		add	r1, sp, #23
 1132              	.LVL71:
 1133              	.L102:
 443:Middlewares/Third_Party/FreeRTOS/Source/CMSIS_RTOS_V2/cmsis_os2.c ****           hTask = NULL;
 1134              		.loc 1 443 0
 1135 00b0 04AA     		add	r2, sp, #16
 1136 00b2 0192     		str	r2, [sp, #4]
 1137 00b4 0095     		str	r5, [sp]
 1138 00b6 1FFA8CF2 		uxth	r2, ip
 1139 00ba FFF7FEFF 		bl	xTaskCreate
 1140              	.LVL72:
 1141 00be 0128     		cmp	r0, #1
 444:Middlewares/Third_Party/FreeRTOS/Source/CMSIS_RTOS_V2/cmsis_os2.c ****         }
 1142              		.loc 1 444 0
 1143 00c0 1CBF     		itt	ne
 1144 00c2 0023     		movne	r3, #0
 1145 00c4 0493     		strne	r3, [sp, #16]
 1146 00c6 BEE7     		b	.L100
 1147              	.LVL73:
 1148              	.L114:
 414:Middlewares/Third_Party/FreeRTOS/Source/CMSIS_RTOS_V2/cmsis_os2.c ****       }
 1149              		.loc 1 414 0
 1150 00c8 0020     		movs	r0, #0
 1151              	.LVL74:
 1152 00ca BDE7     		b	.L99
 1153              	.L120:
 1154              		.align	2
 1155              	.L119:
 1156 00cc 00000000 		.word	.LANCHOR0
 1157              		.cfi_endproc
 1158              	.LFE117:
 1160              		.section	.text.osThreadGetName,"ax",%progbits
 1161              		.align	1
ARM GAS  /tmp/ccjsdB5h.s 			page 51


 1162              		.global	osThreadGetName
 1163              		.syntax unified
 1164              		.thumb
 1165              		.thumb_func
 1166              		.fpu fpv4-sp-d16
 1168              	osThreadGetName:
 1169              	.LFB118:
 453:Middlewares/Third_Party/FreeRTOS/Source/CMSIS_RTOS_V2/cmsis_os2.c ****   TaskHandle_t hTask = (TaskHandle_t)thread_id;
 1170              		.loc 1 453 0
 1171              		.cfi_startproc
 1172              		@ args = 0, pretend = 0, frame = 0
 1173              		@ frame_needed = 0, uses_anonymous_args = 0
 1174              	.LVL75:
 1175 0000 08B5     		push	{r3, lr}
 1176              	.LCFI15:
 1177              		.cfi_def_cfa_offset 8
 1178              		.cfi_offset 3, -8
 1179              		.cfi_offset 14, -4
 1180              	.LVL76:
 1181              	.LBB380:
 1182              	.LBB381:
 209:Drivers/CMSIS/Include/cmsis_gcc.h ****   return(result);
 1183              		.loc 2 209 0
 1184              		.syntax unified
 1185              	@ 209 "Drivers/CMSIS/Include/cmsis_gcc.h" 1
 1186 0002 EFF30583 		MRS r3, ipsr
 1187              	@ 0 "" 2
 1188              		.thumb
 1189              		.syntax unified
 1190              	.LBE381:
 1191              	.LBE380:
 457:Middlewares/Third_Party/FreeRTOS/Source/CMSIS_RTOS_V2/cmsis_os2.c ****     name = NULL;
 1192              		.loc 1 457 0
 1193 0006 83B9     		cbnz	r3, .L124
 1194              	.LBB382:
 1195              	.LBB383:
 386:Drivers/CMSIS/Include/cmsis_gcc.h ****   return(result);
 1196              		.loc 2 386 0
 1197              		.syntax unified
 1198              	@ 386 "Drivers/CMSIS/Include/cmsis_gcc.h" 1
 1199 0008 EFF31083 		MRS r3, primask
 1200              	@ 0 "" 2
 1201              		.thumb
 1202              		.syntax unified
 1203              	.LBE383:
 1204              	.LBE382:
 457:Middlewares/Third_Party/FreeRTOS/Source/CMSIS_RTOS_V2/cmsis_os2.c ****     name = NULL;
 1205              		.loc 1 457 0
 1206 000c 7BB9     		cbnz	r3, .L125
 457:Middlewares/Third_Party/FreeRTOS/Source/CMSIS_RTOS_V2/cmsis_os2.c ****     name = NULL;
 1207              		.loc 1 457 0 is_stmt 0 discriminator 2
 1208 000e 0A4B     		ldr	r3, .L130
 1209 0010 1B68     		ldr	r3, [r3]
 1210 0012 022B     		cmp	r3, #2
 1211 0014 03D0     		beq	.L129
 1212              	.L123:
 457:Middlewares/Third_Party/FreeRTOS/Source/CMSIS_RTOS_V2/cmsis_os2.c ****     name = NULL;
ARM GAS  /tmp/ccjsdB5h.s 			page 52


 1213              		.loc 1 457 0 discriminator 5
 1214 0016 60B1     		cbz	r0, .L127
 460:Middlewares/Third_Party/FreeRTOS/Source/CMSIS_RTOS_V2/cmsis_os2.c ****   }
 1215              		.loc 1 460 0 is_stmt 1
 1216 0018 FFF7FEFF 		bl	pcTaskGetName
 1217              	.LVL77:
 1218              	.L121:
 464:Middlewares/Third_Party/FreeRTOS/Source/CMSIS_RTOS_V2/cmsis_os2.c **** 
 1219              		.loc 1 464 0
 1220 001c 08BD     		pop	{r3, pc}
 1221              	.LVL78:
 1222              	.L129:
 1223              	.LBB384:
 1224              	.LBB385:
 1225              		.loc 2 465 0
 1226              		.syntax unified
 1227              	@ 465 "Drivers/CMSIS/Include/cmsis_gcc.h" 1
 1228 001e EFF31183 		MRS r3, basepri
 1229              	@ 0 "" 2
 1230              		.thumb
 1231              		.syntax unified
 1232              	.LBE385:
 1233              	.LBE384:
 457:Middlewares/Third_Party/FreeRTOS/Source/CMSIS_RTOS_V2/cmsis_os2.c ****     name = NULL;
 1234              		.loc 1 457 0
 1235 0022 002B     		cmp	r3, #0
 1236 0024 F7D0     		beq	.L123
 458:Middlewares/Third_Party/FreeRTOS/Source/CMSIS_RTOS_V2/cmsis_os2.c ****   } else {
 1237              		.loc 1 458 0
 1238 0026 0020     		movs	r0, #0
 1239              	.LVL79:
 1240 0028 F8E7     		b	.L121
 1241              	.LVL80:
 1242              	.L124:
 1243 002a 0020     		movs	r0, #0
 1244              	.LVL81:
 1245 002c F6E7     		b	.L121
 1246              	.LVL82:
 1247              	.L125:
 1248 002e 0020     		movs	r0, #0
 1249              	.LVL83:
 1250 0030 F4E7     		b	.L121
 1251              	.LVL84:
 1252              	.L127:
 1253 0032 0020     		movs	r0, #0
 1254              	.LVL85:
 463:Middlewares/Third_Party/FreeRTOS/Source/CMSIS_RTOS_V2/cmsis_os2.c **** }
 1255              		.loc 1 463 0
 1256 0034 F2E7     		b	.L121
 1257              	.L131:
 1258 0036 00BF     		.align	2
 1259              	.L130:
 1260 0038 00000000 		.word	.LANCHOR0
 1261              		.cfi_endproc
 1262              	.LFE118:
 1264              		.section	.text.osThreadGetId,"ax",%progbits
 1265              		.align	1
ARM GAS  /tmp/ccjsdB5h.s 			page 53


 1266              		.global	osThreadGetId
 1267              		.syntax unified
 1268              		.thumb
 1269              		.thumb_func
 1270              		.fpu fpv4-sp-d16
 1272              	osThreadGetId:
 1273              	.LFB119:
 466:Middlewares/Third_Party/FreeRTOS/Source/CMSIS_RTOS_V2/cmsis_os2.c ****   osThreadId_t id;
 1274              		.loc 1 466 0
 1275              		.cfi_startproc
 1276              		@ args = 0, pretend = 0, frame = 0
 1277              		@ frame_needed = 0, uses_anonymous_args = 0
 1278 0000 08B5     		push	{r3, lr}
 1279              	.LCFI16:
 1280              		.cfi_def_cfa_offset 8
 1281              		.cfi_offset 3, -8
 1282              		.cfi_offset 14, -4
 1283              	.LBB386:
 1284              	.LBB387:
 209:Drivers/CMSIS/Include/cmsis_gcc.h ****   return(result);
 1285              		.loc 2 209 0
 1286              		.syntax unified
 1287              	@ 209 "Drivers/CMSIS/Include/cmsis_gcc.h" 1
 1288 0002 EFF30583 		MRS r3, ipsr
 1289              	@ 0 "" 2
 1290              		.thumb
 1291              		.syntax unified
 1292              	.LBE387:
 1293              	.LBE386:
 469:Middlewares/Third_Party/FreeRTOS/Source/CMSIS_RTOS_V2/cmsis_os2.c ****     id = NULL;
 1294              		.loc 1 469 0
 1295 0006 63B9     		cbnz	r3, .L135
 1296              	.LBB388:
 1297              	.LBB389:
 386:Drivers/CMSIS/Include/cmsis_gcc.h ****   return(result);
 1298              		.loc 2 386 0
 1299              		.syntax unified
 1300              	@ 386 "Drivers/CMSIS/Include/cmsis_gcc.h" 1
 1301 0008 EFF31083 		MRS r3, primask
 1302              	@ 0 "" 2
 1303              		.thumb
 1304              		.syntax unified
 1305              	.LBE389:
 1306              	.LBE388:
 469:Middlewares/Third_Party/FreeRTOS/Source/CMSIS_RTOS_V2/cmsis_os2.c ****     id = NULL;
 1307              		.loc 1 469 0
 1308 000c 5BB9     		cbnz	r3, .L136
 469:Middlewares/Third_Party/FreeRTOS/Source/CMSIS_RTOS_V2/cmsis_os2.c ****     id = NULL;
 1309              		.loc 1 469 0 is_stmt 0 discriminator 2
 1310 000e 084B     		ldr	r3, .L139
 1311 0010 1B68     		ldr	r3, [r3]
 1312 0012 022B     		cmp	r3, #2
 1313 0014 02D1     		bne	.L134
 1314              	.LBB390:
 1315              	.LBB391:
 1316              		.loc 2 465 0 is_stmt 1
 1317              		.syntax unified
ARM GAS  /tmp/ccjsdB5h.s 			page 54


 1318              	@ 465 "Drivers/CMSIS/Include/cmsis_gcc.h" 1
 1319 0016 EFF31183 		MRS r3, basepri
 1320              	@ 0 "" 2
 1321              		.thumb
 1322              		.syntax unified
 1323              	.LBE391:
 1324              	.LBE390:
 469:Middlewares/Third_Party/FreeRTOS/Source/CMSIS_RTOS_V2/cmsis_os2.c ****     id = NULL;
 1325              		.loc 1 469 0
 1326 001a 33B9     		cbnz	r3, .L137
 1327              	.L134:
 472:Middlewares/Third_Party/FreeRTOS/Source/CMSIS_RTOS_V2/cmsis_os2.c ****   }
 1328              		.loc 1 472 0
 1329 001c FFF7FEFF 		bl	xTaskGetCurrentTaskHandle
 1330              	.LVL86:
 1331              	.L132:
 476:Middlewares/Third_Party/FreeRTOS/Source/CMSIS_RTOS_V2/cmsis_os2.c **** 
 1332              		.loc 1 476 0
 1333 0020 08BD     		pop	{r3, pc}
 1334              	.L135:
 470:Middlewares/Third_Party/FreeRTOS/Source/CMSIS_RTOS_V2/cmsis_os2.c ****   } else {
 1335              		.loc 1 470 0
 1336 0022 0020     		movs	r0, #0
 1337 0024 FCE7     		b	.L132
 1338              	.L136:
 1339 0026 0020     		movs	r0, #0
 1340 0028 FAE7     		b	.L132
 1341              	.L137:
 1342 002a 0020     		movs	r0, #0
 1343              	.LVL87:
 475:Middlewares/Third_Party/FreeRTOS/Source/CMSIS_RTOS_V2/cmsis_os2.c **** }
 1344              		.loc 1 475 0
 1345 002c F8E7     		b	.L132
 1346              	.L140:
 1347 002e 00BF     		.align	2
 1348              	.L139:
 1349 0030 00000000 		.word	.LANCHOR0
 1350              		.cfi_endproc
 1351              	.LFE119:
 1353              		.section	.text.osThreadGetState,"ax",%progbits
 1354              		.align	1
 1355              		.global	osThreadGetState
 1356              		.syntax unified
 1357              		.thumb
 1358              		.thumb_func
 1359              		.fpu fpv4-sp-d16
 1361              	osThreadGetState:
 1362              	.LFB120:
 478:Middlewares/Third_Party/FreeRTOS/Source/CMSIS_RTOS_V2/cmsis_os2.c ****   TaskHandle_t hTask = (TaskHandle_t)thread_id;
 1363              		.loc 1 478 0
 1364              		.cfi_startproc
 1365              		@ args = 0, pretend = 0, frame = 0
 1366              		@ frame_needed = 0, uses_anonymous_args = 0
 1367              	.LVL88:
 1368 0000 08B5     		push	{r3, lr}
 1369              	.LCFI17:
 1370              		.cfi_def_cfa_offset 8
ARM GAS  /tmp/ccjsdB5h.s 			page 55


 1371              		.cfi_offset 3, -8
 1372              		.cfi_offset 14, -4
 1373              	.LVL89:
 1374              	.LBB392:
 1375              	.LBB393:
 209:Drivers/CMSIS/Include/cmsis_gcc.h ****   return(result);
 1376              		.loc 2 209 0
 1377              		.syntax unified
 1378              	@ 209 "Drivers/CMSIS/Include/cmsis_gcc.h" 1
 1379 0002 EFF30583 		MRS r3, ipsr
 1380              	@ 0 "" 2
 1381              		.thumb
 1382              		.syntax unified
 1383              	.LBE393:
 1384              	.LBE392:
 482:Middlewares/Third_Party/FreeRTOS/Source/CMSIS_RTOS_V2/cmsis_os2.c ****     state = osThreadError;
 1385              		.loc 1 482 0
 1386 0006 03BB     		cbnz	r3, .L149
 1387              	.LBB394:
 1388              	.LBB395:
 386:Drivers/CMSIS/Include/cmsis_gcc.h ****   return(result);
 1389              		.loc 2 386 0
 1390              		.syntax unified
 1391              	@ 386 "Drivers/CMSIS/Include/cmsis_gcc.h" 1
 1392 0008 EFF31083 		MRS r3, primask
 1393              	@ 0 "" 2
 1394              		.thumb
 1395              		.syntax unified
 1396              	.LBE395:
 1397              	.LBE394:
 482:Middlewares/Third_Party/FreeRTOS/Source/CMSIS_RTOS_V2/cmsis_os2.c ****     state = osThreadError;
 1398              		.loc 1 482 0
 1399 000c 03BB     		cbnz	r3, .L150
 482:Middlewares/Third_Party/FreeRTOS/Source/CMSIS_RTOS_V2/cmsis_os2.c ****     state = osThreadError;
 1400              		.loc 1 482 0 is_stmt 0 discriminator 2
 1401 000e 144B     		ldr	r3, .L156
 1402 0010 1B68     		ldr	r3, [r3]
 1403 0012 022B     		cmp	r3, #2
 1404 0014 09D0     		beq	.L155
 1405              	.L143:
 482:Middlewares/Third_Party/FreeRTOS/Source/CMSIS_RTOS_V2/cmsis_os2.c ****     state = osThreadError;
 1406              		.loc 1 482 0 discriminator 5
 1407 0016 F0B1     		cbz	r0, .L152
 486:Middlewares/Third_Party/FreeRTOS/Source/CMSIS_RTOS_V2/cmsis_os2.c ****       case eRunning:   state = osThreadRunning;    break;
 1408              		.loc 1 486 0 is_stmt 1
 1409 0018 FFF7FEFF 		bl	eTaskGetState
 1410              	.LVL90:
 1411 001c 0428     		cmp	r0, #4
 1412 001e 11D8     		bhi	.L144
 1413 0020 DFE800F0 		tbb	[pc, r0]
 1414              	.L145:
 1415 0024 1C       		.byte	(.L153-.L145)/2
 1416 0025 0A       		.byte	(.L146-.L145)/2
 1417 0026 0C       		.byte	(.L147-.L145)/2
 1418 0027 0C       		.byte	(.L147-.L145)/2
 1419 0028 0E       		.byte	(.L148-.L145)/2
 1420              	.LVL91:
ARM GAS  /tmp/ccjsdB5h.s 			page 56


 1421 0029 00       		.p2align 1
 1422              	.L155:
 1423              	.LBB396:
 1424              	.LBB397:
 1425              		.loc 2 465 0
 1426              		.syntax unified
 1427              	@ 465 "Drivers/CMSIS/Include/cmsis_gcc.h" 1
 1428 002a EFF31183 		MRS r3, basepri
 1429              	@ 0 "" 2
 1430              		.thumb
 1431              		.syntax unified
 1432              	.LBE397:
 1433              	.LBE396:
 482:Middlewares/Third_Party/FreeRTOS/Source/CMSIS_RTOS_V2/cmsis_os2.c ****     state = osThreadError;
 1434              		.loc 1 482 0
 1435 002e 002B     		cmp	r3, #0
 1436 0030 F1D0     		beq	.L143
 483:Middlewares/Third_Party/FreeRTOS/Source/CMSIS_RTOS_V2/cmsis_os2.c ****   }
 1437              		.loc 1 483 0
 1438 0032 4FF0FF30 		mov	r0, #-1
 1439              	.LVL92:
 1440 0036 12E0     		b	.L141
 1441              	.L146:
 488:Middlewares/Third_Party/FreeRTOS/Source/CMSIS_RTOS_V2/cmsis_os2.c ****       case eBlocked:
 1442              		.loc 1 488 0
 1443 0038 0120     		movs	r0, #1
 1444 003a 10E0     		b	.L141
 1445              	.L147:
 1446              	.LVL93:
 490:Middlewares/Third_Party/FreeRTOS/Source/CMSIS_RTOS_V2/cmsis_os2.c ****       case eDeleted:   state = osThreadTerminated; break;
 1447              		.loc 1 490 0
 1448 003c 0320     		movs	r0, #3
 1449 003e 0EE0     		b	.L141
 1450              	.LVL94:
 1451              	.L148:
 491:Middlewares/Third_Party/FreeRTOS/Source/CMSIS_RTOS_V2/cmsis_os2.c ****       case eInvalid:
 1452              		.loc 1 491 0
 1453 0040 0420     		movs	r0, #4
 1454 0042 0CE0     		b	.L141
 1455              	.LVL95:
 1456              	.L144:
 493:Middlewares/Third_Party/FreeRTOS/Source/CMSIS_RTOS_V2/cmsis_os2.c ****     }
 1457              		.loc 1 493 0
 1458 0044 4FF0FF30 		mov	r0, #-1
 1459 0048 09E0     		b	.L141
 1460              	.LVL96:
 1461              	.L149:
 483:Middlewares/Third_Party/FreeRTOS/Source/CMSIS_RTOS_V2/cmsis_os2.c ****   }
 1462              		.loc 1 483 0
 1463 004a 4FF0FF30 		mov	r0, #-1
 1464              	.LVL97:
 1465 004e 06E0     		b	.L141
 1466              	.LVL98:
 1467              	.L150:
 1468 0050 4FF0FF30 		mov	r0, #-1
 1469              	.LVL99:
 1470 0054 03E0     		b	.L141
ARM GAS  /tmp/ccjsdB5h.s 			page 57


 1471              	.LVL100:
 1472              	.L152:
 1473 0056 4FF0FF30 		mov	r0, #-1
 1474              	.LVL101:
 1475 005a 00E0     		b	.L141
 1476              	.L153:
 487:Middlewares/Third_Party/FreeRTOS/Source/CMSIS_RTOS_V2/cmsis_os2.c ****       case eReady:     state = osThreadReady;      break;
 1477              		.loc 1 487 0
 1478 005c 0220     		movs	r0, #2
 1479              	.LVL102:
 1480              	.L141:
 498:Middlewares/Third_Party/FreeRTOS/Source/CMSIS_RTOS_V2/cmsis_os2.c **** 
 1481              		.loc 1 498 0
 1482 005e 08BD     		pop	{r3, pc}
 1483              	.L157:
 1484              		.align	2
 1485              	.L156:
 1486 0060 00000000 		.word	.LANCHOR0
 1487              		.cfi_endproc
 1488              	.LFE120:
 1490              		.section	.text.osThreadGetStackSpace,"ax",%progbits
 1491              		.align	1
 1492              		.global	osThreadGetStackSpace
 1493              		.syntax unified
 1494              		.thumb
 1495              		.thumb_func
 1496              		.fpu fpv4-sp-d16
 1498              	osThreadGetStackSpace:
 1499              	.LFB121:
 500:Middlewares/Third_Party/FreeRTOS/Source/CMSIS_RTOS_V2/cmsis_os2.c ****   TaskHandle_t hTask = (TaskHandle_t)thread_id;
 1500              		.loc 1 500 0
 1501              		.cfi_startproc
 1502              		@ args = 0, pretend = 0, frame = 0
 1503              		@ frame_needed = 0, uses_anonymous_args = 0
 1504              	.LVL103:
 1505 0000 08B5     		push	{r3, lr}
 1506              	.LCFI18:
 1507              		.cfi_def_cfa_offset 8
 1508              		.cfi_offset 3, -8
 1509              		.cfi_offset 14, -4
 1510 0002 0346     		mov	r3, r0
 1511              	.LVL104:
 1512              	.LBB398:
 1513              	.LBB399:
 209:Drivers/CMSIS/Include/cmsis_gcc.h ****   return(result);
 1514              		.loc 2 209 0
 1515              		.syntax unified
 1516              	@ 209 "Drivers/CMSIS/Include/cmsis_gcc.h" 1
 1517 0004 EFF30580 		MRS r0, ipsr
 1518              	@ 0 "" 2
 1519              	.LVL105:
 1520              		.thumb
 1521              		.syntax unified
 1522              	.LBE399:
 1523              	.LBE398:
 504:Middlewares/Third_Party/FreeRTOS/Source/CMSIS_RTOS_V2/cmsis_os2.c ****     sz = 0U;
 1524              		.loc 1 504 0
ARM GAS  /tmp/ccjsdB5h.s 			page 58


 1525 0008 88B9     		cbnz	r0, .L161
 1526              	.LBB400:
 1527              	.LBB401:
 386:Drivers/CMSIS/Include/cmsis_gcc.h ****   return(result);
 1528              		.loc 2 386 0
 1529              		.syntax unified
 1530              	@ 386 "Drivers/CMSIS/Include/cmsis_gcc.h" 1
 1531 000a EFF31082 		MRS r2, primask
 1532              	@ 0 "" 2
 1533              		.thumb
 1534              		.syntax unified
 1535              	.LBE401:
 1536              	.LBE400:
 504:Middlewares/Third_Party/FreeRTOS/Source/CMSIS_RTOS_V2/cmsis_os2.c ****     sz = 0U;
 1537              		.loc 1 504 0
 1538 000e 7AB9     		cbnz	r2, .L158
 504:Middlewares/Third_Party/FreeRTOS/Source/CMSIS_RTOS_V2/cmsis_os2.c ****     sz = 0U;
 1539              		.loc 1 504 0 is_stmt 0 discriminator 2
 1540 0010 0949     		ldr	r1, .L166
 1541 0012 0968     		ldr	r1, [r1]
 1542 0014 0229     		cmp	r1, #2
 1543 0016 04D0     		beq	.L165
 1544              	.L160:
 504:Middlewares/Third_Party/FreeRTOS/Source/CMSIS_RTOS_V2/cmsis_os2.c ****     sz = 0U;
 1545              		.loc 1 504 0 discriminator 5
 1546 0018 5BB1     		cbz	r3, .L163
 1547 001a 1846     		mov	r0, r3
 507:Middlewares/Third_Party/FreeRTOS/Source/CMSIS_RTOS_V2/cmsis_os2.c ****   }
 1548              		.loc 1 507 0 is_stmt 1
 1549 001c FFF7FEFF 		bl	uxTaskGetStackHighWaterMark
 1550              	.LVL106:
 1551 0020 06E0     		b	.L158
 1552              	.LVL107:
 1553              	.L165:
 1554              	.LBB402:
 1555              	.LBB403:
 1556              		.loc 2 465 0
 1557              		.syntax unified
 1558              	@ 465 "Drivers/CMSIS/Include/cmsis_gcc.h" 1
 1559 0022 EFF31181 		MRS r1, basepri
 1560              	@ 0 "" 2
 1561              		.thumb
 1562              		.syntax unified
 1563              	.LBE403:
 1564              	.LBE402:
 504:Middlewares/Third_Party/FreeRTOS/Source/CMSIS_RTOS_V2/cmsis_os2.c ****     sz = 0U;
 1565              		.loc 1 504 0
 1566 0026 0029     		cmp	r1, #0
 1567 0028 F6D0     		beq	.L160
 505:Middlewares/Third_Party/FreeRTOS/Source/CMSIS_RTOS_V2/cmsis_os2.c ****   } else {
 1568              		.loc 1 505 0
 1569 002a 1046     		mov	r0, r2
 1570 002c 00E0     		b	.L158
 1571              	.L161:
 1572 002e 0020     		movs	r0, #0
 1573              	.LVL108:
 1574              	.L158:
ARM GAS  /tmp/ccjsdB5h.s 			page 59


 511:Middlewares/Third_Party/FreeRTOS/Source/CMSIS_RTOS_V2/cmsis_os2.c **** 
 1575              		.loc 1 511 0
 1576 0030 08BD     		pop	{r3, pc}
 1577              	.LVL109:
 1578              	.L163:
 505:Middlewares/Third_Party/FreeRTOS/Source/CMSIS_RTOS_V2/cmsis_os2.c ****   } else {
 1579              		.loc 1 505 0
 1580 0032 1046     		mov	r0, r2
 510:Middlewares/Third_Party/FreeRTOS/Source/CMSIS_RTOS_V2/cmsis_os2.c **** }
 1581              		.loc 1 510 0
 1582 0034 FCE7     		b	.L158
 1583              	.L167:
 1584 0036 00BF     		.align	2
 1585              	.L166:
 1586 0038 00000000 		.word	.LANCHOR0
 1587              		.cfi_endproc
 1588              	.LFE121:
 1590              		.section	.text.osThreadGetStackSize,"ax",%progbits
 1591              		.align	1
 1592              		.global	osThreadGetStackSize
 1593              		.syntax unified
 1594              		.thumb
 1595              		.thumb_func
 1596              		.fpu fpv4-sp-d16
 1598              	osThreadGetStackSize:
 1599              	.LFB122:
 513:Middlewares/Third_Party/FreeRTOS/Source/CMSIS_RTOS_V2/cmsis_os2.c ****   /*
 1600              		.loc 1 513 0
 1601              		.cfi_startproc
 1602              		@ args = 0, pretend = 0, frame = 0
 1603              		@ frame_needed = 0, uses_anonymous_args = 0
 1604              		@ link register save eliminated.
 1605              	.LVL110:
 521:Middlewares/Third_Party/FreeRTOS/Source/CMSIS_RTOS_V2/cmsis_os2.c **** 
 1606              		.loc 1 521 0
 1607 0000 0020     		movs	r0, #0
 1608              	.LVL111:
 1609 0002 7047     		bx	lr
 1610              		.cfi_endproc
 1611              	.LFE122:
 1613              		.section	.text.osThreadSetPriority,"ax",%progbits
 1614              		.align	1
 1615              		.global	osThreadSetPriority
 1616              		.syntax unified
 1617              		.thumb
 1618              		.thumb_func
 1619              		.fpu fpv4-sp-d16
 1621              	osThreadSetPriority:
 1622              	.LFB123:
 523:Middlewares/Third_Party/FreeRTOS/Source/CMSIS_RTOS_V2/cmsis_os2.c ****   TaskHandle_t hTask = (TaskHandle_t)thread_id;
 1623              		.loc 1 523 0
 1624              		.cfi_startproc
 1625              		@ args = 0, pretend = 0, frame = 0
 1626              		@ frame_needed = 0, uses_anonymous_args = 0
 1627              	.LVL112:
 1628 0000 08B5     		push	{r3, lr}
 1629              	.LCFI19:
ARM GAS  /tmp/ccjsdB5h.s 			page 60


 1630              		.cfi_def_cfa_offset 8
 1631              		.cfi_offset 3, -8
 1632              		.cfi_offset 14, -4
 1633              	.LVL113:
 1634              	.LBB404:
 1635              	.LBB405:
 209:Drivers/CMSIS/Include/cmsis_gcc.h ****   return(result);
 1636              		.loc 2 209 0
 1637              		.syntax unified
 1638              	@ 209 "Drivers/CMSIS/Include/cmsis_gcc.h" 1
 1639 0002 EFF30583 		MRS r3, ipsr
 1640              	@ 0 "" 2
 1641              		.thumb
 1642              		.syntax unified
 1643              	.LBE405:
 1644              	.LBE404:
 527:Middlewares/Third_Party/FreeRTOS/Source/CMSIS_RTOS_V2/cmsis_os2.c ****     stat = osErrorISR;
 1645              		.loc 1 527 0
 1646 0006 ABB9     		cbnz	r3, .L172
 1647              	.LBB406:
 1648              	.LBB407:
 386:Drivers/CMSIS/Include/cmsis_gcc.h ****   return(result);
 1649              		.loc 2 386 0
 1650              		.syntax unified
 1651              	@ 386 "Drivers/CMSIS/Include/cmsis_gcc.h" 1
 1652 0008 EFF31083 		MRS r3, primask
 1653              	@ 0 "" 2
 1654              		.thumb
 1655              		.syntax unified
 1656              	.LBE407:
 1657              	.LBE406:
 527:Middlewares/Third_Party/FreeRTOS/Source/CMSIS_RTOS_V2/cmsis_os2.c ****     stat = osErrorISR;
 1658              		.loc 1 527 0
 1659 000c ABB9     		cbnz	r3, .L173
 527:Middlewares/Third_Party/FreeRTOS/Source/CMSIS_RTOS_V2/cmsis_os2.c ****     stat = osErrorISR;
 1660              		.loc 1 527 0 is_stmt 0 discriminator 2
 1661 000e 0F4B     		ldr	r3, .L179
 1662 0010 1B68     		ldr	r3, [r3]
 1663 0012 022B     		cmp	r3, #2
 1664 0014 07D0     		beq	.L178
 1665              	.L171:
 530:Middlewares/Third_Party/FreeRTOS/Source/CMSIS_RTOS_V2/cmsis_os2.c ****     stat = osErrorParameter;
 1666              		.loc 1 530 0 is_stmt 1
 1667 0016 98B1     		cbz	r0, .L175
 530:Middlewares/Third_Party/FreeRTOS/Source/CMSIS_RTOS_V2/cmsis_os2.c ****     stat = osErrorParameter;
 1668              		.loc 1 530 0 is_stmt 0 discriminator 1
 1669 0018 4B1E     		subs	r3, r1, #1
 1670 001a 372B     		cmp	r3, #55
 1671 001c 13D8     		bhi	.L176
 1672              	.LVL114:
 535:Middlewares/Third_Party/FreeRTOS/Source/CMSIS_RTOS_V2/cmsis_os2.c ****   }
 1673              		.loc 1 535 0 is_stmt 1
 1674 001e FFF7FEFF 		bl	vTaskPrioritySet
 1675              	.LVL115:
 534:Middlewares/Third_Party/FreeRTOS/Source/CMSIS_RTOS_V2/cmsis_os2.c ****     vTaskPrioritySet (hTask, (UBaseType_t)priority);
 1676              		.loc 1 534 0
 1677 0022 0020     		movs	r0, #0
ARM GAS  /tmp/ccjsdB5h.s 			page 61


 1678              	.LVL116:
 1679              	.L169:
 539:Middlewares/Third_Party/FreeRTOS/Source/CMSIS_RTOS_V2/cmsis_os2.c **** 
 1680              		.loc 1 539 0
 1681 0024 08BD     		pop	{r3, pc}
 1682              	.LVL117:
 1683              	.L178:
 1684              	.LBB408:
 1685              	.LBB409:
 1686              		.loc 2 465 0
 1687              		.syntax unified
 1688              	@ 465 "Drivers/CMSIS/Include/cmsis_gcc.h" 1
 1689 0026 EFF31183 		MRS r3, basepri
 1690              	@ 0 "" 2
 1691              		.thumb
 1692              		.syntax unified
 1693              	.LBE409:
 1694              	.LBE408:
 527:Middlewares/Third_Party/FreeRTOS/Source/CMSIS_RTOS_V2/cmsis_os2.c ****     stat = osErrorISR;
 1695              		.loc 1 527 0
 1696 002a 002B     		cmp	r3, #0
 1697 002c F3D0     		beq	.L171
 528:Middlewares/Third_Party/FreeRTOS/Source/CMSIS_RTOS_V2/cmsis_os2.c ****   }
 1698              		.loc 1 528 0
 1699 002e 6FF00500 		mvn	r0, #5
 1700              	.LVL118:
 1701 0032 F7E7     		b	.L169
 1702              	.LVL119:
 1703              	.L172:
 1704 0034 6FF00500 		mvn	r0, #5
 1705              	.LVL120:
 1706 0038 F4E7     		b	.L169
 1707              	.LVL121:
 1708              	.L173:
 1709 003a 6FF00500 		mvn	r0, #5
 1710              	.LVL122:
 1711 003e F1E7     		b	.L169
 1712              	.LVL123:
 1713              	.L175:
 531:Middlewares/Third_Party/FreeRTOS/Source/CMSIS_RTOS_V2/cmsis_os2.c ****   }
 1714              		.loc 1 531 0
 1715 0040 6FF00300 		mvn	r0, #3
 1716              	.LVL124:
 1717 0044 EEE7     		b	.L169
 1718              	.LVL125:
 1719              	.L176:
 1720 0046 6FF00300 		mvn	r0, #3
 1721              	.LVL126:
 538:Middlewares/Third_Party/FreeRTOS/Source/CMSIS_RTOS_V2/cmsis_os2.c **** }
 1722              		.loc 1 538 0
 1723 004a EBE7     		b	.L169
 1724              	.L180:
 1725              		.align	2
 1726              	.L179:
 1727 004c 00000000 		.word	.LANCHOR0
 1728              		.cfi_endproc
 1729              	.LFE123:
ARM GAS  /tmp/ccjsdB5h.s 			page 62


 1731              		.section	.text.osThreadGetPriority,"ax",%progbits
 1732              		.align	1
 1733              		.global	osThreadGetPriority
 1734              		.syntax unified
 1735              		.thumb
 1736              		.thumb_func
 1737              		.fpu fpv4-sp-d16
 1739              	osThreadGetPriority:
 1740              	.LFB124:
 541:Middlewares/Third_Party/FreeRTOS/Source/CMSIS_RTOS_V2/cmsis_os2.c ****   TaskHandle_t hTask = (TaskHandle_t)thread_id;
 1741              		.loc 1 541 0
 1742              		.cfi_startproc
 1743              		@ args = 0, pretend = 0, frame = 0
 1744              		@ frame_needed = 0, uses_anonymous_args = 0
 1745              	.LVL127:
 1746 0000 08B5     		push	{r3, lr}
 1747              	.LCFI20:
 1748              		.cfi_def_cfa_offset 8
 1749              		.cfi_offset 3, -8
 1750              		.cfi_offset 14, -4
 1751              	.LVL128:
 1752              	.LBB410:
 1753              	.LBB411:
 209:Drivers/CMSIS/Include/cmsis_gcc.h ****   return(result);
 1754              		.loc 2 209 0
 1755              		.syntax unified
 1756              	@ 209 "Drivers/CMSIS/Include/cmsis_gcc.h" 1
 1757 0002 EFF30583 		MRS r3, ipsr
 1758              	@ 0 "" 2
 1759              		.thumb
 1760              		.syntax unified
 1761              	.LBE411:
 1762              	.LBE410:
 545:Middlewares/Third_Party/FreeRTOS/Source/CMSIS_RTOS_V2/cmsis_os2.c ****     prio = osPriorityError;
 1763              		.loc 1 545 0
 1764 0006 8BB9     		cbnz	r3, .L184
 1765              	.LBB412:
 1766              	.LBB413:
 386:Drivers/CMSIS/Include/cmsis_gcc.h ****   return(result);
 1767              		.loc 2 386 0
 1768              		.syntax unified
 1769              	@ 386 "Drivers/CMSIS/Include/cmsis_gcc.h" 1
 1770 0008 EFF31083 		MRS r3, primask
 1771              	@ 0 "" 2
 1772              		.thumb
 1773              		.syntax unified
 1774              	.LBE413:
 1775              	.LBE412:
 545:Middlewares/Third_Party/FreeRTOS/Source/CMSIS_RTOS_V2/cmsis_os2.c ****     prio = osPriorityError;
 1776              		.loc 1 545 0
 1777 000c 8BB9     		cbnz	r3, .L185
 545:Middlewares/Third_Party/FreeRTOS/Source/CMSIS_RTOS_V2/cmsis_os2.c ****     prio = osPriorityError;
 1778              		.loc 1 545 0 is_stmt 0 discriminator 2
 1779 000e 0C4B     		ldr	r3, .L190
 1780 0010 1B68     		ldr	r3, [r3]
 1781 0012 022B     		cmp	r3, #2
 1782 0014 03D0     		beq	.L189
ARM GAS  /tmp/ccjsdB5h.s 			page 63


 1783              	.L183:
 545:Middlewares/Third_Party/FreeRTOS/Source/CMSIS_RTOS_V2/cmsis_os2.c ****     prio = osPriorityError;
 1784              		.loc 1 545 0 discriminator 5
 1785 0016 78B1     		cbz	r0, .L187
 548:Middlewares/Third_Party/FreeRTOS/Source/CMSIS_RTOS_V2/cmsis_os2.c ****   }
 1786              		.loc 1 548 0 is_stmt 1
 1787 0018 FFF7FEFF 		bl	uxTaskPriorityGet
 1788              	.LVL129:
 1789              	.L181:
 552:Middlewares/Third_Party/FreeRTOS/Source/CMSIS_RTOS_V2/cmsis_os2.c **** 
 1790              		.loc 1 552 0
 1791 001c 08BD     		pop	{r3, pc}
 1792              	.LVL130:
 1793              	.L189:
 1794              	.LBB414:
 1795              	.LBB415:
 1796              		.loc 2 465 0
 1797              		.syntax unified
 1798              	@ 465 "Drivers/CMSIS/Include/cmsis_gcc.h" 1
 1799 001e EFF31183 		MRS r3, basepri
 1800              	@ 0 "" 2
 1801              		.thumb
 1802              		.syntax unified
 1803              	.LBE415:
 1804              	.LBE414:
 545:Middlewares/Third_Party/FreeRTOS/Source/CMSIS_RTOS_V2/cmsis_os2.c ****     prio = osPriorityError;
 1805              		.loc 1 545 0
 1806 0022 002B     		cmp	r3, #0
 1807 0024 F7D0     		beq	.L183
 546:Middlewares/Third_Party/FreeRTOS/Source/CMSIS_RTOS_V2/cmsis_os2.c ****   } else {
 1808              		.loc 1 546 0
 1809 0026 4FF0FF30 		mov	r0, #-1
 1810              	.LVL131:
 1811 002a F7E7     		b	.L181
 1812              	.LVL132:
 1813              	.L184:
 1814 002c 4FF0FF30 		mov	r0, #-1
 1815              	.LVL133:
 1816 0030 F4E7     		b	.L181
 1817              	.LVL134:
 1818              	.L185:
 1819 0032 4FF0FF30 		mov	r0, #-1
 1820              	.LVL135:
 1821 0036 F1E7     		b	.L181
 1822              	.LVL136:
 1823              	.L187:
 1824 0038 4FF0FF30 		mov	r0, #-1
 1825              	.LVL137:
 551:Middlewares/Third_Party/FreeRTOS/Source/CMSIS_RTOS_V2/cmsis_os2.c **** }
 1826              		.loc 1 551 0
 1827 003c EEE7     		b	.L181
 1828              	.L191:
 1829 003e 00BF     		.align	2
 1830              	.L190:
 1831 0040 00000000 		.word	.LANCHOR0
 1832              		.cfi_endproc
 1833              	.LFE124:
ARM GAS  /tmp/ccjsdB5h.s 			page 64


 1835              		.section	.text.osThreadYield,"ax",%progbits
 1836              		.align	1
 1837              		.global	osThreadYield
 1838              		.syntax unified
 1839              		.thumb
 1840              		.thumb_func
 1841              		.fpu fpv4-sp-d16
 1843              	osThreadYield:
 1844              	.LFB125:
 554:Middlewares/Third_Party/FreeRTOS/Source/CMSIS_RTOS_V2/cmsis_os2.c ****   osStatus_t stat;
 1845              		.loc 1 554 0
 1846              		.cfi_startproc
 1847              		@ args = 0, pretend = 0, frame = 0
 1848              		@ frame_needed = 0, uses_anonymous_args = 0
 1849              		@ link register save eliminated.
 1850              	.LBB416:
 1851              	.LBB417:
 209:Drivers/CMSIS/Include/cmsis_gcc.h ****   return(result);
 1852              		.loc 2 209 0
 1853              		.syntax unified
 1854              	@ 209 "Drivers/CMSIS/Include/cmsis_gcc.h" 1
 1855 0000 EFF30583 		MRS r3, ipsr
 1856              	@ 0 "" 2
 1857              		.thumb
 1858              		.syntax unified
 1859              	.LBE417:
 1860              	.LBE416:
 557:Middlewares/Third_Party/FreeRTOS/Source/CMSIS_RTOS_V2/cmsis_os2.c ****     stat = osErrorISR;
 1861              		.loc 1 557 0
 1862 0004 BBB9     		cbnz	r3, .L195
 1863              	.LBB418:
 1864              	.LBB419:
 386:Drivers/CMSIS/Include/cmsis_gcc.h ****   return(result);
 1865              		.loc 2 386 0
 1866              		.syntax unified
 1867              	@ 386 "Drivers/CMSIS/Include/cmsis_gcc.h" 1
 1868 0006 EFF31083 		MRS r3, primask
 1869              	@ 0 "" 2
 1870              		.thumb
 1871              		.syntax unified
 1872              	.LBE419:
 1873              	.LBE418:
 557:Middlewares/Third_Party/FreeRTOS/Source/CMSIS_RTOS_V2/cmsis_os2.c ****     stat = osErrorISR;
 1874              		.loc 1 557 0
 1875 000a BBB9     		cbnz	r3, .L196
 557:Middlewares/Third_Party/FreeRTOS/Source/CMSIS_RTOS_V2/cmsis_os2.c ****     stat = osErrorISR;
 1876              		.loc 1 557 0 is_stmt 0 discriminator 2
 1877 000c 0D4B     		ldr	r3, .L199
 1878 000e 1B68     		ldr	r3, [r3]
 1879 0010 022B     		cmp	r3, #2
 1880 0012 09D0     		beq	.L198
 1881              	.L194:
 1882              	.LVL138:
 561:Middlewares/Third_Party/FreeRTOS/Source/CMSIS_RTOS_V2/cmsis_os2.c ****   }
 1883              		.loc 1 561 0 is_stmt 1
 1884 0014 0C4B     		ldr	r3, .L199+4
 1885 0016 4FF08052 		mov	r2, #268435456
ARM GAS  /tmp/ccjsdB5h.s 			page 65


 1886 001a 1A60     		str	r2, [r3]
 1887              		.syntax unified
 1888              	@ 561 "Middlewares/Third_Party/FreeRTOS/Source/CMSIS_RTOS_V2/cmsis_os2.c" 1
 1889 001c BFF34F8F 		dsb
 1890              	@ 0 "" 2
 1891              	@ 561 "Middlewares/Third_Party/FreeRTOS/Source/CMSIS_RTOS_V2/cmsis_os2.c" 1
 1892 0020 BFF36F8F 		isb
 1893              	@ 0 "" 2
 560:Middlewares/Third_Party/FreeRTOS/Source/CMSIS_RTOS_V2/cmsis_os2.c ****     taskYIELD();
 1894              		.loc 1 560 0
 1895              		.thumb
 1896              		.syntax unified
 1897 0024 0020     		movs	r0, #0
 1898 0026 7047     		bx	lr
 1899              	.LVL139:
 1900              	.L198:
 1901              	.LBB420:
 1902              	.LBB421:
 1903              		.loc 2 465 0
 1904              		.syntax unified
 1905              	@ 465 "Drivers/CMSIS/Include/cmsis_gcc.h" 1
 1906 0028 EFF31183 		MRS r3, basepri
 1907              	@ 0 "" 2
 1908              		.thumb
 1909              		.syntax unified
 1910              	.LBE421:
 1911              	.LBE420:
 557:Middlewares/Third_Party/FreeRTOS/Source/CMSIS_RTOS_V2/cmsis_os2.c ****     stat = osErrorISR;
 1912              		.loc 1 557 0
 1913 002c 002B     		cmp	r3, #0
 1914 002e F1D0     		beq	.L194
 558:Middlewares/Third_Party/FreeRTOS/Source/CMSIS_RTOS_V2/cmsis_os2.c ****   } else {
 1915              		.loc 1 558 0
 1916 0030 6FF00500 		mvn	r0, #5
 1917              	.LVL140:
 565:Middlewares/Third_Party/FreeRTOS/Source/CMSIS_RTOS_V2/cmsis_os2.c **** 
 1918              		.loc 1 565 0
 1919 0034 7047     		bx	lr
 1920              	.LVL141:
 1921              	.L195:
 558:Middlewares/Third_Party/FreeRTOS/Source/CMSIS_RTOS_V2/cmsis_os2.c ****   } else {
 1922              		.loc 1 558 0
 1923 0036 6FF00500 		mvn	r0, #5
 1924 003a 7047     		bx	lr
 1925              	.L196:
 1926 003c 6FF00500 		mvn	r0, #5
 1927 0040 7047     		bx	lr
 1928              	.L200:
 1929 0042 00BF     		.align	2
 1930              	.L199:
 1931 0044 00000000 		.word	.LANCHOR0
 1932 0048 04ED00E0 		.word	-536810236
 1933              		.cfi_endproc
 1934              	.LFE125:
 1936              		.section	.text.osThreadSuspend,"ax",%progbits
 1937              		.align	1
 1938              		.global	osThreadSuspend
ARM GAS  /tmp/ccjsdB5h.s 			page 66


 1939              		.syntax unified
 1940              		.thumb
 1941              		.thumb_func
 1942              		.fpu fpv4-sp-d16
 1944              	osThreadSuspend:
 1945              	.LFB126:
 567:Middlewares/Third_Party/FreeRTOS/Source/CMSIS_RTOS_V2/cmsis_os2.c ****   TaskHandle_t hTask = (TaskHandle_t)thread_id;
 1946              		.loc 1 567 0
 1947              		.cfi_startproc
 1948              		@ args = 0, pretend = 0, frame = 0
 1949              		@ frame_needed = 0, uses_anonymous_args = 0
 1950              	.LVL142:
 1951 0000 08B5     		push	{r3, lr}
 1952              	.LCFI21:
 1953              		.cfi_def_cfa_offset 8
 1954              		.cfi_offset 3, -8
 1955              		.cfi_offset 14, -4
 1956              	.LVL143:
 1957              	.LBB422:
 1958              	.LBB423:
 209:Drivers/CMSIS/Include/cmsis_gcc.h ****   return(result);
 1959              		.loc 2 209 0
 1960              		.syntax unified
 1961              	@ 209 "Drivers/CMSIS/Include/cmsis_gcc.h" 1
 1962 0002 EFF30583 		MRS r3, ipsr
 1963              	@ 0 "" 2
 1964              		.thumb
 1965              		.syntax unified
 1966              	.LBE423:
 1967              	.LBE422:
 571:Middlewares/Third_Party/FreeRTOS/Source/CMSIS_RTOS_V2/cmsis_os2.c ****     stat = osErrorISR;
 1968              		.loc 1 571 0
 1969 0006 93B9     		cbnz	r3, .L204
 1970              	.LBB424:
 1971              	.LBB425:
 386:Drivers/CMSIS/Include/cmsis_gcc.h ****   return(result);
 1972              		.loc 2 386 0
 1973              		.syntax unified
 1974              	@ 386 "Drivers/CMSIS/Include/cmsis_gcc.h" 1
 1975 0008 EFF31083 		MRS r3, primask
 1976              	@ 0 "" 2
 1977              		.thumb
 1978              		.syntax unified
 1979              	.LBE425:
 1980              	.LBE424:
 571:Middlewares/Third_Party/FreeRTOS/Source/CMSIS_RTOS_V2/cmsis_os2.c ****     stat = osErrorISR;
 1981              		.loc 1 571 0
 1982 000c 93B9     		cbnz	r3, .L205
 571:Middlewares/Third_Party/FreeRTOS/Source/CMSIS_RTOS_V2/cmsis_os2.c ****     stat = osErrorISR;
 1983              		.loc 1 571 0 is_stmt 0 discriminator 2
 1984 000e 0C4B     		ldr	r3, .L210
 1985 0010 1B68     		ldr	r3, [r3]
 1986 0012 022B     		cmp	r3, #2
 1987 0014 04D0     		beq	.L209
 1988              	.L203:
 574:Middlewares/Third_Party/FreeRTOS/Source/CMSIS_RTOS_V2/cmsis_os2.c ****     stat = osErrorParameter;
 1989              		.loc 1 574 0 is_stmt 1
ARM GAS  /tmp/ccjsdB5h.s 			page 67


 1990 0016 80B1     		cbz	r0, .L207
 1991              	.LVL144:
 579:Middlewares/Third_Party/FreeRTOS/Source/CMSIS_RTOS_V2/cmsis_os2.c ****   }
 1992              		.loc 1 579 0
 1993 0018 FFF7FEFF 		bl	vTaskSuspend
 1994              	.LVL145:
 578:Middlewares/Third_Party/FreeRTOS/Source/CMSIS_RTOS_V2/cmsis_os2.c ****     vTaskSuspend (hTask);
 1995              		.loc 1 578 0
 1996 001c 0020     		movs	r0, #0
 1997              	.LVL146:
 1998              	.L201:
 583:Middlewares/Third_Party/FreeRTOS/Source/CMSIS_RTOS_V2/cmsis_os2.c **** 
 1999              		.loc 1 583 0
 2000 001e 08BD     		pop	{r3, pc}
 2001              	.LVL147:
 2002              	.L209:
 2003              	.LBB426:
 2004              	.LBB427:
 2005              		.loc 2 465 0
 2006              		.syntax unified
 2007              	@ 465 "Drivers/CMSIS/Include/cmsis_gcc.h" 1
 2008 0020 EFF31183 		MRS r3, basepri
 2009              	@ 0 "" 2
 2010              		.thumb
 2011              		.syntax unified
 2012              	.LBE427:
 2013              	.LBE426:
 571:Middlewares/Third_Party/FreeRTOS/Source/CMSIS_RTOS_V2/cmsis_os2.c ****     stat = osErrorISR;
 2014              		.loc 1 571 0
 2015 0024 002B     		cmp	r3, #0
 2016 0026 F6D0     		beq	.L203
 572:Middlewares/Third_Party/FreeRTOS/Source/CMSIS_RTOS_V2/cmsis_os2.c ****   }
 2017              		.loc 1 572 0
 2018 0028 6FF00500 		mvn	r0, #5
 2019              	.LVL148:
 2020 002c F7E7     		b	.L201
 2021              	.LVL149:
 2022              	.L204:
 2023 002e 6FF00500 		mvn	r0, #5
 2024              	.LVL150:
 2025 0032 F4E7     		b	.L201
 2026              	.LVL151:
 2027              	.L205:
 2028 0034 6FF00500 		mvn	r0, #5
 2029              	.LVL152:
 2030 0038 F1E7     		b	.L201
 2031              	.LVL153:
 2032              	.L207:
 575:Middlewares/Third_Party/FreeRTOS/Source/CMSIS_RTOS_V2/cmsis_os2.c ****   }
 2033              		.loc 1 575 0
 2034 003a 6FF00300 		mvn	r0, #3
 2035              	.LVL154:
 582:Middlewares/Third_Party/FreeRTOS/Source/CMSIS_RTOS_V2/cmsis_os2.c **** }
 2036              		.loc 1 582 0
 2037 003e EEE7     		b	.L201
 2038              	.L211:
 2039              		.align	2
ARM GAS  /tmp/ccjsdB5h.s 			page 68


 2040              	.L210:
 2041 0040 00000000 		.word	.LANCHOR0
 2042              		.cfi_endproc
 2043              	.LFE126:
 2045              		.section	.text.osThreadResume,"ax",%progbits
 2046              		.align	1
 2047              		.global	osThreadResume
 2048              		.syntax unified
 2049              		.thumb
 2050              		.thumb_func
 2051              		.fpu fpv4-sp-d16
 2053              	osThreadResume:
 2054              	.LFB127:
 585:Middlewares/Third_Party/FreeRTOS/Source/CMSIS_RTOS_V2/cmsis_os2.c ****   TaskHandle_t hTask = (TaskHandle_t)thread_id;
 2055              		.loc 1 585 0
 2056              		.cfi_startproc
 2057              		@ args = 0, pretend = 0, frame = 0
 2058              		@ frame_needed = 0, uses_anonymous_args = 0
 2059              	.LVL155:
 2060 0000 08B5     		push	{r3, lr}
 2061              	.LCFI22:
 2062              		.cfi_def_cfa_offset 8
 2063              		.cfi_offset 3, -8
 2064              		.cfi_offset 14, -4
 2065              	.LVL156:
 2066              	.LBB428:
 2067              	.LBB429:
 209:Drivers/CMSIS/Include/cmsis_gcc.h ****   return(result);
 2068              		.loc 2 209 0
 2069              		.syntax unified
 2070              	@ 209 "Drivers/CMSIS/Include/cmsis_gcc.h" 1
 2071 0002 EFF30583 		MRS r3, ipsr
 2072              	@ 0 "" 2
 2073              		.thumb
 2074              		.syntax unified
 2075              	.LBE429:
 2076              	.LBE428:
 589:Middlewares/Third_Party/FreeRTOS/Source/CMSIS_RTOS_V2/cmsis_os2.c ****     stat = osErrorISR;
 2077              		.loc 1 589 0
 2078 0006 93B9     		cbnz	r3, .L215
 2079              	.LBB430:
 2080              	.LBB431:
 386:Drivers/CMSIS/Include/cmsis_gcc.h ****   return(result);
 2081              		.loc 2 386 0
 2082              		.syntax unified
 2083              	@ 386 "Drivers/CMSIS/Include/cmsis_gcc.h" 1
 2084 0008 EFF31083 		MRS r3, primask
 2085              	@ 0 "" 2
 2086              		.thumb
 2087              		.syntax unified
 2088              	.LBE431:
 2089              	.LBE430:
 589:Middlewares/Third_Party/FreeRTOS/Source/CMSIS_RTOS_V2/cmsis_os2.c ****     stat = osErrorISR;
 2090              		.loc 1 589 0
 2091 000c 93B9     		cbnz	r3, .L216
 589:Middlewares/Third_Party/FreeRTOS/Source/CMSIS_RTOS_V2/cmsis_os2.c ****     stat = osErrorISR;
 2092              		.loc 1 589 0 is_stmt 0 discriminator 2
ARM GAS  /tmp/ccjsdB5h.s 			page 69


 2093 000e 0C4B     		ldr	r3, .L221
 2094 0010 1B68     		ldr	r3, [r3]
 2095 0012 022B     		cmp	r3, #2
 2096 0014 04D0     		beq	.L220
 2097              	.L214:
 592:Middlewares/Third_Party/FreeRTOS/Source/CMSIS_RTOS_V2/cmsis_os2.c ****     stat = osErrorParameter;
 2098              		.loc 1 592 0 is_stmt 1
 2099 0016 80B1     		cbz	r0, .L218
 2100              	.LVL157:
 597:Middlewares/Third_Party/FreeRTOS/Source/CMSIS_RTOS_V2/cmsis_os2.c ****   }
 2101              		.loc 1 597 0
 2102 0018 FFF7FEFF 		bl	vTaskResume
 2103              	.LVL158:
 596:Middlewares/Third_Party/FreeRTOS/Source/CMSIS_RTOS_V2/cmsis_os2.c ****     vTaskResume (hTask);
 2104              		.loc 1 596 0
 2105 001c 0020     		movs	r0, #0
 2106              	.LVL159:
 2107              	.L212:
 601:Middlewares/Third_Party/FreeRTOS/Source/CMSIS_RTOS_V2/cmsis_os2.c **** 
 2108              		.loc 1 601 0
 2109 001e 08BD     		pop	{r3, pc}
 2110              	.LVL160:
 2111              	.L220:
 2112              	.LBB432:
 2113              	.LBB433:
 2114              		.loc 2 465 0
 2115              		.syntax unified
 2116              	@ 465 "Drivers/CMSIS/Include/cmsis_gcc.h" 1
 2117 0020 EFF31183 		MRS r3, basepri
 2118              	@ 0 "" 2
 2119              		.thumb
 2120              		.syntax unified
 2121              	.LBE433:
 2122              	.LBE432:
 589:Middlewares/Third_Party/FreeRTOS/Source/CMSIS_RTOS_V2/cmsis_os2.c ****     stat = osErrorISR;
 2123              		.loc 1 589 0
 2124 0024 002B     		cmp	r3, #0
 2125 0026 F6D0     		beq	.L214
 590:Middlewares/Third_Party/FreeRTOS/Source/CMSIS_RTOS_V2/cmsis_os2.c ****   }
 2126              		.loc 1 590 0
 2127 0028 6FF00500 		mvn	r0, #5
 2128              	.LVL161:
 2129 002c F7E7     		b	.L212
 2130              	.LVL162:
 2131              	.L215:
 2132 002e 6FF00500 		mvn	r0, #5
 2133              	.LVL163:
 2134 0032 F4E7     		b	.L212
 2135              	.LVL164:
 2136              	.L216:
 2137 0034 6FF00500 		mvn	r0, #5
 2138              	.LVL165:
 2139 0038 F1E7     		b	.L212
 2140              	.LVL166:
 2141              	.L218:
 593:Middlewares/Third_Party/FreeRTOS/Source/CMSIS_RTOS_V2/cmsis_os2.c ****   }
 2142              		.loc 1 593 0
ARM GAS  /tmp/ccjsdB5h.s 			page 70


 2143 003a 6FF00300 		mvn	r0, #3
 2144              	.LVL167:
 600:Middlewares/Third_Party/FreeRTOS/Source/CMSIS_RTOS_V2/cmsis_os2.c **** }
 2145              		.loc 1 600 0
 2146 003e EEE7     		b	.L212
 2147              	.L222:
 2148              		.align	2
 2149              	.L221:
 2150 0040 00000000 		.word	.LANCHOR0
 2151              		.cfi_endproc
 2152              	.LFE127:
 2154              		.section	.text.osThreadExit,"ax",%progbits
 2155              		.align	1
 2156              		.global	osThreadExit
 2157              		.syntax unified
 2158              		.thumb
 2159              		.thumb_func
 2160              		.fpu fpv4-sp-d16
 2162              	osThreadExit:
 2163              	.LFB128:
 603:Middlewares/Third_Party/FreeRTOS/Source/CMSIS_RTOS_V2/cmsis_os2.c **** #ifndef USE_FreeRTOS_HEAP_1
 2164              		.loc 1 603 0
 2165              		.cfi_startproc
 2166              		@ Volatile: function does not return.
 2167              		@ args = 0, pretend = 0, frame = 0
 2168              		@ frame_needed = 0, uses_anonymous_args = 0
 2169 0000 08B5     		push	{r3, lr}
 2170              	.LCFI23:
 2171              		.cfi_def_cfa_offset 8
 2172              		.cfi_offset 3, -8
 2173              		.cfi_offset 14, -4
 605:Middlewares/Third_Party/FreeRTOS/Source/CMSIS_RTOS_V2/cmsis_os2.c **** #endif
 2174              		.loc 1 605 0
 2175 0002 0020     		movs	r0, #0
 2176 0004 FFF7FEFF 		bl	vTaskDelete
 2177              	.LVL168:
 2178              	.L224:
 2179 0008 FEE7     		b	.L224
 2180              		.cfi_endproc
 2181              	.LFE128:
 2183              		.section	.text.osThreadTerminate,"ax",%progbits
 2184              		.align	1
 2185              		.global	osThreadTerminate
 2186              		.syntax unified
 2187              		.thumb
 2188              		.thumb_func
 2189              		.fpu fpv4-sp-d16
 2191              	osThreadTerminate:
 2192              	.LFB129:
 610:Middlewares/Third_Party/FreeRTOS/Source/CMSIS_RTOS_V2/cmsis_os2.c ****   TaskHandle_t hTask = (TaskHandle_t)thread_id;
 2193              		.loc 1 610 0
 2194              		.cfi_startproc
 2195              		@ args = 0, pretend = 0, frame = 0
 2196              		@ frame_needed = 0, uses_anonymous_args = 0
 2197              	.LVL169:
 2198              	.LBB434:
 2199              	.LBB435:
ARM GAS  /tmp/ccjsdB5h.s 			page 71


 209:Drivers/CMSIS/Include/cmsis_gcc.h ****   return(result);
 2200              		.loc 2 209 0
 2201              		.syntax unified
 2202              	@ 209 "Drivers/CMSIS/Include/cmsis_gcc.h" 1
 2203 0000 EFF30583 		MRS r3, ipsr
 2204              	@ 0 "" 2
 2205              		.thumb
 2206              		.syntax unified
 2207              	.LBE435:
 2208              	.LBE434:
 616:Middlewares/Third_Party/FreeRTOS/Source/CMSIS_RTOS_V2/cmsis_os2.c ****     stat = osErrorISR;
 2209              		.loc 1 616 0
 2210 0004 CBB9     		cbnz	r3, .L229
 2211              	.LBB436:
 2212              	.LBB437:
 386:Drivers/CMSIS/Include/cmsis_gcc.h ****   return(result);
 2213              		.loc 2 386 0
 2214              		.syntax unified
 2215              	@ 386 "Drivers/CMSIS/Include/cmsis_gcc.h" 1
 2216 0006 EFF31083 		MRS r3, primask
 2217              	@ 0 "" 2
 2218              		.thumb
 2219              		.syntax unified
 2220              	.LBE437:
 2221              	.LBE436:
 616:Middlewares/Third_Party/FreeRTOS/Source/CMSIS_RTOS_V2/cmsis_os2.c ****     stat = osErrorISR;
 2222              		.loc 1 616 0
 2223 000a CBB9     		cbnz	r3, .L230
 616:Middlewares/Third_Party/FreeRTOS/Source/CMSIS_RTOS_V2/cmsis_os2.c ****     stat = osErrorISR;
 2224              		.loc 1 616 0 is_stmt 0 discriminator 2
 2225 000c 114B     		ldr	r3, .L239
 2226 000e 1B68     		ldr	r3, [r3]
 2227 0010 022B     		cmp	r3, #2
 2228 0012 0BD0     		beq	.L238
 2229              	.L228:
 619:Middlewares/Third_Party/FreeRTOS/Source/CMSIS_RTOS_V2/cmsis_os2.c ****     stat = osErrorParameter;
 2230              		.loc 1 619 0 is_stmt 1
 2231 0014 B8B1     		cbz	r0, .L232
 610:Middlewares/Third_Party/FreeRTOS/Source/CMSIS_RTOS_V2/cmsis_os2.c ****   TaskHandle_t hTask = (TaskHandle_t)thread_id;
 2232              		.loc 1 610 0
 2233 0016 10B5     		push	{r4, lr}
 2234              	.LCFI24:
 2235              		.cfi_def_cfa_offset 8
 2236              		.cfi_offset 4, -8
 2237              		.cfi_offset 14, -4
 2238 0018 0446     		mov	r4, r0
 623:Middlewares/Third_Party/FreeRTOS/Source/CMSIS_RTOS_V2/cmsis_os2.c **** 
 2239              		.loc 1 623 0
 2240 001a FFF7FEFF 		bl	eTaskGetState
 2241              	.LVL170:
 625:Middlewares/Third_Party/FreeRTOS/Source/CMSIS_RTOS_V2/cmsis_os2.c ****       stat = osOK;
 2242              		.loc 1 625 0
 2243 001e 0428     		cmp	r0, #4
 2244 0020 14D0     		beq	.L233
 2245              	.LVL171:
 627:Middlewares/Third_Party/FreeRTOS/Source/CMSIS_RTOS_V2/cmsis_os2.c ****     } else {
 2246              		.loc 1 627 0
ARM GAS  /tmp/ccjsdB5h.s 			page 72


 2247 0022 2046     		mov	r0, r4
 2248              	.LVL172:
 2249 0024 FFF7FEFF 		bl	vTaskDelete
 2250              	.LVL173:
 626:Middlewares/Third_Party/FreeRTOS/Source/CMSIS_RTOS_V2/cmsis_os2.c ****       vTaskDelete (hTask);
 2251              		.loc 1 626 0
 2252 0028 0020     		movs	r0, #0
 2253              	.LVL174:
 2254              	.L226:
 637:Middlewares/Third_Party/FreeRTOS/Source/CMSIS_RTOS_V2/cmsis_os2.c **** 
 2255              		.loc 1 637 0
 2256 002a 10BD     		pop	{r4, pc}
 2257              	.LVL175:
 2258              	.L238:
 2259              	.LCFI25:
 2260              		.cfi_def_cfa_offset 0
 2261              		.cfi_restore 4
 2262              		.cfi_restore 14
 2263              	.LBB438:
 2264              	.LBB439:
 2265              		.loc 2 465 0
 2266              		.syntax unified
 2267              	@ 465 "Drivers/CMSIS/Include/cmsis_gcc.h" 1
 2268 002c EFF31183 		MRS r3, basepri
 2269              	@ 0 "" 2
 2270              		.thumb
 2271              		.syntax unified
 2272              	.LBE439:
 2273              	.LBE438:
 616:Middlewares/Third_Party/FreeRTOS/Source/CMSIS_RTOS_V2/cmsis_os2.c ****     stat = osErrorISR;
 2274              		.loc 1 616 0
 2275 0030 002B     		cmp	r3, #0
 2276 0032 EFD0     		beq	.L228
 617:Middlewares/Third_Party/FreeRTOS/Source/CMSIS_RTOS_V2/cmsis_os2.c ****   }
 2277              		.loc 1 617 0
 2278 0034 6FF00500 		mvn	r0, #5
 2279              	.LVL176:
 2280 0038 7047     		bx	lr
 2281              	.LVL177:
 2282              	.L229:
 2283 003a 6FF00500 		mvn	r0, #5
 2284              	.LVL178:
 2285 003e 7047     		bx	lr
 2286              	.LVL179:
 2287              	.L230:
 2288 0040 6FF00500 		mvn	r0, #5
 2289              	.LVL180:
 2290 0044 7047     		bx	lr
 2291              	.LVL181:
 2292              	.L232:
 620:Middlewares/Third_Party/FreeRTOS/Source/CMSIS_RTOS_V2/cmsis_os2.c ****   }
 2293              		.loc 1 620 0
 2294 0046 6FF00300 		mvn	r0, #3
 2295              	.LVL182:
 637:Middlewares/Third_Party/FreeRTOS/Source/CMSIS_RTOS_V2/cmsis_os2.c **** 
 2296              		.loc 1 637 0
 2297 004a 7047     		bx	lr
ARM GAS  /tmp/ccjsdB5h.s 			page 73


 2298              	.LVL183:
 2299              	.L233:
 2300              	.LCFI26:
 2301              		.cfi_def_cfa_offset 8
 2302              		.cfi_offset 4, -8
 2303              		.cfi_offset 14, -4
 629:Middlewares/Third_Party/FreeRTOS/Source/CMSIS_RTOS_V2/cmsis_os2.c ****     }
 2304              		.loc 1 629 0
 2305 004c 6FF00200 		mvn	r0, #2
 2306              	.LVL184:
 636:Middlewares/Third_Party/FreeRTOS/Source/CMSIS_RTOS_V2/cmsis_os2.c **** }
 2307              		.loc 1 636 0
 2308 0050 EBE7     		b	.L226
 2309              	.L240:
 2310 0052 00BF     		.align	2
 2311              	.L239:
 2312 0054 00000000 		.word	.LANCHOR0
 2313              		.cfi_endproc
 2314              	.LFE129:
 2316              		.section	.text.osThreadGetCount,"ax",%progbits
 2317              		.align	1
 2318              		.global	osThreadGetCount
 2319              		.syntax unified
 2320              		.thumb
 2321              		.thumb_func
 2322              		.fpu fpv4-sp-d16
 2324              	osThreadGetCount:
 2325              	.LFB130:
 639:Middlewares/Third_Party/FreeRTOS/Source/CMSIS_RTOS_V2/cmsis_os2.c ****   uint32_t count;
 2326              		.loc 1 639 0
 2327              		.cfi_startproc
 2328              		@ args = 0, pretend = 0, frame = 0
 2329              		@ frame_needed = 0, uses_anonymous_args = 0
 2330              	.LBB440:
 2331              	.LBB441:
 209:Drivers/CMSIS/Include/cmsis_gcc.h ****   return(result);
 2332              		.loc 2 209 0
 2333              		.syntax unified
 2334              	@ 209 "Drivers/CMSIS/Include/cmsis_gcc.h" 1
 2335 0000 EFF30580 		MRS r0, ipsr
 2336              	@ 0 "" 2
 2337              		.thumb
 2338              		.syntax unified
 2339              	.LBE441:
 2340              	.LBE440:
 642:Middlewares/Third_Party/FreeRTOS/Source/CMSIS_RTOS_V2/cmsis_os2.c ****     count = 0U;
 2341              		.loc 1 642 0
 2342 0004 68B9     		cbnz	r0, .L244
 639:Middlewares/Third_Party/FreeRTOS/Source/CMSIS_RTOS_V2/cmsis_os2.c ****   uint32_t count;
 2343              		.loc 1 639 0
 2344 0006 08B5     		push	{r3, lr}
 2345              	.LCFI27:
 2346              		.cfi_def_cfa_offset 8
 2347              		.cfi_offset 3, -8
 2348              		.cfi_offset 14, -4
 2349              	.LBB442:
 2350              	.LBB443:
ARM GAS  /tmp/ccjsdB5h.s 			page 74


 386:Drivers/CMSIS/Include/cmsis_gcc.h ****   return(result);
 2351              		.loc 2 386 0
 2352              		.syntax unified
 2353              	@ 386 "Drivers/CMSIS/Include/cmsis_gcc.h" 1
 2354 0008 EFF31083 		MRS r3, primask
 2355              	@ 0 "" 2
 2356              		.thumb
 2357              		.syntax unified
 2358              	.LBE443:
 2359              	.LBE442:
 642:Middlewares/Third_Party/FreeRTOS/Source/CMSIS_RTOS_V2/cmsis_os2.c ****     count = 0U;
 2360              		.loc 1 642 0
 2361 000c 43B9     		cbnz	r3, .L241
 642:Middlewares/Third_Party/FreeRTOS/Source/CMSIS_RTOS_V2/cmsis_os2.c ****     count = 0U;
 2362              		.loc 1 642 0 is_stmt 0 discriminator 2
 2363 000e 074A     		ldr	r2, .L250
 2364 0010 1268     		ldr	r2, [r2]
 2365 0012 022A     		cmp	r2, #2
 2366 0014 02D1     		bne	.L243
 2367              	.LBB444:
 2368              	.LBB445:
 2369              		.loc 2 465 0 is_stmt 1
 2370              		.syntax unified
 2371              	@ 465 "Drivers/CMSIS/Include/cmsis_gcc.h" 1
 2372 0016 EFF31182 		MRS r2, basepri
 2373              	@ 0 "" 2
 2374              		.thumb
 2375              		.syntax unified
 2376              	.LBE445:
 2377              	.LBE444:
 642:Middlewares/Third_Party/FreeRTOS/Source/CMSIS_RTOS_V2/cmsis_os2.c ****     count = 0U;
 2378              		.loc 1 642 0
 2379 001a 22B9     		cbnz	r2, .L245
 2380              	.L243:
 645:Middlewares/Third_Party/FreeRTOS/Source/CMSIS_RTOS_V2/cmsis_os2.c ****   }
 2381              		.loc 1 645 0
 2382 001c FFF7FEFF 		bl	uxTaskGetNumberOfTasks
 2383              	.LVL185:
 2384              	.L241:
 649:Middlewares/Third_Party/FreeRTOS/Source/CMSIS_RTOS_V2/cmsis_os2.c **** 
 2385              		.loc 1 649 0
 2386 0020 08BD     		pop	{r3, pc}
 2387              	.L244:
 2388              	.LCFI28:
 2389              		.cfi_def_cfa_offset 0
 2390              		.cfi_restore 3
 2391              		.cfi_restore 14
 643:Middlewares/Third_Party/FreeRTOS/Source/CMSIS_RTOS_V2/cmsis_os2.c ****   } else {
 2392              		.loc 1 643 0
 2393 0022 0020     		movs	r0, #0
 649:Middlewares/Third_Party/FreeRTOS/Source/CMSIS_RTOS_V2/cmsis_os2.c **** 
 2394              		.loc 1 649 0
 2395 0024 7047     		bx	lr
 2396              	.L245:
 2397              	.LCFI29:
 2398              		.cfi_def_cfa_offset 8
 2399              		.cfi_offset 3, -8
ARM GAS  /tmp/ccjsdB5h.s 			page 75


 2400              		.cfi_offset 14, -4
 643:Middlewares/Third_Party/FreeRTOS/Source/CMSIS_RTOS_V2/cmsis_os2.c ****   } else {
 2401              		.loc 1 643 0
 2402 0026 1846     		mov	r0, r3
 648:Middlewares/Third_Party/FreeRTOS/Source/CMSIS_RTOS_V2/cmsis_os2.c **** }
 2403              		.loc 1 648 0
 2404 0028 FAE7     		b	.L241
 2405              	.L251:
 2406 002a 00BF     		.align	2
 2407              	.L250:
 2408 002c 00000000 		.word	.LANCHOR0
 2409              		.cfi_endproc
 2410              	.LFE130:
 2412              		.section	.text.osThreadEnumerate,"ax",%progbits
 2413              		.align	1
 2414              		.global	osThreadEnumerate
 2415              		.syntax unified
 2416              		.thumb
 2417              		.thumb_func
 2418              		.fpu fpv4-sp-d16
 2420              	osThreadEnumerate:
 2421              	.LFB131:
 651:Middlewares/Third_Party/FreeRTOS/Source/CMSIS_RTOS_V2/cmsis_os2.c ****   uint32_t i, count;
 2422              		.loc 1 651 0
 2423              		.cfi_startproc
 2424              		@ args = 0, pretend = 0, frame = 0
 2425              		@ frame_needed = 0, uses_anonymous_args = 0
 2426              	.LVL186:
 2427 0000 2DE9F041 		push	{r4, r5, r6, r7, r8, lr}
 2428              	.LCFI30:
 2429              		.cfi_def_cfa_offset 24
 2430              		.cfi_offset 4, -24
 2431              		.cfi_offset 5, -20
 2432              		.cfi_offset 6, -16
 2433              		.cfi_offset 7, -12
 2434              		.cfi_offset 8, -8
 2435              		.cfi_offset 14, -4
 2436              	.LBB446:
 2437              	.LBB447:
 209:Drivers/CMSIS/Include/cmsis_gcc.h ****   return(result);
 2438              		.loc 2 209 0
 2439              		.syntax unified
 2440              	@ 209 "Drivers/CMSIS/Include/cmsis_gcc.h" 1
 2441 0004 EFF30584 		MRS r4, ipsr
 2442              	@ 0 "" 2
 2443              		.thumb
 2444              		.syntax unified
 2445              	.LBE447:
 2446              	.LBE446:
 655:Middlewares/Third_Party/FreeRTOS/Source/CMSIS_RTOS_V2/cmsis_os2.c ****     count = 0U;
 2447              		.loc 1 655 0
 2448 0008 C4BB     		cbnz	r4, .L257
 2449              	.LBB448:
 2450              	.LBB449:
 386:Drivers/CMSIS/Include/cmsis_gcc.h ****   return(result);
 2451              		.loc 2 386 0
 2452              		.syntax unified
ARM GAS  /tmp/ccjsdB5h.s 			page 76


 2453              	@ 386 "Drivers/CMSIS/Include/cmsis_gcc.h" 1
 2454 000a EFF31087 		MRS r7, primask
 2455              	@ 0 "" 2
 2456              		.thumb
 2457              		.syntax unified
 2458              	.LBE449:
 2459              	.LBE448:
 655:Middlewares/Third_Party/FreeRTOS/Source/CMSIS_RTOS_V2/cmsis_os2.c ****     count = 0U;
 2460              		.loc 1 655 0
 2461 000e B7BB     		cbnz	r7, .L252
 655:Middlewares/Third_Party/FreeRTOS/Source/CMSIS_RTOS_V2/cmsis_os2.c ****     count = 0U;
 2462              		.loc 1 655 0 is_stmt 0 discriminator 2
 2463 0010 1D4B     		ldr	r3, .L267
 2464 0012 1B68     		ldr	r3, [r3]
 2465 0014 022B     		cmp	r3, #2
 2466 0016 03D0     		beq	.L265
 2467              	.L254:
 655:Middlewares/Third_Party/FreeRTOS/Source/CMSIS_RTOS_V2/cmsis_os2.c ****     count = 0U;
 2468              		.loc 1 655 0 discriminator 5
 2469 0018 A0B3     		cbz	r0, .L259
 655:Middlewares/Third_Party/FreeRTOS/Source/CMSIS_RTOS_V2/cmsis_os2.c ****     count = 0U;
 2470              		.loc 1 655 0 discriminator 6
 2471 001a 39B9     		cbnz	r1, .L266
 656:Middlewares/Third_Party/FreeRTOS/Source/CMSIS_RTOS_V2/cmsis_os2.c ****   } else {
 2472              		.loc 1 656 0 is_stmt 1
 2473 001c 0C46     		mov	r4, r1
 2474              	.LVL187:
 676:Middlewares/Third_Party/FreeRTOS/Source/CMSIS_RTOS_V2/cmsis_os2.c **** }
 2475              		.loc 1 676 0
 2476 001e 2EE0     		b	.L252
 2477              	.LVL188:
 2478              	.L265:
 2479              	.LBB450:
 2480              	.LBB451:
 2481              		.loc 2 465 0
 2482              		.syntax unified
 2483              	@ 465 "Drivers/CMSIS/Include/cmsis_gcc.h" 1
 2484 0020 EFF31183 		MRS r3, basepri
 2485              	@ 0 "" 2
 2486              		.thumb
 2487              		.syntax unified
 2488              	.LBE451:
 2489              	.LBE450:
 655:Middlewares/Third_Party/FreeRTOS/Source/CMSIS_RTOS_V2/cmsis_os2.c ****     count = 0U;
 2490              		.loc 1 655 0
 2491 0024 002B     		cmp	r3, #0
 2492 0026 F7D0     		beq	.L254
 656:Middlewares/Third_Party/FreeRTOS/Source/CMSIS_RTOS_V2/cmsis_os2.c ****   } else {
 2493              		.loc 1 656 0
 2494 0028 3C46     		mov	r4, r7
 2495 002a 28E0     		b	.L252
 2496              	.L266:
 2497 002c 0E46     		mov	r6, r1
 2498 002e 0546     		mov	r5, r0
 658:Middlewares/Third_Party/FreeRTOS/Source/CMSIS_RTOS_V2/cmsis_os2.c **** 
 2499              		.loc 1 658 0
 2500 0030 FFF7FEFF 		bl	vTaskSuspendAll
ARM GAS  /tmp/ccjsdB5h.s 			page 77


 2501              	.LVL189:
 660:Middlewares/Third_Party/FreeRTOS/Source/CMSIS_RTOS_V2/cmsis_os2.c ****     task  = pvPortMalloc (count * sizeof(TaskStatus_t));
 2502              		.loc 1 660 0
 2503 0034 FFF7FEFF 		bl	uxTaskGetNumberOfTasks
 2504              	.LVL190:
 2505 0038 0446     		mov	r4, r0
 2506              	.LVL191:
 661:Middlewares/Third_Party/FreeRTOS/Source/CMSIS_RTOS_V2/cmsis_os2.c **** 
 2507              		.loc 1 661 0
 2508 003a 00EBC000 		add	r0, r0, r0, lsl #3
 2509              	.LVL192:
 2510 003e 8000     		lsls	r0, r0, #2
 2511 0040 FFF7FEFF 		bl	pvPortMalloc
 2512              	.LVL193:
 663:Middlewares/Third_Party/FreeRTOS/Source/CMSIS_RTOS_V2/cmsis_os2.c ****       count = uxTaskGetSystemState (task, count, NULL);
 2513              		.loc 1 663 0
 2514 0044 8046     		mov	r8, r0
 2515 0046 88B1     		cbz	r0, .L255
 664:Middlewares/Third_Party/FreeRTOS/Source/CMSIS_RTOS_V2/cmsis_os2.c **** 
 2516              		.loc 1 664 0
 2517 0048 0022     		movs	r2, #0
 2518 004a 2146     		mov	r1, r4
 2519 004c FFF7FEFF 		bl	uxTaskGetSystemState
 2520              	.LVL194:
 666:Middlewares/Third_Party/FreeRTOS/Source/CMSIS_RTOS_V2/cmsis_os2.c ****         thread_array[i] = (osThreadId_t)task[i].xHandle;
 2521              		.loc 1 666 0
 2522 0050 0146     		mov	r1, r0
 2523 0052 88B1     		cbz	r0, .L261
 2524 0054 4346     		mov	r3, r8
 2525 0056 281F     		subs	r0, r5, #4
 2526              	.LVL195:
 2527 0058 3C46     		mov	r4, r7
 2528              	.LVL196:
 2529              	.L256:
 667:Middlewares/Third_Party/FreeRTOS/Source/CMSIS_RTOS_V2/cmsis_os2.c ****       }
 2530              		.loc 1 667 0 discriminator 4
 2531 005a 1A68     		ldr	r2, [r3]
 2532 005c 40F8042F 		str	r2, [r0, #4]!
 666:Middlewares/Third_Party/FreeRTOS/Source/CMSIS_RTOS_V2/cmsis_os2.c ****         thread_array[i] = (osThreadId_t)task[i].xHandle;
 2533              		.loc 1 666 0 discriminator 4
 2534 0060 0134     		adds	r4, r4, #1
 2535              	.LVL197:
 2536 0062 A142     		cmp	r1, r4
 2537 0064 02D0     		beq	.L255
 2538 0066 2433     		adds	r3, r3, #36
 666:Middlewares/Third_Party/FreeRTOS/Source/CMSIS_RTOS_V2/cmsis_os2.c ****         thread_array[i] = (osThreadId_t)task[i].xHandle;
 2539              		.loc 1 666 0 is_stmt 0 discriminator 3
 2540 0068 A642     		cmp	r6, r4
 2541 006a F6D1     		bne	.L256
 2542              	.LVL198:
 2543              	.L255:
 671:Middlewares/Third_Party/FreeRTOS/Source/CMSIS_RTOS_V2/cmsis_os2.c **** 
 2544              		.loc 1 671 0 is_stmt 1
 2545 006c FFF7FEFF 		bl	xTaskResumeAll
 2546              	.LVL199:
 673:Middlewares/Third_Party/FreeRTOS/Source/CMSIS_RTOS_V2/cmsis_os2.c ****   }
 2547              		.loc 1 673 0
ARM GAS  /tmp/ccjsdB5h.s 			page 78


 2548 0070 4046     		mov	r0, r8
 2549 0072 FFF7FEFF 		bl	vPortFree
 2550              	.LVL200:
 2551 0076 02E0     		b	.L252
 2552              	.LVL201:
 2553              	.L261:
 666:Middlewares/Third_Party/FreeRTOS/Source/CMSIS_RTOS_V2/cmsis_os2.c ****         thread_array[i] = (osThreadId_t)task[i].xHandle;
 2554              		.loc 1 666 0
 2555 0078 0446     		mov	r4, r0
 2556 007a F7E7     		b	.L255
 2557              	.LVL202:
 2558              	.L257:
 656:Middlewares/Third_Party/FreeRTOS/Source/CMSIS_RTOS_V2/cmsis_os2.c ****   } else {
 2559              		.loc 1 656 0
 2560 007c 0024     		movs	r4, #0
 2561              	.LVL203:
 2562              	.L252:
 677:Middlewares/Third_Party/FreeRTOS/Source/CMSIS_RTOS_V2/cmsis_os2.c **** 
 2563              		.loc 1 677 0
 2564 007e 2046     		mov	r0, r4
 2565 0080 BDE8F081 		pop	{r4, r5, r6, r7, r8, pc}
 2566              	.LVL204:
 2567              	.L259:
 656:Middlewares/Third_Party/FreeRTOS/Source/CMSIS_RTOS_V2/cmsis_os2.c ****   } else {
 2568              		.loc 1 656 0
 2569 0084 3C46     		mov	r4, r7
 2570 0086 FAE7     		b	.L252
 2571              	.L268:
 2572              		.align	2
 2573              	.L267:
 2574 0088 00000000 		.word	.LANCHOR0
 2575              		.cfi_endproc
 2576              	.LFE131:
 2578              		.section	.text.osThreadFlagsSet,"ax",%progbits
 2579              		.align	1
 2580              		.global	osThreadFlagsSet
 2581              		.syntax unified
 2582              		.thumb
 2583              		.thumb_func
 2584              		.fpu fpv4-sp-d16
 2586              	osThreadFlagsSet:
 2587              	.LFB132:
 679:Middlewares/Third_Party/FreeRTOS/Source/CMSIS_RTOS_V2/cmsis_os2.c ****   TaskHandle_t hTask = (TaskHandle_t)thread_id;
 2588              		.loc 1 679 0
 2589              		.cfi_startproc
 2590              		@ args = 0, pretend = 0, frame = 8
 2591              		@ frame_needed = 0, uses_anonymous_args = 0
 2592              	.LVL205:
 2593 0000 30B5     		push	{r4, r5, lr}
 2594              	.LCFI31:
 2595              		.cfi_def_cfa_offset 12
 2596              		.cfi_offset 4, -12
 2597              		.cfi_offset 5, -8
 2598              		.cfi_offset 14, -4
 2599 0002 85B0     		sub	sp, sp, #20
 2600              	.LCFI32:
 2601              		.cfi_def_cfa_offset 32
ARM GAS  /tmp/ccjsdB5h.s 			page 79


 2602              	.LVL206:
 684:Middlewares/Third_Party/FreeRTOS/Source/CMSIS_RTOS_V2/cmsis_os2.c ****     rflags = (uint32_t)osErrorParameter;
 2603              		.loc 1 684 0
 2604 0004 70B3     		cbz	r0, .L270
 2605 0006 0546     		mov	r5, r0
 684:Middlewares/Third_Party/FreeRTOS/Source/CMSIS_RTOS_V2/cmsis_os2.c ****     rflags = (uint32_t)osErrorParameter;
 2606              		.loc 1 684 0 is_stmt 0 discriminator 1
 2607 0008 0029     		cmp	r1, #0
 2608 000a 2BDB     		blt	.L270
 688:Middlewares/Third_Party/FreeRTOS/Source/CMSIS_RTOS_V2/cmsis_os2.c **** 
 2609              		.loc 1 688 0 is_stmt 1
 2610 000c 4FF0FF33 		mov	r3, #-1
 2611 0010 0393     		str	r3, [sp, #12]
 2612              	.LBB452:
 2613              	.LBB453:
 209:Drivers/CMSIS/Include/cmsis_gcc.h ****   return(result);
 2614              		.loc 2 209 0
 2615              		.syntax unified
 2616              	@ 209 "Drivers/CMSIS/Include/cmsis_gcc.h" 1
 2617 0012 EFF30583 		MRS r3, ipsr
 2618              	@ 0 "" 2
 2619              		.thumb
 2620              		.syntax unified
 2621              	.LBE453:
 2622              	.LBE452:
 690:Middlewares/Third_Party/FreeRTOS/Source/CMSIS_RTOS_V2/cmsis_os2.c ****       yield = pdFALSE;
 2623              		.loc 1 690 0
 2624 0016 4BB9     		cbnz	r3, .L273
 2625              	.LBB454:
 2626              	.LBB455:
 386:Drivers/CMSIS/Include/cmsis_gcc.h ****   return(result);
 2627              		.loc 2 386 0
 2628              		.syntax unified
 2629              	@ 386 "Drivers/CMSIS/Include/cmsis_gcc.h" 1
 2630 0018 EFF31083 		MRS r3, primask
 2631              	@ 0 "" 2
 2632              		.thumb
 2633              		.syntax unified
 2634              	.LBE455:
 2635              	.LBE454:
 690:Middlewares/Third_Party/FreeRTOS/Source/CMSIS_RTOS_V2/cmsis_os2.c ****       yield = pdFALSE;
 2636              		.loc 1 690 0
 2637 001c 33B9     		cbnz	r3, .L273
 690:Middlewares/Third_Party/FreeRTOS/Source/CMSIS_RTOS_V2/cmsis_os2.c ****       yield = pdFALSE;
 2638              		.loc 1 690 0 is_stmt 0 discriminator 2
 2639 001e 1A4B     		ldr	r3, .L276
 2640 0020 1B68     		ldr	r3, [r3]
 2641 0022 022B     		cmp	r3, #2
 2642 0024 24D1     		bne	.L274
 2643              	.LBB456:
 2644              	.LBB457:
 2645              		.loc 2 465 0 is_stmt 1
 2646              		.syntax unified
 2647              	@ 465 "Drivers/CMSIS/Include/cmsis_gcc.h" 1
 2648 0026 EFF31183 		MRS r3, basepri
 2649              	@ 0 "" 2
 2650              		.thumb
ARM GAS  /tmp/ccjsdB5h.s 			page 80


 2651              		.syntax unified
 2652              	.LBE457:
 2653              	.LBE456:
 690:Middlewares/Third_Party/FreeRTOS/Source/CMSIS_RTOS_V2/cmsis_os2.c ****       yield = pdFALSE;
 2654              		.loc 1 690 0
 2655 002a 0BB3     		cbz	r3, .L274
 2656              	.L273:
 691:Middlewares/Third_Party/FreeRTOS/Source/CMSIS_RTOS_V2/cmsis_os2.c **** 
 2657              		.loc 1 691 0
 2658 002c 0024     		movs	r4, #0
 2659 002e 04AB     		add	r3, sp, #16
 2660 0030 43F8084D 		str	r4, [r3, #-8]!
 693:Middlewares/Third_Party/FreeRTOS/Source/CMSIS_RTOS_V2/cmsis_os2.c ****       (void)xTaskNotifyAndQueryFromISR (hTask, 0, eNoAction, &rflags, NULL);
 2661              		.loc 1 693 0
 2662 0034 0093     		str	r3, [sp]
 2663 0036 2346     		mov	r3, r4
 2664 0038 0122     		movs	r2, #1
 2665 003a 2846     		mov	r0, r5
 2666              	.LVL207:
 2667 003c FFF7FEFF 		bl	xTaskGenericNotifyFromISR
 2668              	.LVL208:
 694:Middlewares/Third_Party/FreeRTOS/Source/CMSIS_RTOS_V2/cmsis_os2.c **** 
 2669              		.loc 1 694 0
 2670 0040 0094     		str	r4, [sp]
 2671 0042 03AB     		add	r3, sp, #12
 2672 0044 2246     		mov	r2, r4
 2673 0046 2146     		mov	r1, r4
 2674 0048 2846     		mov	r0, r5
 2675 004a FFF7FEFF 		bl	xTaskGenericNotifyFromISR
 2676              	.LVL209:
 696:Middlewares/Third_Party/FreeRTOS/Source/CMSIS_RTOS_V2/cmsis_os2.c ****     }
 2677              		.loc 1 696 0
 2678 004e 029B     		ldr	r3, [sp, #8]
 2679 0050 5BB1     		cbz	r3, .L272
 696:Middlewares/Third_Party/FreeRTOS/Source/CMSIS_RTOS_V2/cmsis_os2.c ****     }
 2680              		.loc 1 696 0 is_stmt 0 discriminator 1
 2681 0052 0E4B     		ldr	r3, .L276+4
 2682 0054 4FF08052 		mov	r2, #268435456
 2683 0058 1A60     		str	r2, [r3]
 2684              		.syntax unified
 2685              	@ 696 "Middlewares/Third_Party/FreeRTOS/Source/CMSIS_RTOS_V2/cmsis_os2.c" 1
 2686 005a BFF34F8F 		dsb
 2687              	@ 0 "" 2
 2688              	@ 696 "Middlewares/Third_Party/FreeRTOS/Source/CMSIS_RTOS_V2/cmsis_os2.c" 1
 2689 005e BFF36F8F 		isb
 2690              	@ 0 "" 2
 2691              		.thumb
 2692              		.syntax unified
 2693 0062 02E0     		b	.L272
 2694              	.LVL210:
 2695              	.L270:
 685:Middlewares/Third_Party/FreeRTOS/Source/CMSIS_RTOS_V2/cmsis_os2.c ****   }
 2696              		.loc 1 685 0 is_stmt 1
 2697 0064 6FF00303 		mvn	r3, #3
 2698 0068 0393     		str	r3, [sp, #12]
 2699              	.LVL211:
 2700              	.L272:
ARM GAS  /tmp/ccjsdB5h.s 			page 81


 705:Middlewares/Third_Party/FreeRTOS/Source/CMSIS_RTOS_V2/cmsis_os2.c **** 
 2701              		.loc 1 705 0
 2702 006a 0398     		ldr	r0, [sp, #12]
 2703 006c 05B0     		add	sp, sp, #20
 2704              	.LCFI33:
 2705              		.cfi_remember_state
 2706              		.cfi_def_cfa_offset 12
 2707              		@ sp needed
 2708 006e 30BD     		pop	{r4, r5, pc}
 2709              	.LVL212:
 2710              	.L274:
 2711              	.LCFI34:
 2712              		.cfi_restore_state
 699:Middlewares/Third_Party/FreeRTOS/Source/CMSIS_RTOS_V2/cmsis_os2.c ****       (void)xTaskNotifyAndQuery (hTask, 0, eNoAction, &rflags);
 2713              		.loc 1 699 0
 2714 0070 0023     		movs	r3, #0
 2715 0072 0122     		movs	r2, #1
 2716 0074 2846     		mov	r0, r5
 2717              	.LVL213:
 2718 0076 FFF7FEFF 		bl	xTaskGenericNotify
 2719              	.LVL214:
 700:Middlewares/Third_Party/FreeRTOS/Source/CMSIS_RTOS_V2/cmsis_os2.c ****     }
 2720              		.loc 1 700 0
 2721 007a 03AB     		add	r3, sp, #12
 2722 007c 0022     		movs	r2, #0
 2723 007e 1146     		mov	r1, r2
 2724 0080 2846     		mov	r0, r5
 2725 0082 FFF7FEFF 		bl	xTaskGenericNotify
 2726              	.LVL215:
 2727 0086 F0E7     		b	.L272
 2728              	.L277:
 2729              		.align	2
 2730              	.L276:
 2731 0088 00000000 		.word	.LANCHOR0
 2732 008c 04ED00E0 		.word	-536810236
 2733              		.cfi_endproc
 2734              	.LFE132:
 2736              		.section	.text.osThreadFlagsClear,"ax",%progbits
 2737              		.align	1
 2738              		.global	osThreadFlagsClear
 2739              		.syntax unified
 2740              		.thumb
 2741              		.thumb_func
 2742              		.fpu fpv4-sp-d16
 2744              	osThreadFlagsClear:
 2745              	.LFB133:
 707:Middlewares/Third_Party/FreeRTOS/Source/CMSIS_RTOS_V2/cmsis_os2.c ****   TaskHandle_t hTask;
 2746              		.loc 1 707 0
 2747              		.cfi_startproc
 2748              		@ args = 0, pretend = 0, frame = 8
 2749              		@ frame_needed = 0, uses_anonymous_args = 0
 2750              	.LVL216:
 2751 0000 70B5     		push	{r4, r5, r6, lr}
 2752              	.LCFI35:
 2753              		.cfi_def_cfa_offset 16
 2754              		.cfi_offset 4, -16
 2755              		.cfi_offset 5, -12
ARM GAS  /tmp/ccjsdB5h.s 			page 82


 2756              		.cfi_offset 6, -8
 2757              		.cfi_offset 14, -4
 2758 0002 82B0     		sub	sp, sp, #8
 2759              	.LCFI36:
 2760              		.cfi_def_cfa_offset 24
 2761              	.LBB458:
 2762              	.LBB459:
 209:Drivers/CMSIS/Include/cmsis_gcc.h ****   return(result);
 2763              		.loc 2 209 0
 2764              		.syntax unified
 2765              	@ 209 "Drivers/CMSIS/Include/cmsis_gcc.h" 1
 2766 0004 EFF30583 		MRS r3, ipsr
 2767              	@ 0 "" 2
 2768              		.thumb
 2769              		.syntax unified
 2770              	.LBE459:
 2771              	.LBE458:
 711:Middlewares/Third_Party/FreeRTOS/Source/CMSIS_RTOS_V2/cmsis_os2.c ****     rflags = (uint32_t)osErrorISR;
 2772              		.loc 1 711 0
 2773 0008 5BBB     		cbnz	r3, .L281
 2774              	.LBB460:
 2775              	.LBB461:
 386:Drivers/CMSIS/Include/cmsis_gcc.h ****   return(result);
 2776              		.loc 2 386 0
 2777              		.syntax unified
 2778              	@ 386 "Drivers/CMSIS/Include/cmsis_gcc.h" 1
 2779 000a EFF31083 		MRS r3, primask
 2780              	@ 0 "" 2
 2781              		.thumb
 2782              		.syntax unified
 2783              	.LBE461:
 2784              	.LBE460:
 711:Middlewares/Third_Party/FreeRTOS/Source/CMSIS_RTOS_V2/cmsis_os2.c ****     rflags = (uint32_t)osErrorISR;
 2785              		.loc 1 711 0
 2786 000e 6BBB     		cbnz	r3, .L282
 711:Middlewares/Third_Party/FreeRTOS/Source/CMSIS_RTOS_V2/cmsis_os2.c ****     rflags = (uint32_t)osErrorISR;
 2787              		.loc 1 711 0 is_stmt 0 discriminator 2
 2788 0010 194B     		ldr	r3, .L289
 2789 0012 1B68     		ldr	r3, [r3]
 2790 0014 022B     		cmp	r3, #2
 2791 0016 0FD0     		beq	.L287
 2792              	.L280:
 714:Middlewares/Third_Party/FreeRTOS/Source/CMSIS_RTOS_V2/cmsis_os2.c ****     rflags = (uint32_t)osErrorParameter;
 2793              		.loc 1 714 0 is_stmt 1
 2794 0018 0028     		cmp	r0, #0
 2795 001a 2ADB     		blt	.L284
 2796 001c 0446     		mov	r4, r0
 718:Middlewares/Third_Party/FreeRTOS/Source/CMSIS_RTOS_V2/cmsis_os2.c **** 
 2797              		.loc 1 718 0
 2798 001e FFF7FEFF 		bl	xTaskGetCurrentTaskHandle
 2799              	.LVL217:
 2800 0022 0646     		mov	r6, r0
 2801              	.LVL218:
 720:Middlewares/Third_Party/FreeRTOS/Source/CMSIS_RTOS_V2/cmsis_os2.c ****       rflags = cflags;
 2802              		.loc 1 720 0
 2803 0024 01AB     		add	r3, sp, #4
 2804 0026 0022     		movs	r2, #0
ARM GAS  /tmp/ccjsdB5h.s 			page 83


 2805 0028 1146     		mov	r1, r2
 2806 002a FFF7FEFF 		bl	xTaskGenericNotify
 2807              	.LVL219:
 2808 002e 0128     		cmp	r0, #1
 2809 0030 09D0     		beq	.L288
 729:Middlewares/Third_Party/FreeRTOS/Source/CMSIS_RTOS_V2/cmsis_os2.c ****     }
 2810              		.loc 1 729 0
 2811 0032 4FF0FF35 		mov	r5, #-1
 2812              	.LVL220:
 734:Middlewares/Third_Party/FreeRTOS/Source/CMSIS_RTOS_V2/cmsis_os2.c **** }
 2813              		.loc 1 734 0
 2814 0036 16E0     		b	.L278
 2815              	.LVL221:
 2816              	.L287:
 2817              	.LBB462:
 2818              	.LBB463:
 2819              		.loc 2 465 0
 2820              		.syntax unified
 2821              	@ 465 "Drivers/CMSIS/Include/cmsis_gcc.h" 1
 2822 0038 EFF31183 		MRS r3, basepri
 2823              	@ 0 "" 2
 2824              		.thumb
 2825              		.syntax unified
 2826              	.LBE463:
 2827              	.LBE462:
 711:Middlewares/Third_Party/FreeRTOS/Source/CMSIS_RTOS_V2/cmsis_os2.c ****     rflags = (uint32_t)osErrorISR;
 2828              		.loc 1 711 0
 2829 003c 002B     		cmp	r3, #0
 2830 003e EBD0     		beq	.L280
 712:Middlewares/Third_Party/FreeRTOS/Source/CMSIS_RTOS_V2/cmsis_os2.c ****   }
 2831              		.loc 1 712 0
 2832 0040 6FF00505 		mvn	r5, #5
 2833 0044 0FE0     		b	.L278
 2834              	.LVL222:
 2835              	.L288:
 721:Middlewares/Third_Party/FreeRTOS/Source/CMSIS_RTOS_V2/cmsis_os2.c ****       cflags &= ~flags;
 2836              		.loc 1 721 0
 2837 0046 019D     		ldr	r5, [sp, #4]
 2838              	.LVL223:
 722:Middlewares/Third_Party/FreeRTOS/Source/CMSIS_RTOS_V2/cmsis_os2.c **** 
 2839              		.loc 1 722 0
 2840 0048 25EA0401 		bic	r1, r5, r4
 2841 004c 0191     		str	r1, [sp, #4]
 724:Middlewares/Third_Party/FreeRTOS/Source/CMSIS_RTOS_V2/cmsis_os2.c ****         rflags = (uint32_t)osError;
 2842              		.loc 1 724 0
 2843 004e 0023     		movs	r3, #0
 2844 0050 0322     		movs	r2, #3
 2845 0052 3046     		mov	r0, r6
 2846 0054 FFF7FEFF 		bl	xTaskGenericNotify
 2847              	.LVL224:
 725:Middlewares/Third_Party/FreeRTOS/Source/CMSIS_RTOS_V2/cmsis_os2.c ****       }
 2848              		.loc 1 725 0
 2849 0058 0128     		cmp	r0, #1
 2850 005a 18BF     		it	ne
 2851 005c 4FF0FF35 		movne	r5, #-1
 2852              	.LVL225:
 2853 0060 01E0     		b	.L278
ARM GAS  /tmp/ccjsdB5h.s 			page 84


 2854              	.LVL226:
 2855              	.L281:
 712:Middlewares/Third_Party/FreeRTOS/Source/CMSIS_RTOS_V2/cmsis_os2.c ****   }
 2856              		.loc 1 712 0
 2857 0062 6FF00505 		mvn	r5, #5
 2858              	.LVL227:
 2859              	.L278:
 735:Middlewares/Third_Party/FreeRTOS/Source/CMSIS_RTOS_V2/cmsis_os2.c **** 
 2860              		.loc 1 735 0
 2861 0066 2846     		mov	r0, r5
 2862 0068 02B0     		add	sp, sp, #8
 2863              	.LCFI37:
 2864              		.cfi_remember_state
 2865              		.cfi_def_cfa_offset 16
 2866              		@ sp needed
 2867 006a 70BD     		pop	{r4, r5, r6, pc}
 2868              	.LVL228:
 2869              	.L282:
 2870              	.LCFI38:
 2871              		.cfi_restore_state
 712:Middlewares/Third_Party/FreeRTOS/Source/CMSIS_RTOS_V2/cmsis_os2.c ****   }
 2872              		.loc 1 712 0
 2873 006c 6FF00505 		mvn	r5, #5
 2874 0070 F9E7     		b	.L278
 2875              	.L284:
 715:Middlewares/Third_Party/FreeRTOS/Source/CMSIS_RTOS_V2/cmsis_os2.c ****   }
 2876              		.loc 1 715 0
 2877 0072 6FF00305 		mvn	r5, #3
 2878 0076 F6E7     		b	.L278
 2879              	.L290:
 2880              		.align	2
 2881              	.L289:
 2882 0078 00000000 		.word	.LANCHOR0
 2883              		.cfi_endproc
 2884              	.LFE133:
 2886              		.section	.text.osThreadFlagsGet,"ax",%progbits
 2887              		.align	1
 2888              		.global	osThreadFlagsGet
 2889              		.syntax unified
 2890              		.thumb
 2891              		.thumb_func
 2892              		.fpu fpv4-sp-d16
 2894              	osThreadFlagsGet:
 2895              	.LFB134:
 737:Middlewares/Third_Party/FreeRTOS/Source/CMSIS_RTOS_V2/cmsis_os2.c ****   TaskHandle_t hTask;
 2896              		.loc 1 737 0
 2897              		.cfi_startproc
 2898              		@ args = 0, pretend = 0, frame = 8
 2899              		@ frame_needed = 0, uses_anonymous_args = 0
 2900 0000 00B5     		push	{lr}
 2901              	.LCFI39:
 2902              		.cfi_def_cfa_offset 4
 2903              		.cfi_offset 14, -4
 2904 0002 83B0     		sub	sp, sp, #12
 2905              	.LCFI40:
 2906              		.cfi_def_cfa_offset 16
 2907              	.LBB464:
ARM GAS  /tmp/ccjsdB5h.s 			page 85


 2908              	.LBB465:
 209:Drivers/CMSIS/Include/cmsis_gcc.h ****   return(result);
 2909              		.loc 2 209 0
 2910              		.syntax unified
 2911              	@ 209 "Drivers/CMSIS/Include/cmsis_gcc.h" 1
 2912 0004 EFF30583 		MRS r3, ipsr
 2913              	@ 0 "" 2
 2914              		.thumb
 2915              		.syntax unified
 2916              	.LBE465:
 2917              	.LBE464:
 741:Middlewares/Third_Party/FreeRTOS/Source/CMSIS_RTOS_V2/cmsis_os2.c ****     rflags = (uint32_t)osErrorISR;
 2918              		.loc 1 741 0
 2919 0008 B3B9     		cbnz	r3, .L292
 2920              	.LBB466:
 2921              	.LBB467:
 386:Drivers/CMSIS/Include/cmsis_gcc.h ****   return(result);
 2922              		.loc 2 386 0
 2923              		.syntax unified
 2924              	@ 386 "Drivers/CMSIS/Include/cmsis_gcc.h" 1
 2925 000a EFF31083 		MRS r3, primask
 2926              	@ 0 "" 2
 2927              		.thumb
 2928              		.syntax unified
 2929              	.LBE467:
 2930              	.LBE466:
 741:Middlewares/Third_Party/FreeRTOS/Source/CMSIS_RTOS_V2/cmsis_os2.c ****     rflags = (uint32_t)osErrorISR;
 2931              		.loc 1 741 0
 2932 000e 9BB9     		cbnz	r3, .L292
 741:Middlewares/Third_Party/FreeRTOS/Source/CMSIS_RTOS_V2/cmsis_os2.c ****     rflags = (uint32_t)osErrorISR;
 2933              		.loc 1 741 0 is_stmt 0 discriminator 2
 2934 0010 0D4B     		ldr	r3, .L296
 2935 0012 1B68     		ldr	r3, [r3]
 2936 0014 022B     		cmp	r3, #2
 2937 0016 02D1     		bne	.L293
 2938              	.LBB468:
 2939              	.LBB469:
 2940              		.loc 2 465 0 is_stmt 1
 2941              		.syntax unified
 2942              	@ 465 "Drivers/CMSIS/Include/cmsis_gcc.h" 1
 2943 0018 EFF31183 		MRS r3, basepri
 2944              	@ 0 "" 2
 2945              		.thumb
 2946              		.syntax unified
 2947              	.LBE469:
 2948              	.LBE468:
 741:Middlewares/Third_Party/FreeRTOS/Source/CMSIS_RTOS_V2/cmsis_os2.c ****     rflags = (uint32_t)osErrorISR;
 2949              		.loc 1 741 0
 2950 001c 63B9     		cbnz	r3, .L292
 2951              	.L293:
 745:Middlewares/Third_Party/FreeRTOS/Source/CMSIS_RTOS_V2/cmsis_os2.c **** 
 2952              		.loc 1 745 0
 2953 001e FFF7FEFF 		bl	xTaskGetCurrentTaskHandle
 2954              	.LVL229:
 747:Middlewares/Third_Party/FreeRTOS/Source/CMSIS_RTOS_V2/cmsis_os2.c ****       rflags = (uint32_t)osError;
 2955              		.loc 1 747 0
 2956 0022 01AB     		add	r3, sp, #4
ARM GAS  /tmp/ccjsdB5h.s 			page 86


 2957 0024 0022     		movs	r2, #0
 2958 0026 1146     		mov	r1, r2
 2959 0028 FFF7FEFF 		bl	xTaskGenericNotify
 2960              	.LVL230:
 2961 002c 0128     		cmp	r0, #1
 748:Middlewares/Third_Party/FreeRTOS/Source/CMSIS_RTOS_V2/cmsis_os2.c ****     }
 2962              		.loc 1 748 0
 2963 002e 1CBF     		itt	ne
 2964 0030 4FF0FF33 		movne	r3, #-1
 2965 0034 0193     		strne	r3, [sp, #4]
 2966 0036 02E0     		b	.L294
 2967              	.L292:
 742:Middlewares/Third_Party/FreeRTOS/Source/CMSIS_RTOS_V2/cmsis_os2.c ****   }
 2968              		.loc 1 742 0
 2969 0038 6FF00503 		mvn	r3, #5
 2970 003c 0193     		str	r3, [sp, #4]
 2971              	.L294:
 753:Middlewares/Third_Party/FreeRTOS/Source/CMSIS_RTOS_V2/cmsis_os2.c **** 
 2972              		.loc 1 753 0
 2973 003e 0198     		ldr	r0, [sp, #4]
 2974 0040 03B0     		add	sp, sp, #12
 2975              	.LCFI41:
 2976              		.cfi_def_cfa_offset 4
 2977              		@ sp needed
 2978 0042 5DF804FB 		ldr	pc, [sp], #4
 2979              	.L297:
 2980 0046 00BF     		.align	2
 2981              	.L296:
 2982 0048 00000000 		.word	.LANCHOR0
 2983              		.cfi_endproc
 2984              	.LFE134:
 2986              		.section	.text.osThreadFlagsWait,"ax",%progbits
 2987              		.align	1
 2988              		.global	osThreadFlagsWait
 2989              		.syntax unified
 2990              		.thumb
 2991              		.thumb_func
 2992              		.fpu fpv4-sp-d16
 2994              	osThreadFlagsWait:
 2995              	.LFB135:
 755:Middlewares/Third_Party/FreeRTOS/Source/CMSIS_RTOS_V2/cmsis_os2.c ****   uint32_t rflags, nval;
 2996              		.loc 1 755 0
 2997              		.cfi_startproc
 2998              		@ args = 0, pretend = 0, frame = 16
 2999              		@ frame_needed = 0, uses_anonymous_args = 0
 3000              	.LVL231:
 3001 0000 2DE9F04F 		push	{r4, r5, r6, r7, r8, r9, r10, fp, lr}
 3002              	.LCFI42:
 3003              		.cfi_def_cfa_offset 36
 3004              		.cfi_offset 4, -36
 3005              		.cfi_offset 5, -32
 3006              		.cfi_offset 6, -28
 3007              		.cfi_offset 7, -24
 3008              		.cfi_offset 8, -20
 3009              		.cfi_offset 9, -16
 3010              		.cfi_offset 10, -12
 3011              		.cfi_offset 11, -8
ARM GAS  /tmp/ccjsdB5h.s 			page 87


 3012              		.cfi_offset 14, -4
 3013 0004 85B0     		sub	sp, sp, #20
 3014              	.LCFI43:
 3015              		.cfi_def_cfa_offset 56
 3016              	.LBB470:
 3017              	.LBB471:
 209:Drivers/CMSIS/Include/cmsis_gcc.h ****   return(result);
 3018              		.loc 2 209 0
 3019              		.syntax unified
 3020              	@ 209 "Drivers/CMSIS/Include/cmsis_gcc.h" 1
 3021 0006 EFF30583 		MRS r3, ipsr
 3022              	@ 0 "" 2
 3023              		.thumb
 3024              		.syntax unified
 3025              	.LBE471:
 3026              	.LBE470:
 761:Middlewares/Third_Party/FreeRTOS/Source/CMSIS_RTOS_V2/cmsis_os2.c ****     rflags = (uint32_t)osErrorISR;
 3027              		.loc 1 761 0
 3028 000a 002B     		cmp	r3, #0
 3029 000c 54D1     		bne	.L308
 3030              	.LBB472:
 3031              	.LBB473:
 386:Drivers/CMSIS/Include/cmsis_gcc.h ****   return(result);
 3032              		.loc 2 386 0
 3033              		.syntax unified
 3034              	@ 386 "Drivers/CMSIS/Include/cmsis_gcc.h" 1
 3035 000e EFF31086 		MRS r6, primask
 3036              	@ 0 "" 2
 3037              		.thumb
 3038              		.syntax unified
 3039 0012 3446     		mov	r4, r6
 3040              	.LBE473:
 3041              	.LBE472:
 761:Middlewares/Third_Party/FreeRTOS/Source/CMSIS_RTOS_V2/cmsis_os2.c ****     rflags = (uint32_t)osErrorISR;
 3042              		.loc 1 761 0
 3043 0014 002E     		cmp	r6, #0
 3044 0016 56D1     		bne	.L309
 761:Middlewares/Third_Party/FreeRTOS/Source/CMSIS_RTOS_V2/cmsis_os2.c ****     rflags = (uint32_t)osErrorISR;
 3045              		.loc 1 761 0 is_stmt 0 discriminator 2
 3046 0018 344B     		ldr	r3, .L323
 3047 001a 1B68     		ldr	r3, [r3]
 3048 001c 022B     		cmp	r3, #2
 3049 001e 18D0     		beq	.L320
 3050              	.L300:
 764:Middlewares/Third_Party/FreeRTOS/Source/CMSIS_RTOS_V2/cmsis_os2.c ****     rflags = (uint32_t)osErrorParameter;
 3051              		.loc 1 764 0 is_stmt 1
 3052 0020 0028     		cmp	r0, #0
 3053 0022 54DB     		blt	.L311
 3054 0024 9146     		mov	r9, r2
 3055 0026 8A46     		mov	r10, r1
 3056 0028 8046     		mov	r8, r0
 768:Middlewares/Third_Party/FreeRTOS/Source/CMSIS_RTOS_V2/cmsis_os2.c ****       clear = 0U;
 3057              		.loc 1 768 0
 3058 002a 01F00203 		and	r3, r1, #2
 771:Middlewares/Third_Party/FreeRTOS/Source/CMSIS_RTOS_V2/cmsis_os2.c ****     }
 3059              		.loc 1 771 0
 3060 002e 002B     		cmp	r3, #0
ARM GAS  /tmp/ccjsdB5h.s 			page 88


 3061 0030 08BF     		it	eq
 3062 0032 0646     		moveq	r6, r0
 3063              	.LVL232:
 777:Middlewares/Third_Party/FreeRTOS/Source/CMSIS_RTOS_V2/cmsis_os2.c ****     do {
 3064              		.loc 1 777 0
 3065 0034 FFF7FEFF 		bl	xTaskGetTickCount
 3066              	.LVL233:
 3067 0038 8346     		mov	fp, r0
 3068              	.LVL234:
 3069 003a B9F1000F 		cmp	r9, #0
 3070 003e 0CBF     		ite	eq
 3071 0040 6FF00203 		mvneq	r3, #2
 3072 0044 6FF00103 		mvnne	r3, #1
 3073 0048 0193     		str	r3, [sp, #4]
 775:Middlewares/Third_Party/FreeRTOS/Source/CMSIS_RTOS_V2/cmsis_os2.c **** 
 3074              		.loc 1 775 0
 3075 004a 4D46     		mov	r5, r9
 779:Middlewares/Third_Party/FreeRTOS/Source/CMSIS_RTOS_V2/cmsis_os2.c **** 
 3076              		.loc 1 779 0
 3077 004c 0027     		movs	r7, #0
 3078 004e 0093     		str	r3, [sp]
 3079 0050 08E0     		b	.L302
 3080              	.LVL235:
 3081              	.L320:
 3082              	.LBB474:
 3083              	.LBB475:
 3084              		.loc 2 465 0
 3085              		.syntax unified
 3086              	@ 465 "Drivers/CMSIS/Include/cmsis_gcc.h" 1
 3087 0052 EFF31183 		MRS r3, basepri
 3088              	@ 0 "" 2
 3089              		.thumb
 3090              		.syntax unified
 3091              	.LBE475:
 3092              	.LBE474:
 761:Middlewares/Third_Party/FreeRTOS/Source/CMSIS_RTOS_V2/cmsis_os2.c ****     rflags = (uint32_t)osErrorISR;
 3093              		.loc 1 761 0
 3094 0056 002B     		cmp	r3, #0
 3095 0058 E2D0     		beq	.L300
 762:Middlewares/Third_Party/FreeRTOS/Source/CMSIS_RTOS_V2/cmsis_os2.c ****   }
 3096              		.loc 1 762 0
 3097 005a 6FF00503 		mvn	r3, #5
 3098 005e 0193     		str	r3, [sp, #4]
 3099 0060 2DE0     		b	.L298
 3100              	.LVL236:
 3101              	.L318:
 3102 0062 009C     		ldr	r4, [sp]
 3103              	.LVL237:
 3104              	.L302:
 779:Middlewares/Third_Party/FreeRTOS/Source/CMSIS_RTOS_V2/cmsis_os2.c **** 
 3105              		.loc 1 779 0
 3106 0064 2B46     		mov	r3, r5
 3107 0066 03AA     		add	r2, sp, #12
 3108 0068 3146     		mov	r1, r6
 3109 006a 3846     		mov	r0, r7
 3110 006c FFF7FEFF 		bl	xTaskNotifyWait
 3111              	.LVL238:
ARM GAS  /tmp/ccjsdB5h.s 			page 89


 781:Middlewares/Third_Party/FreeRTOS/Source/CMSIS_RTOS_V2/cmsis_os2.c ****         rflags &= flags;
 3112              		.loc 1 781 0
 3113 0070 0128     		cmp	r0, #1
 3114 0072 02D0     		beq	.L321
 3115              	.LVL239:
 823:Middlewares/Third_Party/FreeRTOS/Source/CMSIS_RTOS_V2/cmsis_os2.c ****   }
 3116              		.loc 1 823 0
 3117 0074 0028     		cmp	r0, #0
 3118 0076 F4D1     		bne	.L318
 3119 0078 21E0     		b	.L298
 3120              	.LVL240:
 3121              	.L321:
 782:Middlewares/Third_Party/FreeRTOS/Source/CMSIS_RTOS_V2/cmsis_os2.c ****         rflags |= nval;
 3122              		.loc 1 782 0
 3123 007a 04EA0804 		and	r4, r4, r8
 3124              	.LVL241:
 783:Middlewares/Third_Party/FreeRTOS/Source/CMSIS_RTOS_V2/cmsis_os2.c **** 
 3125              		.loc 1 783 0
 3126 007e 039B     		ldr	r3, [sp, #12]
 3127 0080 1C43     		orrs	r4, r4, r3
 3128              	.LVL242:
 785:Middlewares/Third_Party/FreeRTOS/Source/CMSIS_RTOS_V2/cmsis_os2.c ****           if ((flags & rflags) == flags) {
 3129              		.loc 1 785 0
 3130 0082 1AF0010F 		tst	r10, #1
 3131 0086 0DD0     		beq	.L304
 786:Middlewares/Third_Party/FreeRTOS/Source/CMSIS_RTOS_V2/cmsis_os2.c ****             break;
 3132              		.loc 1 786 0
 3133 0088 38EA0403 		bics	r3, r8, r4
 3134 008c 23D0     		beq	.L313
 789:Middlewares/Third_Party/FreeRTOS/Source/CMSIS_RTOS_V2/cmsis_os2.c ****               rflags = (uint32_t)osErrorResource;
 3135              		.loc 1 789 0
 3136 008e B9F1000F 		cmp	r9, #0
 3137 0092 22D0     		beq	.L322
 3138              	.L305:
 807:Middlewares/Third_Party/FreeRTOS/Source/CMSIS_RTOS_V2/cmsis_os2.c **** 
 3139              		.loc 1 807 0
 3140 0094 FFF7FEFF 		bl	xTaskGetTickCount
 3141              	.LVL243:
 3142 0098 A0EB0B00 		sub	r0, r0, fp
 3143              	.LVL244:
 809:Middlewares/Third_Party/FreeRTOS/Source/CMSIS_RTOS_V2/cmsis_os2.c ****           tout  = 0;
 3144              		.loc 1 809 0
 3145 009c 8542     		cmp	r5, r0
 3146 009e 22D3     		bcc	.L317
 812:Middlewares/Third_Party/FreeRTOS/Source/CMSIS_RTOS_V2/cmsis_os2.c ****         }
 3147              		.loc 1 812 0
 3148 00a0 2D1A     		subs	r5, r5, r0
 3149              	.LVL245:
 3150 00a2 DFE7     		b	.L302
 3151              	.LVL246:
 3152              	.L304:
 796:Middlewares/Third_Party/FreeRTOS/Source/CMSIS_RTOS_V2/cmsis_os2.c ****             break;
 3153              		.loc 1 796 0
 3154 00a4 18EA040F 		tst	r8, r4
 3155 00a8 1BD1     		bne	.L315
 799:Middlewares/Third_Party/FreeRTOS/Source/CMSIS_RTOS_V2/cmsis_os2.c ****               rflags = (uint32_t)osErrorResource;
 3156              		.loc 1 799 0
ARM GAS  /tmp/ccjsdB5h.s 			page 90


 3157 00aa B9F1000F 		cmp	r9, #0
 3158 00ae F1D1     		bne	.L305
 800:Middlewares/Third_Party/FreeRTOS/Source/CMSIS_RTOS_V2/cmsis_os2.c ****               break;
 3159              		.loc 1 800 0
 3160 00b0 6FF00203 		mvn	r3, #2
 3161 00b4 0193     		str	r3, [sp, #4]
 3162              	.LVL247:
 827:Middlewares/Third_Party/FreeRTOS/Source/CMSIS_RTOS_V2/cmsis_os2.c **** }
 3163              		.loc 1 827 0
 3164 00b6 02E0     		b	.L298
 3165              	.LVL248:
 3166              	.L308:
 762:Middlewares/Third_Party/FreeRTOS/Source/CMSIS_RTOS_V2/cmsis_os2.c ****   }
 3167              		.loc 1 762 0
 3168 00b8 6FF00503 		mvn	r3, #5
 3169 00bc 0193     		str	r3, [sp, #4]
 3170              	.LVL249:
 3171              	.L298:
 828:Middlewares/Third_Party/FreeRTOS/Source/CMSIS_RTOS_V2/cmsis_os2.c **** 
 3172              		.loc 1 828 0
 3173 00be 0198     		ldr	r0, [sp, #4]
 3174 00c0 05B0     		add	sp, sp, #20
 3175              	.LCFI44:
 3176              		.cfi_remember_state
 3177              		.cfi_def_cfa_offset 36
 3178              		@ sp needed
 3179 00c2 BDE8F08F 		pop	{r4, r5, r6, r7, r8, r9, r10, fp, pc}
 3180              	.LVL250:
 3181              	.L309:
 3182              	.LCFI45:
 3183              		.cfi_restore_state
 762:Middlewares/Third_Party/FreeRTOS/Source/CMSIS_RTOS_V2/cmsis_os2.c ****   }
 3184              		.loc 1 762 0
 3185 00c6 6FF00503 		mvn	r3, #5
 3186 00ca 0193     		str	r3, [sp, #4]
 3187 00cc F7E7     		b	.L298
 3188              	.L311:
 765:Middlewares/Third_Party/FreeRTOS/Source/CMSIS_RTOS_V2/cmsis_os2.c ****   }
 3189              		.loc 1 765 0
 3190 00ce 6FF00303 		mvn	r3, #3
 3191 00d2 0193     		str	r3, [sp, #4]
 3192 00d4 F3E7     		b	.L298
 3193              	.LVL251:
 3194              	.L313:
 783:Middlewares/Third_Party/FreeRTOS/Source/CMSIS_RTOS_V2/cmsis_os2.c **** 
 3195              		.loc 1 783 0
 3196 00d6 0194     		str	r4, [sp, #4]
 3197 00d8 F1E7     		b	.L298
 3198              	.L322:
 790:Middlewares/Third_Party/FreeRTOS/Source/CMSIS_RTOS_V2/cmsis_os2.c ****               break;
 3199              		.loc 1 790 0
 3200 00da 6FF00203 		mvn	r3, #2
 3201 00de 0193     		str	r3, [sp, #4]
 3202 00e0 EDE7     		b	.L298
 3203              	.L315:
 783:Middlewares/Third_Party/FreeRTOS/Source/CMSIS_RTOS_V2/cmsis_os2.c **** 
 3204              		.loc 1 783 0
ARM GAS  /tmp/ccjsdB5h.s 			page 91


 3205 00e2 0194     		str	r4, [sp, #4]
 3206 00e4 EBE7     		b	.L298
 3207              	.LVL252:
 3208              	.L317:
 810:Middlewares/Third_Party/FreeRTOS/Source/CMSIS_RTOS_V2/cmsis_os2.c ****         } else {
 3209              		.loc 1 810 0
 3210 00e6 0025     		movs	r5, #0
 3211              	.LVL253:
 3212 00e8 BCE7     		b	.L302
 3213              	.L324:
 3214 00ea 00BF     		.align	2
 3215              	.L323:
 3216 00ec 00000000 		.word	.LANCHOR0
 3217              		.cfi_endproc
 3218              	.LFE135:
 3220              		.section	.text.osDelay,"ax",%progbits
 3221              		.align	1
 3222              		.global	osDelay
 3223              		.syntax unified
 3224              		.thumb
 3225              		.thumb_func
 3226              		.fpu fpv4-sp-d16
 3228              	osDelay:
 3229              	.LFB136:
 830:Middlewares/Third_Party/FreeRTOS/Source/CMSIS_RTOS_V2/cmsis_os2.c ****   osStatus_t stat;
 3230              		.loc 1 830 0
 3231              		.cfi_startproc
 3232              		@ args = 0, pretend = 0, frame = 0
 3233              		@ frame_needed = 0, uses_anonymous_args = 0
 3234              	.LVL254:
 3235 0000 08B5     		push	{r3, lr}
 3236              	.LCFI46:
 3237              		.cfi_def_cfa_offset 8
 3238              		.cfi_offset 3, -8
 3239              		.cfi_offset 14, -4
 3240              	.LBB476:
 3241              	.LBB477:
 209:Drivers/CMSIS/Include/cmsis_gcc.h ****   return(result);
 3242              		.loc 2 209 0
 3243              		.syntax unified
 3244              	@ 209 "Drivers/CMSIS/Include/cmsis_gcc.h" 1
 3245 0002 EFF30583 		MRS r3, ipsr
 3246              	@ 0 "" 2
 3247              		.thumb
 3248              		.syntax unified
 3249              	.LBE477:
 3250              	.LBE476:
 833:Middlewares/Third_Party/FreeRTOS/Source/CMSIS_RTOS_V2/cmsis_os2.c ****     stat = osErrorISR;
 3251              		.loc 1 833 0
 3252 0006 A3B9     		cbnz	r3, .L328
 3253              	.LBB478:
 3254              	.LBB479:
 386:Drivers/CMSIS/Include/cmsis_gcc.h ****   return(result);
 3255              		.loc 2 386 0
 3256              		.syntax unified
 3257              	@ 386 "Drivers/CMSIS/Include/cmsis_gcc.h" 1
 3258 0008 EFF31083 		MRS r3, primask
ARM GAS  /tmp/ccjsdB5h.s 			page 92


 3259              	@ 0 "" 2
 3260              		.thumb
 3261              		.syntax unified
 3262              	.LBE479:
 3263              	.LBE478:
 833:Middlewares/Third_Party/FreeRTOS/Source/CMSIS_RTOS_V2/cmsis_os2.c ****     stat = osErrorISR;
 3264              		.loc 1 833 0
 3265 000c A3B9     		cbnz	r3, .L329
 833:Middlewares/Third_Party/FreeRTOS/Source/CMSIS_RTOS_V2/cmsis_os2.c ****     stat = osErrorISR;
 3266              		.loc 1 833 0 is_stmt 0 discriminator 2
 3267 000e 0C4B     		ldr	r3, .L335
 3268 0010 1B68     		ldr	r3, [r3]
 3269 0012 022B     		cmp	r3, #2
 3270 0014 02D0     		beq	.L333
 3271              	.L327:
 3272              	.LVL255:
 839:Middlewares/Third_Party/FreeRTOS/Source/CMSIS_RTOS_V2/cmsis_os2.c ****       vTaskDelay(ticks);
 3273              		.loc 1 839 0 is_stmt 1
 3274 0016 40B9     		cbnz	r0, .L334
 837:Middlewares/Third_Party/FreeRTOS/Source/CMSIS_RTOS_V2/cmsis_os2.c **** 
 3275              		.loc 1 837 0
 3276 0018 0020     		movs	r0, #0
 3277              	.LVL256:
 3278              	.L325:
 845:Middlewares/Third_Party/FreeRTOS/Source/CMSIS_RTOS_V2/cmsis_os2.c **** 
 3279              		.loc 1 845 0
 3280 001a 08BD     		pop	{r3, pc}
 3281              	.LVL257:
 3282              	.L333:
 3283              	.LBB480:
 3284              	.LBB481:
 3285              		.loc 2 465 0
 3286              		.syntax unified
 3287              	@ 465 "Drivers/CMSIS/Include/cmsis_gcc.h" 1
 3288 001c EFF31183 		MRS r3, basepri
 3289              	@ 0 "" 2
 3290              		.thumb
 3291              		.syntax unified
 3292              	.LBE481:
 3293              	.LBE480:
 833:Middlewares/Third_Party/FreeRTOS/Source/CMSIS_RTOS_V2/cmsis_os2.c ****     stat = osErrorISR;
 3294              		.loc 1 833 0
 3295 0020 002B     		cmp	r3, #0
 3296 0022 F8D0     		beq	.L327
 834:Middlewares/Third_Party/FreeRTOS/Source/CMSIS_RTOS_V2/cmsis_os2.c ****   }
 3297              		.loc 1 834 0
 3298 0024 6FF00500 		mvn	r0, #5
 3299              	.LVL258:
 3300 0028 F7E7     		b	.L325
 3301              	.LVL259:
 3302              	.L334:
 840:Middlewares/Third_Party/FreeRTOS/Source/CMSIS_RTOS_V2/cmsis_os2.c ****     }
 3303              		.loc 1 840 0
 3304 002a FFF7FEFF 		bl	vTaskDelay
 3305              	.LVL260:
 837:Middlewares/Third_Party/FreeRTOS/Source/CMSIS_RTOS_V2/cmsis_os2.c **** 
 3306              		.loc 1 837 0
ARM GAS  /tmp/ccjsdB5h.s 			page 93


 3307 002e 0020     		movs	r0, #0
 3308 0030 F3E7     		b	.L325
 3309              	.LVL261:
 3310              	.L328:
 834:Middlewares/Third_Party/FreeRTOS/Source/CMSIS_RTOS_V2/cmsis_os2.c ****   }
 3311              		.loc 1 834 0
 3312 0032 6FF00500 		mvn	r0, #5
 3313              	.LVL262:
 3314 0036 F0E7     		b	.L325
 3315              	.LVL263:
 3316              	.L329:
 3317 0038 6FF00500 		mvn	r0, #5
 3318              	.LVL264:
 3319 003c EDE7     		b	.L325
 3320              	.L336:
 3321 003e 00BF     		.align	2
 3322              	.L335:
 3323 0040 00000000 		.word	.LANCHOR0
 3324              		.cfi_endproc
 3325              	.LFE136:
 3327              		.section	.text.osDelayUntil,"ax",%progbits
 3328              		.align	1
 3329              		.global	osDelayUntil
 3330              		.syntax unified
 3331              		.thumb
 3332              		.thumb_func
 3333              		.fpu fpv4-sp-d16
 3335              	osDelayUntil:
 3336              	.LFB137:
 847:Middlewares/Third_Party/FreeRTOS/Source/CMSIS_RTOS_V2/cmsis_os2.c ****   TickType_t tcnt;
 3337              		.loc 1 847 0
 3338              		.cfi_startproc
 3339              		@ args = 0, pretend = 0, frame = 8
 3340              		@ frame_needed = 0, uses_anonymous_args = 0
 3341              	.LVL265:
 3342              	.LBB482:
 3343              	.LBB483:
 209:Drivers/CMSIS/Include/cmsis_gcc.h ****   return(result);
 3344              		.loc 2 209 0
 3345              		.syntax unified
 3346              	@ 209 "Drivers/CMSIS/Include/cmsis_gcc.h" 1
 3347 0000 EFF30583 		MRS r3, ipsr
 3348              	@ 0 "" 2
 3349              		.thumb
 3350              		.syntax unified
 3351              	.LBE483:
 3352              	.LBE482:
 851:Middlewares/Third_Party/FreeRTOS/Source/CMSIS_RTOS_V2/cmsis_os2.c ****     stat = osErrorISR;
 3353              		.loc 1 851 0
 3354 0004 C3B9     		cbnz	r3, .L340
 3355              	.LBB484:
 3356              	.LBB485:
 386:Drivers/CMSIS/Include/cmsis_gcc.h ****   return(result);
 3357              		.loc 2 386 0
 3358              		.syntax unified
 3359              	@ 386 "Drivers/CMSIS/Include/cmsis_gcc.h" 1
 3360 0006 EFF31083 		MRS r3, primask
ARM GAS  /tmp/ccjsdB5h.s 			page 94


 3361              	@ 0 "" 2
 3362              		.thumb
 3363              		.syntax unified
 3364              	.LBE485:
 3365              	.LBE484:
 851:Middlewares/Third_Party/FreeRTOS/Source/CMSIS_RTOS_V2/cmsis_os2.c ****     stat = osErrorISR;
 3366              		.loc 1 851 0
 3367 000a C3B9     		cbnz	r3, .L341
 851:Middlewares/Third_Party/FreeRTOS/Source/CMSIS_RTOS_V2/cmsis_os2.c ****     stat = osErrorISR;
 3368              		.loc 1 851 0 is_stmt 0 discriminator 2
 3369 000c 0F4B     		ldr	r3, .L346
 3370 000e 1B68     		ldr	r3, [r3]
 3371 0010 022B     		cmp	r3, #2
 3372 0012 02D1     		bne	.L339
 3373              	.LBB486:
 3374              	.LBB487:
 3375              		.loc 2 465 0 is_stmt 1
 3376              		.syntax unified
 3377              	@ 465 "Drivers/CMSIS/Include/cmsis_gcc.h" 1
 3378 0014 EFF31183 		MRS r3, basepri
 3379              	@ 0 "" 2
 3380              		.thumb
 3381              		.syntax unified
 3382              	.LBE487:
 3383              	.LBE486:
 851:Middlewares/Third_Party/FreeRTOS/Source/CMSIS_RTOS_V2/cmsis_os2.c ****     stat = osErrorISR;
 3384              		.loc 1 851 0
 3385 0018 A3B9     		cbnz	r3, .L342
 3386              	.L339:
 847:Middlewares/Third_Party/FreeRTOS/Source/CMSIS_RTOS_V2/cmsis_os2.c ****   TickType_t tcnt;
 3387              		.loc 1 847 0
 3388 001a 10B5     		push	{r4, lr}
 3389              	.LCFI47:
 3390              		.cfi_def_cfa_offset 8
 3391              		.cfi_offset 4, -8
 3392              		.cfi_offset 14, -4
 3393 001c 82B0     		sub	sp, sp, #8
 3394              	.LCFI48:
 3395              		.cfi_def_cfa_offset 16
 3396 001e 0446     		mov	r4, r0
 3397              	.LVL266:
 856:Middlewares/Third_Party/FreeRTOS/Source/CMSIS_RTOS_V2/cmsis_os2.c **** 
 3398              		.loc 1 856 0
 3399 0020 FFF7FEFF 		bl	xTaskGetTickCount
 3400              	.LVL267:
 3401 0024 02AB     		add	r3, sp, #8
 3402 0026 43F8040D 		str	r0, [r3, #-4]!
 858:Middlewares/Third_Party/FreeRTOS/Source/CMSIS_RTOS_V2/cmsis_os2.c ****   }
 3403              		.loc 1 858 0
 3404 002a 211A     		subs	r1, r4, r0
 3405 002c 1846     		mov	r0, r3
 3406 002e FFF7FEFF 		bl	vTaskDelayUntil
 3407              	.LVL268:
 855:Middlewares/Third_Party/FreeRTOS/Source/CMSIS_RTOS_V2/cmsis_os2.c ****     tcnt = xTaskGetTickCount();
 3408              		.loc 1 855 0
 3409 0032 0020     		movs	r0, #0
 862:Middlewares/Third_Party/FreeRTOS/Source/CMSIS_RTOS_V2/cmsis_os2.c **** 
ARM GAS  /tmp/ccjsdB5h.s 			page 95


 3410              		.loc 1 862 0
 3411 0034 02B0     		add	sp, sp, #8
 3412              	.LCFI49:
 3413              		.cfi_def_cfa_offset 8
 3414              		@ sp needed
 3415 0036 10BD     		pop	{r4, pc}
 3416              	.LVL269:
 3417              	.L340:
 3418              	.LCFI50:
 3419              		.cfi_def_cfa_offset 0
 3420              		.cfi_restore 4
 3421              		.cfi_restore 14
 852:Middlewares/Third_Party/FreeRTOS/Source/CMSIS_RTOS_V2/cmsis_os2.c ****   }
 3422              		.loc 1 852 0
 3423 0038 6FF00500 		mvn	r0, #5
 3424              	.LVL270:
 3425 003c 7047     		bx	lr
 3426              	.LVL271:
 3427              	.L341:
 3428 003e 6FF00500 		mvn	r0, #5
 3429              	.LVL272:
 3430 0042 7047     		bx	lr
 3431              	.LVL273:
 3432              	.L342:
 3433 0044 6FF00500 		mvn	r0, #5
 3434              	.LVL274:
 862:Middlewares/Third_Party/FreeRTOS/Source/CMSIS_RTOS_V2/cmsis_os2.c **** 
 3435              		.loc 1 862 0
 3436 0048 7047     		bx	lr
 3437              	.L347:
 3438 004a 00BF     		.align	2
 3439              	.L346:
 3440 004c 00000000 		.word	.LANCHOR0
 3441              		.cfi_endproc
 3442              	.LFE137:
 3444              		.section	.text.osTimerNew,"ax",%progbits
 3445              		.align	1
 3446              		.global	osTimerNew
 3447              		.syntax unified
 3448              		.thumb
 3449              		.thumb_func
 3450              		.fpu fpv4-sp-d16
 3452              	osTimerNew:
 3453              	.LFB139:
 875:Middlewares/Third_Party/FreeRTOS/Source/CMSIS_RTOS_V2/cmsis_os2.c **** 
 876:Middlewares/Third_Party/FreeRTOS/Source/CMSIS_RTOS_V2/cmsis_os2.c **** osTimerId_t osTimerNew (osTimerFunc_t func, osTimerType_t type, void *argument, const osTimerAttr_t
 3454              		.loc 1 876 0
 3455              		.cfi_startproc
 3456              		@ args = 0, pretend = 0, frame = 0
 3457              		@ frame_needed = 0, uses_anonymous_args = 0
 3458              	.LVL275:
 3459 0000 F0B5     		push	{r4, r5, r6, r7, lr}
 3460              	.LCFI51:
 3461              		.cfi_def_cfa_offset 20
 3462              		.cfi_offset 4, -20
 3463              		.cfi_offset 5, -16
 3464              		.cfi_offset 6, -12
ARM GAS  /tmp/ccjsdB5h.s 			page 96


 3465              		.cfi_offset 7, -8
 3466              		.cfi_offset 14, -4
 3467 0002 83B0     		sub	sp, sp, #12
 3468              	.LCFI52:
 3469              		.cfi_def_cfa_offset 32
 3470              	.LVL276:
 3471              	.LBB488:
 3472              	.LBB489:
 209:Drivers/CMSIS/Include/cmsis_gcc.h ****   return(result);
 3473              		.loc 2 209 0
 3474              		.syntax unified
 3475              	@ 209 "Drivers/CMSIS/Include/cmsis_gcc.h" 1
 3476 0004 EFF30585 		MRS r5, ipsr
 3477              	@ 0 "" 2
 3478              		.thumb
 3479              		.syntax unified
 3480              	.LBE489:
 3481              	.LBE488:
 877:Middlewares/Third_Party/FreeRTOS/Source/CMSIS_RTOS_V2/cmsis_os2.c ****   const char *name;
 878:Middlewares/Third_Party/FreeRTOS/Source/CMSIS_RTOS_V2/cmsis_os2.c ****   TimerHandle_t hTimer;
 879:Middlewares/Third_Party/FreeRTOS/Source/CMSIS_RTOS_V2/cmsis_os2.c ****   TimerCallback_t *callb;
 880:Middlewares/Third_Party/FreeRTOS/Source/CMSIS_RTOS_V2/cmsis_os2.c ****   UBaseType_t reload;
 881:Middlewares/Third_Party/FreeRTOS/Source/CMSIS_RTOS_V2/cmsis_os2.c ****   int32_t mem;
 882:Middlewares/Third_Party/FreeRTOS/Source/CMSIS_RTOS_V2/cmsis_os2.c **** 
 883:Middlewares/Third_Party/FreeRTOS/Source/CMSIS_RTOS_V2/cmsis_os2.c ****   hTimer = NULL;
 884:Middlewares/Third_Party/FreeRTOS/Source/CMSIS_RTOS_V2/cmsis_os2.c **** 
 885:Middlewares/Third_Party/FreeRTOS/Source/CMSIS_RTOS_V2/cmsis_os2.c ****   if (!IS_IRQ() && (func != NULL)) {
 3482              		.loc 1 885 0
 3483 0008 002D     		cmp	r5, #0
 3484 000a 39D1     		bne	.L354
 3485              	.LBB490:
 3486              	.LBB491:
 386:Drivers/CMSIS/Include/cmsis_gcc.h ****   return(result);
 3487              		.loc 2 386 0
 3488              		.syntax unified
 3489              	@ 386 "Drivers/CMSIS/Include/cmsis_gcc.h" 1
 3490 000c EFF31085 		MRS r5, primask
 3491              	@ 0 "" 2
 3492              		.thumb
 3493              		.syntax unified
 3494              	.LBE491:
 3495              	.LBE490:
 3496              		.loc 1 885 0
 3497 0010 002D     		cmp	r5, #0
 3498 0012 37D1     		bne	.L355
 3499              		.loc 1 885 0 is_stmt 0 discriminator 2
 3500 0014 1E4C     		ldr	r4, .L362
 3501 0016 2468     		ldr	r4, [r4]
 3502 0018 022C     		cmp	r4, #2
 3503 001a 18D0     		beq	.L361
 3504              	.L350:
 3505              		.loc 1 885 0 discriminator 5
 3506 001c 0028     		cmp	r0, #0
 3507 001e 33D0     		beq	.L357
 3508 0020 1C46     		mov	r4, r3
 3509 0022 1746     		mov	r7, r2
 3510 0024 0D46     		mov	r5, r1
ARM GAS  /tmp/ccjsdB5h.s 			page 97


 3511 0026 0646     		mov	r6, r0
 886:Middlewares/Third_Party/FreeRTOS/Source/CMSIS_RTOS_V2/cmsis_os2.c ****     /* Allocate memory to store callback function and argument */
 887:Middlewares/Third_Party/FreeRTOS/Source/CMSIS_RTOS_V2/cmsis_os2.c ****     callb = pvPortMalloc (sizeof(TimerCallback_t));
 3512              		.loc 1 887 0 is_stmt 1
 3513 0028 0820     		movs	r0, #8
 3514              	.LVL277:
 3515 002a FFF7FEFF 		bl	pvPortMalloc
 3516              	.LVL278:
 888:Middlewares/Third_Party/FreeRTOS/Source/CMSIS_RTOS_V2/cmsis_os2.c **** 
 889:Middlewares/Third_Party/FreeRTOS/Source/CMSIS_RTOS_V2/cmsis_os2.c ****     if (callb != NULL) {
 3517              		.loc 1 889 0
 3518 002e 0346     		mov	r3, r0
 3519 0030 60B3     		cbz	r0, .L358
 890:Middlewares/Third_Party/FreeRTOS/Source/CMSIS_RTOS_V2/cmsis_os2.c ****       callb->func = func;
 3520              		.loc 1 890 0
 3521 0032 0660     		str	r6, [r0]
 891:Middlewares/Third_Party/FreeRTOS/Source/CMSIS_RTOS_V2/cmsis_os2.c ****       callb->arg  = argument;
 3522              		.loc 1 891 0
 3523 0034 4760     		str	r7, [r0, #4]
 892:Middlewares/Third_Party/FreeRTOS/Source/CMSIS_RTOS_V2/cmsis_os2.c **** 
 893:Middlewares/Third_Party/FreeRTOS/Source/CMSIS_RTOS_V2/cmsis_os2.c ****       if (type == osTimerOnce) {
 3524              		.loc 1 893 0
 3525 0036 2A1C     		adds	r2, r5, #0
 3526 0038 18BF     		it	ne
 3527 003a 0122     		movne	r2, #1
 3528              	.LVL279:
 894:Middlewares/Third_Party/FreeRTOS/Source/CMSIS_RTOS_V2/cmsis_os2.c ****         reload = pdFALSE;
 895:Middlewares/Third_Party/FreeRTOS/Source/CMSIS_RTOS_V2/cmsis_os2.c ****       } else {
 896:Middlewares/Third_Party/FreeRTOS/Source/CMSIS_RTOS_V2/cmsis_os2.c ****         reload = pdTRUE;
 897:Middlewares/Third_Party/FreeRTOS/Source/CMSIS_RTOS_V2/cmsis_os2.c ****       }
 898:Middlewares/Third_Party/FreeRTOS/Source/CMSIS_RTOS_V2/cmsis_os2.c **** 
 899:Middlewares/Third_Party/FreeRTOS/Source/CMSIS_RTOS_V2/cmsis_os2.c ****       mem  = -1;
 900:Middlewares/Third_Party/FreeRTOS/Source/CMSIS_RTOS_V2/cmsis_os2.c ****       name = NULL;
 901:Middlewares/Third_Party/FreeRTOS/Source/CMSIS_RTOS_V2/cmsis_os2.c **** 
 902:Middlewares/Third_Party/FreeRTOS/Source/CMSIS_RTOS_V2/cmsis_os2.c ****       if (attr != NULL) {
 3529              		.loc 1 902 0
 3530 003c C4B1     		cbz	r4, .L359
 903:Middlewares/Third_Party/FreeRTOS/Source/CMSIS_RTOS_V2/cmsis_os2.c ****         if (attr->name != NULL) {
 3531              		.loc 1 903 0
 3532 003e 2068     		ldr	r0, [r4]
 3533              	.LVL280:
 904:Middlewares/Third_Party/FreeRTOS/Source/CMSIS_RTOS_V2/cmsis_os2.c ****           name = attr->name;
 905:Middlewares/Third_Party/FreeRTOS/Source/CMSIS_RTOS_V2/cmsis_os2.c ****         }
 906:Middlewares/Third_Party/FreeRTOS/Source/CMSIS_RTOS_V2/cmsis_os2.c **** 
 907:Middlewares/Third_Party/FreeRTOS/Source/CMSIS_RTOS_V2/cmsis_os2.c ****         if ((attr->cb_mem != NULL) && (attr->cb_size >= sizeof(StaticTimer_t))) {
 3534              		.loc 1 907 0
 3535 0040 A168     		ldr	r1, [r4, #8]
 3536 0042 51B1     		cbz	r1, .L352
 3537              		.loc 1 907 0 is_stmt 0 discriminator 1
 3538 0044 E468     		ldr	r4, [r4, #12]
 3539              	.LVL281:
 3540 0046 2F2C     		cmp	r4, #47
 3541 0048 0BD8     		bhi	.L353
 883:Middlewares/Third_Party/FreeRTOS/Source/CMSIS_RTOS_V2/cmsis_os2.c **** 
 3542              		.loc 1 883 0 is_stmt 1
 3543 004a 0020     		movs	r0, #0
 3544              	.LVL282:
ARM GAS  /tmp/ccjsdB5h.s 			page 98


 3545 004c 16E0     		b	.L348
 3546              	.LVL283:
 3547              	.L361:
 3548              	.LBB492:
 3549              	.LBB493:
 3550              		.loc 2 465 0
 3551              		.syntax unified
 3552              	@ 465 "Drivers/CMSIS/Include/cmsis_gcc.h" 1
 3553 004e EFF31184 		MRS r4, basepri
 3554              	@ 0 "" 2
 3555              		.thumb
 3556              		.syntax unified
 3557              	.LBE493:
 3558              	.LBE492:
 885:Middlewares/Third_Party/FreeRTOS/Source/CMSIS_RTOS_V2/cmsis_os2.c ****     /* Allocate memory to store callback function and argument */
 3559              		.loc 1 885 0
 3560 0052 002C     		cmp	r4, #0
 3561 0054 E2D0     		beq	.L350
 883:Middlewares/Third_Party/FreeRTOS/Source/CMSIS_RTOS_V2/cmsis_os2.c **** 
 3562              		.loc 1 883 0
 3563 0056 0020     		movs	r0, #0
 3564              	.LVL284:
 3565 0058 10E0     		b	.L348
 3566              	.LVL285:
 3567              	.L352:
 908:Middlewares/Third_Party/FreeRTOS/Source/CMSIS_RTOS_V2/cmsis_os2.c ****           mem = 1;
 909:Middlewares/Third_Party/FreeRTOS/Source/CMSIS_RTOS_V2/cmsis_os2.c ****         }
 910:Middlewares/Third_Party/FreeRTOS/Source/CMSIS_RTOS_V2/cmsis_os2.c ****         else {
 911:Middlewares/Third_Party/FreeRTOS/Source/CMSIS_RTOS_V2/cmsis_os2.c ****           if ((attr->cb_mem == NULL) && (attr->cb_size == 0U)) {
 3568              		.loc 1 911 0 discriminator 1
 3569 005a E168     		ldr	r1, [r4, #12]
 912:Middlewares/Third_Party/FreeRTOS/Source/CMSIS_RTOS_V2/cmsis_os2.c ****             mem = 0;
 913:Middlewares/Third_Party/FreeRTOS/Source/CMSIS_RTOS_V2/cmsis_os2.c ****           }
 914:Middlewares/Third_Party/FreeRTOS/Source/CMSIS_RTOS_V2/cmsis_os2.c ****         }
 915:Middlewares/Third_Party/FreeRTOS/Source/CMSIS_RTOS_V2/cmsis_os2.c ****       }
 916:Middlewares/Third_Party/FreeRTOS/Source/CMSIS_RTOS_V2/cmsis_os2.c ****       else {
 917:Middlewares/Third_Party/FreeRTOS/Source/CMSIS_RTOS_V2/cmsis_os2.c ****         mem = 0;
 918:Middlewares/Third_Party/FreeRTOS/Source/CMSIS_RTOS_V2/cmsis_os2.c ****       }
 919:Middlewares/Third_Party/FreeRTOS/Source/CMSIS_RTOS_V2/cmsis_os2.c **** 
 920:Middlewares/Third_Party/FreeRTOS/Source/CMSIS_RTOS_V2/cmsis_os2.c ****       if (mem == 1) {
 921:Middlewares/Third_Party/FreeRTOS/Source/CMSIS_RTOS_V2/cmsis_os2.c ****         hTimer = xTimerCreateStatic (name, 1, reload, callb, TimerCallback, (StaticTimer_t *)attr->
 922:Middlewares/Third_Party/FreeRTOS/Source/CMSIS_RTOS_V2/cmsis_os2.c ****       }
 923:Middlewares/Third_Party/FreeRTOS/Source/CMSIS_RTOS_V2/cmsis_os2.c ****       else {
 924:Middlewares/Third_Party/FreeRTOS/Source/CMSIS_RTOS_V2/cmsis_os2.c ****         if (mem == 0) {
 3570              		.loc 1 924 0 discriminator 1
 3571 005c 49B1     		cbz	r1, .L351
 883:Middlewares/Third_Party/FreeRTOS/Source/CMSIS_RTOS_V2/cmsis_os2.c **** 
 3572              		.loc 1 883 0
 3573 005e 0020     		movs	r0, #0
 3574              	.LVL286:
 3575 0060 0CE0     		b	.L348
 3576              	.LVL287:
 3577              	.L353:
 921:Middlewares/Third_Party/FreeRTOS/Source/CMSIS_RTOS_V2/cmsis_os2.c ****       }
 3578              		.loc 1 921 0
 3579 0062 0191     		str	r1, [sp, #4]
 3580 0064 0B49     		ldr	r1, .L362+4
ARM GAS  /tmp/ccjsdB5h.s 			page 99


 3581 0066 0091     		str	r1, [sp]
 3582 0068 0121     		movs	r1, #1
 3583 006a FFF7FEFF 		bl	xTimerCreateStatic
 3584              	.LVL288:
 3585 006e 05E0     		b	.L348
 3586              	.LVL289:
 3587              	.L359:
 900:Middlewares/Third_Party/FreeRTOS/Source/CMSIS_RTOS_V2/cmsis_os2.c **** 
 3588              		.loc 1 900 0
 3589 0070 0020     		movs	r0, #0
 3590              	.LVL290:
 3591              	.L351:
 925:Middlewares/Third_Party/FreeRTOS/Source/CMSIS_RTOS_V2/cmsis_os2.c ****           hTimer = xTimerCreate (name, 1, reload, callb, TimerCallback);
 3592              		.loc 1 925 0
 3593 0072 0849     		ldr	r1, .L362+4
 3594 0074 0091     		str	r1, [sp]
 3595 0076 0121     		movs	r1, #1
 3596 0078 FFF7FEFF 		bl	xTimerCreate
 3597              	.LVL291:
 3598              	.L348:
 926:Middlewares/Third_Party/FreeRTOS/Source/CMSIS_RTOS_V2/cmsis_os2.c ****         }
 927:Middlewares/Third_Party/FreeRTOS/Source/CMSIS_RTOS_V2/cmsis_os2.c ****       }
 928:Middlewares/Third_Party/FreeRTOS/Source/CMSIS_RTOS_V2/cmsis_os2.c ****     }
 929:Middlewares/Third_Party/FreeRTOS/Source/CMSIS_RTOS_V2/cmsis_os2.c ****   }
 930:Middlewares/Third_Party/FreeRTOS/Source/CMSIS_RTOS_V2/cmsis_os2.c **** 
 931:Middlewares/Third_Party/FreeRTOS/Source/CMSIS_RTOS_V2/cmsis_os2.c ****   return ((osTimerId_t)hTimer);
 932:Middlewares/Third_Party/FreeRTOS/Source/CMSIS_RTOS_V2/cmsis_os2.c **** }
 3599              		.loc 1 932 0
 3600 007c 03B0     		add	sp, sp, #12
 3601              	.LCFI53:
 3602              		.cfi_remember_state
 3603              		.cfi_def_cfa_offset 20
 3604              		@ sp needed
 3605 007e F0BD     		pop	{r4, r5, r6, r7, pc}
 3606              	.LVL292:
 3607              	.L354:
 3608              	.LCFI54:
 3609              		.cfi_restore_state
 883:Middlewares/Third_Party/FreeRTOS/Source/CMSIS_RTOS_V2/cmsis_os2.c **** 
 3610              		.loc 1 883 0
 3611 0080 0020     		movs	r0, #0
 3612              	.LVL293:
 3613 0082 FBE7     		b	.L348
 3614              	.LVL294:
 3615              	.L355:
 3616 0084 0020     		movs	r0, #0
 3617              	.LVL295:
 3618 0086 F9E7     		b	.L348
 3619              	.LVL296:
 3620              	.L357:
 3621 0088 0020     		movs	r0, #0
 3622              	.LVL297:
 3623 008a F7E7     		b	.L348
 3624              	.LVL298:
 3625              	.L358:
 3626 008c 0020     		movs	r0, #0
 3627              	.LVL299:
ARM GAS  /tmp/ccjsdB5h.s 			page 100


 931:Middlewares/Third_Party/FreeRTOS/Source/CMSIS_RTOS_V2/cmsis_os2.c **** }
 3628              		.loc 1 931 0
 3629 008e F5E7     		b	.L348
 3630              	.L363:
 3631              		.align	2
 3632              	.L362:
 3633 0090 00000000 		.word	.LANCHOR0
 3634 0094 00000000 		.word	TimerCallback
 3635              		.cfi_endproc
 3636              	.LFE139:
 3638              		.section	.text.osTimerGetName,"ax",%progbits
 3639              		.align	1
 3640              		.global	osTimerGetName
 3641              		.syntax unified
 3642              		.thumb
 3643              		.thumb_func
 3644              		.fpu fpv4-sp-d16
 3646              	osTimerGetName:
 3647              	.LFB140:
 933:Middlewares/Third_Party/FreeRTOS/Source/CMSIS_RTOS_V2/cmsis_os2.c **** 
 934:Middlewares/Third_Party/FreeRTOS/Source/CMSIS_RTOS_V2/cmsis_os2.c **** const char *osTimerGetName (osTimerId_t timer_id) {
 3648              		.loc 1 934 0
 3649              		.cfi_startproc
 3650              		@ args = 0, pretend = 0, frame = 0
 3651              		@ frame_needed = 0, uses_anonymous_args = 0
 3652              	.LVL300:
 3653 0000 08B5     		push	{r3, lr}
 3654              	.LCFI55:
 3655              		.cfi_def_cfa_offset 8
 3656              		.cfi_offset 3, -8
 3657              		.cfi_offset 14, -4
 3658              	.LVL301:
 3659              	.LBB494:
 3660              	.LBB495:
 209:Drivers/CMSIS/Include/cmsis_gcc.h ****   return(result);
 3661              		.loc 2 209 0
 3662              		.syntax unified
 3663              	@ 209 "Drivers/CMSIS/Include/cmsis_gcc.h" 1
 3664 0002 EFF30583 		MRS r3, ipsr
 3665              	@ 0 "" 2
 3666              		.thumb
 3667              		.syntax unified
 3668              	.LBE495:
 3669              	.LBE494:
 935:Middlewares/Third_Party/FreeRTOS/Source/CMSIS_RTOS_V2/cmsis_os2.c ****   TimerHandle_t hTimer = (TimerHandle_t)timer_id;
 936:Middlewares/Third_Party/FreeRTOS/Source/CMSIS_RTOS_V2/cmsis_os2.c ****   const char *p;
 937:Middlewares/Third_Party/FreeRTOS/Source/CMSIS_RTOS_V2/cmsis_os2.c **** 
 938:Middlewares/Third_Party/FreeRTOS/Source/CMSIS_RTOS_V2/cmsis_os2.c ****   if (IS_IRQ() || (hTimer == NULL)) {
 3670              		.loc 1 938 0
 3671 0006 83B9     		cbnz	r3, .L367
 3672              	.LBB496:
 3673              	.LBB497:
 386:Drivers/CMSIS/Include/cmsis_gcc.h ****   return(result);
 3674              		.loc 2 386 0
 3675              		.syntax unified
 3676              	@ 386 "Drivers/CMSIS/Include/cmsis_gcc.h" 1
 3677 0008 EFF31083 		MRS r3, primask
ARM GAS  /tmp/ccjsdB5h.s 			page 101


 3678              	@ 0 "" 2
 3679              		.thumb
 3680              		.syntax unified
 3681              	.LBE497:
 3682              	.LBE496:
 3683              		.loc 1 938 0
 3684 000c 7BB9     		cbnz	r3, .L368
 3685              		.loc 1 938 0 is_stmt 0 discriminator 2
 3686 000e 0A4B     		ldr	r3, .L373
 3687 0010 1B68     		ldr	r3, [r3]
 3688 0012 022B     		cmp	r3, #2
 3689 0014 03D0     		beq	.L372
 3690              	.L366:
 3691              		.loc 1 938 0 discriminator 5
 3692 0016 60B1     		cbz	r0, .L370
 939:Middlewares/Third_Party/FreeRTOS/Source/CMSIS_RTOS_V2/cmsis_os2.c ****     p = NULL;
 940:Middlewares/Third_Party/FreeRTOS/Source/CMSIS_RTOS_V2/cmsis_os2.c ****   } else {
 941:Middlewares/Third_Party/FreeRTOS/Source/CMSIS_RTOS_V2/cmsis_os2.c ****     p = pcTimerGetName (hTimer);
 3693              		.loc 1 941 0 is_stmt 1
 3694 0018 FFF7FEFF 		bl	pcTimerGetName
 3695              	.LVL302:
 3696              	.L364:
 942:Middlewares/Third_Party/FreeRTOS/Source/CMSIS_RTOS_V2/cmsis_os2.c ****   }
 943:Middlewares/Third_Party/FreeRTOS/Source/CMSIS_RTOS_V2/cmsis_os2.c **** 
 944:Middlewares/Third_Party/FreeRTOS/Source/CMSIS_RTOS_V2/cmsis_os2.c ****   return (p);
 945:Middlewares/Third_Party/FreeRTOS/Source/CMSIS_RTOS_V2/cmsis_os2.c **** }
 3697              		.loc 1 945 0
 3698 001c 08BD     		pop	{r3, pc}
 3699              	.LVL303:
 3700              	.L372:
 3701              	.LBB498:
 3702              	.LBB499:
 3703              		.loc 2 465 0
 3704              		.syntax unified
 3705              	@ 465 "Drivers/CMSIS/Include/cmsis_gcc.h" 1
 3706 001e EFF31183 		MRS r3, basepri
 3707              	@ 0 "" 2
 3708              		.thumb
 3709              		.syntax unified
 3710              	.LBE499:
 3711              	.LBE498:
 938:Middlewares/Third_Party/FreeRTOS/Source/CMSIS_RTOS_V2/cmsis_os2.c ****     p = NULL;
 3712              		.loc 1 938 0
 3713 0022 002B     		cmp	r3, #0
 3714 0024 F7D0     		beq	.L366
 939:Middlewares/Third_Party/FreeRTOS/Source/CMSIS_RTOS_V2/cmsis_os2.c ****     p = NULL;
 3715              		.loc 1 939 0
 3716 0026 0020     		movs	r0, #0
 3717              	.LVL304:
 3718 0028 F8E7     		b	.L364
 3719              	.LVL305:
 3720              	.L367:
 3721 002a 0020     		movs	r0, #0
 3722              	.LVL306:
 3723 002c F6E7     		b	.L364
 3724              	.LVL307:
 3725              	.L368:
ARM GAS  /tmp/ccjsdB5h.s 			page 102


 3726 002e 0020     		movs	r0, #0
 3727              	.LVL308:
 3728 0030 F4E7     		b	.L364
 3729              	.LVL309:
 3730              	.L370:
 3731 0032 0020     		movs	r0, #0
 3732              	.LVL310:
 944:Middlewares/Third_Party/FreeRTOS/Source/CMSIS_RTOS_V2/cmsis_os2.c **** }
 3733              		.loc 1 944 0
 3734 0034 F2E7     		b	.L364
 3735              	.L374:
 3736 0036 00BF     		.align	2
 3737              	.L373:
 3738 0038 00000000 		.word	.LANCHOR0
 3739              		.cfi_endproc
 3740              	.LFE140:
 3742              		.section	.text.osTimerStart,"ax",%progbits
 3743              		.align	1
 3744              		.global	osTimerStart
 3745              		.syntax unified
 3746              		.thumb
 3747              		.thumb_func
 3748              		.fpu fpv4-sp-d16
 3750              	osTimerStart:
 3751              	.LFB141:
 946:Middlewares/Third_Party/FreeRTOS/Source/CMSIS_RTOS_V2/cmsis_os2.c **** 
 947:Middlewares/Third_Party/FreeRTOS/Source/CMSIS_RTOS_V2/cmsis_os2.c **** osStatus_t osTimerStart (osTimerId_t timer_id, uint32_t ticks) {
 3752              		.loc 1 947 0
 3753              		.cfi_startproc
 3754              		@ args = 0, pretend = 0, frame = 0
 3755              		@ frame_needed = 0, uses_anonymous_args = 0
 3756              	.LVL311:
 3757              	.LBB500:
 3758              	.LBB501:
 209:Drivers/CMSIS/Include/cmsis_gcc.h ****   return(result);
 3759              		.loc 2 209 0
 3760              		.syntax unified
 3761              	@ 209 "Drivers/CMSIS/Include/cmsis_gcc.h" 1
 3762 0000 EFF30583 		MRS r3, ipsr
 3763              	@ 0 "" 2
 3764              		.thumb
 3765              		.syntax unified
 3766              	.LBE501:
 3767              	.LBE500:
 948:Middlewares/Third_Party/FreeRTOS/Source/CMSIS_RTOS_V2/cmsis_os2.c ****   TimerHandle_t hTimer = (TimerHandle_t)timer_id;
 949:Middlewares/Third_Party/FreeRTOS/Source/CMSIS_RTOS_V2/cmsis_os2.c ****   osStatus_t stat;
 950:Middlewares/Third_Party/FreeRTOS/Source/CMSIS_RTOS_V2/cmsis_os2.c **** 
 951:Middlewares/Third_Party/FreeRTOS/Source/CMSIS_RTOS_V2/cmsis_os2.c ****   if (IS_IRQ()) {
 3768              		.loc 1 951 0
 3769 0004 F3B9     		cbnz	r3, .L378
 3770              	.LBB502:
 3771              	.LBB503:
 386:Drivers/CMSIS/Include/cmsis_gcc.h ****   return(result);
 3772              		.loc 2 386 0
 3773              		.syntax unified
 3774              	@ 386 "Drivers/CMSIS/Include/cmsis_gcc.h" 1
 3775 0006 EFF31083 		MRS r3, primask
ARM GAS  /tmp/ccjsdB5h.s 			page 103


 3776              	@ 0 "" 2
 3777              		.thumb
 3778              		.syntax unified
 3779              	.LBE503:
 3780              	.LBE502:
 3781              		.loc 1 951 0
 3782 000a F3B9     		cbnz	r3, .L379
 3783              		.loc 1 951 0 is_stmt 0 discriminator 2
 3784 000c 124B     		ldr	r3, .L388
 3785 000e 1B68     		ldr	r3, [r3]
 3786 0010 022B     		cmp	r3, #2
 3787 0012 10D0     		beq	.L387
 3788              	.L377:
 952:Middlewares/Third_Party/FreeRTOS/Source/CMSIS_RTOS_V2/cmsis_os2.c ****     stat = osErrorISR;
 953:Middlewares/Third_Party/FreeRTOS/Source/CMSIS_RTOS_V2/cmsis_os2.c ****   }
 954:Middlewares/Third_Party/FreeRTOS/Source/CMSIS_RTOS_V2/cmsis_os2.c ****   else if (hTimer == NULL) {
 3789              		.loc 1 954 0 is_stmt 1
 3790 0014 E0B1     		cbz	r0, .L381
 947:Middlewares/Third_Party/FreeRTOS/Source/CMSIS_RTOS_V2/cmsis_os2.c ****   TimerHandle_t hTimer = (TimerHandle_t)timer_id;
 3791              		.loc 1 947 0
 3792 0016 00B5     		push	{lr}
 3793              	.LCFI56:
 3794              		.cfi_def_cfa_offset 4
 3795              		.cfi_offset 14, -4
 3796 0018 83B0     		sub	sp, sp, #12
 3797              	.LCFI57:
 3798              		.cfi_def_cfa_offset 16
 3799 001a 0A46     		mov	r2, r1
 955:Middlewares/Third_Party/FreeRTOS/Source/CMSIS_RTOS_V2/cmsis_os2.c ****     stat = osErrorParameter;
 956:Middlewares/Third_Party/FreeRTOS/Source/CMSIS_RTOS_V2/cmsis_os2.c ****   }
 957:Middlewares/Third_Party/FreeRTOS/Source/CMSIS_RTOS_V2/cmsis_os2.c ****   else {
 958:Middlewares/Third_Party/FreeRTOS/Source/CMSIS_RTOS_V2/cmsis_os2.c ****     if (xTimerChangePeriod (hTimer, ticks, 0) == pdPASS) {
 3800              		.loc 1 958 0
 3801 001c 0023     		movs	r3, #0
 3802 001e 0093     		str	r3, [sp]
 3803 0020 0421     		movs	r1, #4
 3804              	.LVL312:
 3805 0022 FFF7FEFF 		bl	xTimerGenericCommand
 3806              	.LVL313:
 959:Middlewares/Third_Party/FreeRTOS/Source/CMSIS_RTOS_V2/cmsis_os2.c ****       stat = osOK;
 960:Middlewares/Third_Party/FreeRTOS/Source/CMSIS_RTOS_V2/cmsis_os2.c ****     } else {
 961:Middlewares/Third_Party/FreeRTOS/Source/CMSIS_RTOS_V2/cmsis_os2.c ****       stat = osErrorResource;
 3807              		.loc 1 961 0
 3808 0026 0128     		cmp	r0, #1
 3809 0028 0CBF     		ite	eq
 3810 002a 0020     		moveq	r0, #0
 3811 002c 6FF00200 		mvnne	r0, #2
 962:Middlewares/Third_Party/FreeRTOS/Source/CMSIS_RTOS_V2/cmsis_os2.c ****     }
 963:Middlewares/Third_Party/FreeRTOS/Source/CMSIS_RTOS_V2/cmsis_os2.c ****   }
 964:Middlewares/Third_Party/FreeRTOS/Source/CMSIS_RTOS_V2/cmsis_os2.c **** 
 965:Middlewares/Third_Party/FreeRTOS/Source/CMSIS_RTOS_V2/cmsis_os2.c ****   return (stat);
 966:Middlewares/Third_Party/FreeRTOS/Source/CMSIS_RTOS_V2/cmsis_os2.c **** }
 3812              		.loc 1 966 0
 3813 0030 03B0     		add	sp, sp, #12
 3814              	.LCFI58:
 3815              		.cfi_def_cfa_offset 4
 3816              		@ sp needed
ARM GAS  /tmp/ccjsdB5h.s 			page 104


 3817 0032 5DF804FB 		ldr	pc, [sp], #4
 3818              	.LVL314:
 3819              	.L387:
 3820              	.LCFI59:
 3821              		.cfi_def_cfa_offset 0
 3822              		.cfi_restore 14
 3823              	.LBB504:
 3824              	.LBB505:
 3825              		.loc 2 465 0
 3826              		.syntax unified
 3827              	@ 465 "Drivers/CMSIS/Include/cmsis_gcc.h" 1
 3828 0036 EFF31183 		MRS r3, basepri
 3829              	@ 0 "" 2
 3830              		.thumb
 3831              		.syntax unified
 3832              	.LBE505:
 3833              	.LBE504:
 951:Middlewares/Third_Party/FreeRTOS/Source/CMSIS_RTOS_V2/cmsis_os2.c ****     stat = osErrorISR;
 3834              		.loc 1 951 0
 3835 003a 002B     		cmp	r3, #0
 3836 003c EAD0     		beq	.L377
 952:Middlewares/Third_Party/FreeRTOS/Source/CMSIS_RTOS_V2/cmsis_os2.c ****   }
 3837              		.loc 1 952 0
 3838 003e 6FF00500 		mvn	r0, #5
 3839              	.LVL315:
 3840 0042 7047     		bx	lr
 3841              	.LVL316:
 3842              	.L378:
 3843 0044 6FF00500 		mvn	r0, #5
 3844              	.LVL317:
 3845 0048 7047     		bx	lr
 3846              	.LVL318:
 3847              	.L379:
 3848 004a 6FF00500 		mvn	r0, #5
 3849              	.LVL319:
 3850 004e 7047     		bx	lr
 3851              	.LVL320:
 3852              	.L381:
 955:Middlewares/Third_Party/FreeRTOS/Source/CMSIS_RTOS_V2/cmsis_os2.c ****   }
 3853              		.loc 1 955 0
 3854 0050 6FF00300 		mvn	r0, #3
 3855              	.LVL321:
 3856              		.loc 1 966 0
 3857 0054 7047     		bx	lr
 3858              	.L389:
 3859 0056 00BF     		.align	2
 3860              	.L388:
 3861 0058 00000000 		.word	.LANCHOR0
 3862              		.cfi_endproc
 3863              	.LFE141:
 3865              		.section	.text.osTimerStop,"ax",%progbits
 3866              		.align	1
 3867              		.global	osTimerStop
 3868              		.syntax unified
 3869              		.thumb
 3870              		.thumb_func
 3871              		.fpu fpv4-sp-d16
ARM GAS  /tmp/ccjsdB5h.s 			page 105


 3873              	osTimerStop:
 3874              	.LFB142:
 967:Middlewares/Third_Party/FreeRTOS/Source/CMSIS_RTOS_V2/cmsis_os2.c **** 
 968:Middlewares/Third_Party/FreeRTOS/Source/CMSIS_RTOS_V2/cmsis_os2.c **** osStatus_t osTimerStop (osTimerId_t timer_id) {
 3875              		.loc 1 968 0
 3876              		.cfi_startproc
 3877              		@ args = 0, pretend = 0, frame = 0
 3878              		@ frame_needed = 0, uses_anonymous_args = 0
 3879              	.LVL322:
 3880              	.LBB506:
 3881              	.LBB507:
 209:Drivers/CMSIS/Include/cmsis_gcc.h ****   return(result);
 3882              		.loc 2 209 0
 3883              		.syntax unified
 3884              	@ 209 "Drivers/CMSIS/Include/cmsis_gcc.h" 1
 3885 0000 EFF30583 		MRS r3, ipsr
 3886              	@ 0 "" 2
 3887              		.thumb
 3888              		.syntax unified
 3889              	.LBE507:
 3890              	.LBE506:
 969:Middlewares/Third_Party/FreeRTOS/Source/CMSIS_RTOS_V2/cmsis_os2.c ****   TimerHandle_t hTimer = (TimerHandle_t)timer_id;
 970:Middlewares/Third_Party/FreeRTOS/Source/CMSIS_RTOS_V2/cmsis_os2.c ****   osStatus_t stat;
 971:Middlewares/Third_Party/FreeRTOS/Source/CMSIS_RTOS_V2/cmsis_os2.c **** 
 972:Middlewares/Third_Party/FreeRTOS/Source/CMSIS_RTOS_V2/cmsis_os2.c ****   if (IS_IRQ()) {
 3891              		.loc 1 972 0
 3892 0004 13BB     		cbnz	r3, .L393
 3893              	.LBB508:
 3894              	.LBB509:
 386:Drivers/CMSIS/Include/cmsis_gcc.h ****   return(result);
 3895              		.loc 2 386 0
 3896              		.syntax unified
 3897              	@ 386 "Drivers/CMSIS/Include/cmsis_gcc.h" 1
 3898 0006 EFF31083 		MRS r3, primask
 3899              	@ 0 "" 2
 3900              		.thumb
 3901              		.syntax unified
 3902              	.LBE509:
 3903              	.LBE508:
 3904              		.loc 1 972 0
 3905 000a 13BB     		cbnz	r3, .L394
 3906              		.loc 1 972 0 is_stmt 0 discriminator 2
 3907 000c 154B     		ldr	r3, .L403
 3908 000e 1B68     		ldr	r3, [r3]
 3909 0010 022B     		cmp	r3, #2
 3910 0012 14D0     		beq	.L402
 3911              	.L392:
 973:Middlewares/Third_Party/FreeRTOS/Source/CMSIS_RTOS_V2/cmsis_os2.c ****     stat = osErrorISR;
 974:Middlewares/Third_Party/FreeRTOS/Source/CMSIS_RTOS_V2/cmsis_os2.c ****   }
 975:Middlewares/Third_Party/FreeRTOS/Source/CMSIS_RTOS_V2/cmsis_os2.c ****   else if (hTimer == NULL) {
 3912              		.loc 1 975 0 is_stmt 1
 3913 0014 00B3     		cbz	r0, .L396
 968:Middlewares/Third_Party/FreeRTOS/Source/CMSIS_RTOS_V2/cmsis_os2.c ****   TimerHandle_t hTimer = (TimerHandle_t)timer_id;
 3914              		.loc 1 968 0
 3915 0016 10B5     		push	{r4, lr}
 3916              	.LCFI60:
 3917              		.cfi_def_cfa_offset 8
ARM GAS  /tmp/ccjsdB5h.s 			page 106


 3918              		.cfi_offset 4, -8
 3919              		.cfi_offset 14, -4
 3920 0018 82B0     		sub	sp, sp, #8
 3921              	.LCFI61:
 3922              		.cfi_def_cfa_offset 16
 3923 001a 0446     		mov	r4, r0
 976:Middlewares/Third_Party/FreeRTOS/Source/CMSIS_RTOS_V2/cmsis_os2.c ****     stat = osErrorParameter;
 977:Middlewares/Third_Party/FreeRTOS/Source/CMSIS_RTOS_V2/cmsis_os2.c ****   }
 978:Middlewares/Third_Party/FreeRTOS/Source/CMSIS_RTOS_V2/cmsis_os2.c ****   else {
 979:Middlewares/Third_Party/FreeRTOS/Source/CMSIS_RTOS_V2/cmsis_os2.c ****     if (xTimerIsTimerActive (hTimer) == pdFALSE) {
 3924              		.loc 1 979 0
 3925 001c FFF7FEFF 		bl	xTimerIsTimerActive
 3926              	.LVL323:
 3927 0020 E8B1     		cbz	r0, .L397
 980:Middlewares/Third_Party/FreeRTOS/Source/CMSIS_RTOS_V2/cmsis_os2.c ****       stat = osErrorResource;
 981:Middlewares/Third_Party/FreeRTOS/Source/CMSIS_RTOS_V2/cmsis_os2.c ****     }
 982:Middlewares/Third_Party/FreeRTOS/Source/CMSIS_RTOS_V2/cmsis_os2.c ****     else {
 983:Middlewares/Third_Party/FreeRTOS/Source/CMSIS_RTOS_V2/cmsis_os2.c ****       if (xTimerStop (hTimer, 0) == pdPASS) {
 3928              		.loc 1 983 0
 3929 0022 0022     		movs	r2, #0
 3930 0024 0092     		str	r2, [sp]
 3931 0026 1346     		mov	r3, r2
 3932 0028 0321     		movs	r1, #3
 3933 002a 2046     		mov	r0, r4
 3934 002c FFF7FEFF 		bl	xTimerGenericCommand
 3935              	.LVL324:
 3936 0030 10F1FF30 		adds	r0, r0, #-1
 3937 0034 18BF     		it	ne
 3938 0036 4FF0FF30 		movne	r0, #-1
 3939              	.L390:
 984:Middlewares/Third_Party/FreeRTOS/Source/CMSIS_RTOS_V2/cmsis_os2.c ****         stat = osOK;
 985:Middlewares/Third_Party/FreeRTOS/Source/CMSIS_RTOS_V2/cmsis_os2.c ****       } else {
 986:Middlewares/Third_Party/FreeRTOS/Source/CMSIS_RTOS_V2/cmsis_os2.c ****         stat = osError;
 987:Middlewares/Third_Party/FreeRTOS/Source/CMSIS_RTOS_V2/cmsis_os2.c ****       }
 988:Middlewares/Third_Party/FreeRTOS/Source/CMSIS_RTOS_V2/cmsis_os2.c ****     }
 989:Middlewares/Third_Party/FreeRTOS/Source/CMSIS_RTOS_V2/cmsis_os2.c ****   }
 990:Middlewares/Third_Party/FreeRTOS/Source/CMSIS_RTOS_V2/cmsis_os2.c **** 
 991:Middlewares/Third_Party/FreeRTOS/Source/CMSIS_RTOS_V2/cmsis_os2.c ****   return (stat);
 992:Middlewares/Third_Party/FreeRTOS/Source/CMSIS_RTOS_V2/cmsis_os2.c **** }
 3940              		.loc 1 992 0
 3941 003a 02B0     		add	sp, sp, #8
 3942              	.LCFI62:
 3943              		.cfi_def_cfa_offset 8
 3944              		@ sp needed
 3945 003c 10BD     		pop	{r4, pc}
 3946              	.LVL325:
 3947              	.L402:
 3948              	.LCFI63:
 3949              		.cfi_def_cfa_offset 0
 3950              		.cfi_restore 4
 3951              		.cfi_restore 14
 3952              	.LBB510:
 3953              	.LBB511:
 3954              		.loc 2 465 0
 3955              		.syntax unified
 3956              	@ 465 "Drivers/CMSIS/Include/cmsis_gcc.h" 1
 3957 003e EFF31183 		MRS r3, basepri
ARM GAS  /tmp/ccjsdB5h.s 			page 107


 3958              	@ 0 "" 2
 3959              		.thumb
 3960              		.syntax unified
 3961              	.LBE511:
 3962              	.LBE510:
 972:Middlewares/Third_Party/FreeRTOS/Source/CMSIS_RTOS_V2/cmsis_os2.c ****     stat = osErrorISR;
 3963              		.loc 1 972 0
 3964 0042 002B     		cmp	r3, #0
 3965 0044 E6D0     		beq	.L392
 973:Middlewares/Third_Party/FreeRTOS/Source/CMSIS_RTOS_V2/cmsis_os2.c ****   }
 3966              		.loc 1 973 0
 3967 0046 6FF00500 		mvn	r0, #5
 3968              	.LVL326:
 3969 004a 7047     		bx	lr
 3970              	.LVL327:
 3971              	.L393:
 3972 004c 6FF00500 		mvn	r0, #5
 3973              	.LVL328:
 3974 0050 7047     		bx	lr
 3975              	.LVL329:
 3976              	.L394:
 3977 0052 6FF00500 		mvn	r0, #5
 3978              	.LVL330:
 3979 0056 7047     		bx	lr
 3980              	.LVL331:
 3981              	.L396:
 976:Middlewares/Third_Party/FreeRTOS/Source/CMSIS_RTOS_V2/cmsis_os2.c ****   }
 3982              		.loc 1 976 0
 3983 0058 6FF00300 		mvn	r0, #3
 3984              	.LVL332:
 3985              		.loc 1 992 0
 3986 005c 7047     		bx	lr
 3987              	.LVL333:
 3988              	.L397:
 3989              	.LCFI64:
 3990              		.cfi_def_cfa_offset 16
 3991              		.cfi_offset 4, -8
 3992              		.cfi_offset 14, -4
 980:Middlewares/Third_Party/FreeRTOS/Source/CMSIS_RTOS_V2/cmsis_os2.c ****     }
 3993              		.loc 1 980 0
 3994 005e 6FF00200 		mvn	r0, #2
 3995              	.LVL334:
 991:Middlewares/Third_Party/FreeRTOS/Source/CMSIS_RTOS_V2/cmsis_os2.c **** }
 3996              		.loc 1 991 0
 3997 0062 EAE7     		b	.L390
 3998              	.L404:
 3999              		.align	2
 4000              	.L403:
 4001 0064 00000000 		.word	.LANCHOR0
 4002              		.cfi_endproc
 4003              	.LFE142:
 4005              		.section	.text.osTimerIsRunning,"ax",%progbits
 4006              		.align	1
 4007              		.global	osTimerIsRunning
 4008              		.syntax unified
 4009              		.thumb
 4010              		.thumb_func
ARM GAS  /tmp/ccjsdB5h.s 			page 108


 4011              		.fpu fpv4-sp-d16
 4013              	osTimerIsRunning:
 4014              	.LFB143:
 993:Middlewares/Third_Party/FreeRTOS/Source/CMSIS_RTOS_V2/cmsis_os2.c **** 
 994:Middlewares/Third_Party/FreeRTOS/Source/CMSIS_RTOS_V2/cmsis_os2.c **** uint32_t osTimerIsRunning (osTimerId_t timer_id) {
 4015              		.loc 1 994 0
 4016              		.cfi_startproc
 4017              		@ args = 0, pretend = 0, frame = 0
 4018              		@ frame_needed = 0, uses_anonymous_args = 0
 4019              	.LVL335:
 4020 0000 08B5     		push	{r3, lr}
 4021              	.LCFI65:
 4022              		.cfi_def_cfa_offset 8
 4023              		.cfi_offset 3, -8
 4024              		.cfi_offset 14, -4
 4025 0002 0346     		mov	r3, r0
 4026              	.LVL336:
 4027              	.LBB512:
 4028              	.LBB513:
 209:Drivers/CMSIS/Include/cmsis_gcc.h ****   return(result);
 4029              		.loc 2 209 0
 4030              		.syntax unified
 4031              	@ 209 "Drivers/CMSIS/Include/cmsis_gcc.h" 1
 4032 0004 EFF30580 		MRS r0, ipsr
 4033              	@ 0 "" 2
 4034              	.LVL337:
 4035              		.thumb
 4036              		.syntax unified
 4037              	.LBE513:
 4038              	.LBE512:
 995:Middlewares/Third_Party/FreeRTOS/Source/CMSIS_RTOS_V2/cmsis_os2.c ****   TimerHandle_t hTimer = (TimerHandle_t)timer_id;
 996:Middlewares/Third_Party/FreeRTOS/Source/CMSIS_RTOS_V2/cmsis_os2.c ****   uint32_t running;
 997:Middlewares/Third_Party/FreeRTOS/Source/CMSIS_RTOS_V2/cmsis_os2.c **** 
 998:Middlewares/Third_Party/FreeRTOS/Source/CMSIS_RTOS_V2/cmsis_os2.c ****   if (IS_IRQ() || (hTimer == NULL)) {
 4039              		.loc 1 998 0
 4040 0008 88B9     		cbnz	r0, .L408
 4041              	.LBB514:
 4042              	.LBB515:
 386:Drivers/CMSIS/Include/cmsis_gcc.h ****   return(result);
 4043              		.loc 2 386 0
 4044              		.syntax unified
 4045              	@ 386 "Drivers/CMSIS/Include/cmsis_gcc.h" 1
 4046 000a EFF31082 		MRS r2, primask
 4047              	@ 0 "" 2
 4048              		.thumb
 4049              		.syntax unified
 4050              	.LBE515:
 4051              	.LBE514:
 4052              		.loc 1 998 0
 4053 000e 7AB9     		cbnz	r2, .L405
 4054              		.loc 1 998 0 is_stmt 0 discriminator 2
 4055 0010 0949     		ldr	r1, .L413
 4056 0012 0968     		ldr	r1, [r1]
 4057 0014 0229     		cmp	r1, #2
 4058 0016 04D0     		beq	.L412
 4059              	.L407:
 4060              		.loc 1 998 0 discriminator 5
ARM GAS  /tmp/ccjsdB5h.s 			page 109


 4061 0018 5BB1     		cbz	r3, .L410
 4062 001a 1846     		mov	r0, r3
 999:Middlewares/Third_Party/FreeRTOS/Source/CMSIS_RTOS_V2/cmsis_os2.c ****     running = 0U;
1000:Middlewares/Third_Party/FreeRTOS/Source/CMSIS_RTOS_V2/cmsis_os2.c ****   } else {
1001:Middlewares/Third_Party/FreeRTOS/Source/CMSIS_RTOS_V2/cmsis_os2.c ****     running = (uint32_t)xTimerIsTimerActive (hTimer);
 4063              		.loc 1 1001 0 is_stmt 1
 4064 001c FFF7FEFF 		bl	xTimerIsTimerActive
 4065              	.LVL338:
 4066 0020 06E0     		b	.L405
 4067              	.LVL339:
 4068              	.L412:
 4069              	.LBB516:
 4070              	.LBB517:
 4071              		.loc 2 465 0
 4072              		.syntax unified
 4073              	@ 465 "Drivers/CMSIS/Include/cmsis_gcc.h" 1
 4074 0022 EFF31181 		MRS r1, basepri
 4075              	@ 0 "" 2
 4076              		.thumb
 4077              		.syntax unified
 4078              	.LBE517:
 4079              	.LBE516:
 998:Middlewares/Third_Party/FreeRTOS/Source/CMSIS_RTOS_V2/cmsis_os2.c ****     running = 0U;
 4080              		.loc 1 998 0
 4081 0026 0029     		cmp	r1, #0
 4082 0028 F6D0     		beq	.L407
 999:Middlewares/Third_Party/FreeRTOS/Source/CMSIS_RTOS_V2/cmsis_os2.c ****     running = 0U;
 4083              		.loc 1 999 0
 4084 002a 1046     		mov	r0, r2
 4085 002c 00E0     		b	.L405
 4086              	.L408:
 4087 002e 0020     		movs	r0, #0
 4088              	.LVL340:
 4089              	.L405:
1002:Middlewares/Third_Party/FreeRTOS/Source/CMSIS_RTOS_V2/cmsis_os2.c ****   }
1003:Middlewares/Third_Party/FreeRTOS/Source/CMSIS_RTOS_V2/cmsis_os2.c **** 
1004:Middlewares/Third_Party/FreeRTOS/Source/CMSIS_RTOS_V2/cmsis_os2.c ****   return (running);
1005:Middlewares/Third_Party/FreeRTOS/Source/CMSIS_RTOS_V2/cmsis_os2.c **** }
 4090              		.loc 1 1005 0
 4091 0030 08BD     		pop	{r3, pc}
 4092              	.LVL341:
 4093              	.L410:
 999:Middlewares/Third_Party/FreeRTOS/Source/CMSIS_RTOS_V2/cmsis_os2.c ****   } else {
 4094              		.loc 1 999 0
 4095 0032 1046     		mov	r0, r2
1004:Middlewares/Third_Party/FreeRTOS/Source/CMSIS_RTOS_V2/cmsis_os2.c **** }
 4096              		.loc 1 1004 0
 4097 0034 FCE7     		b	.L405
 4098              	.L414:
 4099 0036 00BF     		.align	2
 4100              	.L413:
 4101 0038 00000000 		.word	.LANCHOR0
 4102              		.cfi_endproc
 4103              	.LFE143:
 4105              		.section	.text.osTimerDelete,"ax",%progbits
 4106              		.align	1
 4107              		.global	osTimerDelete
ARM GAS  /tmp/ccjsdB5h.s 			page 110


 4108              		.syntax unified
 4109              		.thumb
 4110              		.thumb_func
 4111              		.fpu fpv4-sp-d16
 4113              	osTimerDelete:
 4114              	.LFB144:
1006:Middlewares/Third_Party/FreeRTOS/Source/CMSIS_RTOS_V2/cmsis_os2.c **** 
1007:Middlewares/Third_Party/FreeRTOS/Source/CMSIS_RTOS_V2/cmsis_os2.c **** osStatus_t osTimerDelete (osTimerId_t timer_id) {
 4115              		.loc 1 1007 0
 4116              		.cfi_startproc
 4117              		@ args = 0, pretend = 0, frame = 0
 4118              		@ frame_needed = 0, uses_anonymous_args = 0
 4119              	.LVL342:
 4120              	.LBB518:
 4121              	.LBB519:
 209:Drivers/CMSIS/Include/cmsis_gcc.h ****   return(result);
 4122              		.loc 2 209 0
 4123              		.syntax unified
 4124              	@ 209 "Drivers/CMSIS/Include/cmsis_gcc.h" 1
 4125 0000 EFF30583 		MRS r3, ipsr
 4126              	@ 0 "" 2
 4127              		.thumb
 4128              		.syntax unified
 4129              	.LBE519:
 4130              	.LBE518:
1008:Middlewares/Third_Party/FreeRTOS/Source/CMSIS_RTOS_V2/cmsis_os2.c ****   TimerHandle_t hTimer = (TimerHandle_t)timer_id;
1009:Middlewares/Third_Party/FreeRTOS/Source/CMSIS_RTOS_V2/cmsis_os2.c ****   osStatus_t stat;
1010:Middlewares/Third_Party/FreeRTOS/Source/CMSIS_RTOS_V2/cmsis_os2.c **** #ifndef USE_FreeRTOS_HEAP_1
1011:Middlewares/Third_Party/FreeRTOS/Source/CMSIS_RTOS_V2/cmsis_os2.c ****   TimerCallback_t *callb;
1012:Middlewares/Third_Party/FreeRTOS/Source/CMSIS_RTOS_V2/cmsis_os2.c **** 
1013:Middlewares/Third_Party/FreeRTOS/Source/CMSIS_RTOS_V2/cmsis_os2.c ****   if (IS_IRQ()) {
 4131              		.loc 1 1013 0
 4132 0004 1BBB     		cbnz	r3, .L418
 4133              	.LBB520:
 4134              	.LBB521:
 386:Drivers/CMSIS/Include/cmsis_gcc.h ****   return(result);
 4135              		.loc 2 386 0
 4136              		.syntax unified
 4137              	@ 386 "Drivers/CMSIS/Include/cmsis_gcc.h" 1
 4138 0006 EFF31083 		MRS r3, primask
 4139              	@ 0 "" 2
 4140              		.thumb
 4141              		.syntax unified
 4142              	.LBE521:
 4143              	.LBE520:
 4144              		.loc 1 1013 0
 4145 000a 1BBB     		cbnz	r3, .L419
 4146              		.loc 1 1013 0 is_stmt 0 discriminator 2
 4147 000c 164B     		ldr	r3, .L428
 4148 000e 1B68     		ldr	r3, [r3]
 4149 0010 022B     		cmp	r3, #2
 4150 0012 15D0     		beq	.L427
 4151              	.L417:
1014:Middlewares/Third_Party/FreeRTOS/Source/CMSIS_RTOS_V2/cmsis_os2.c ****     stat = osErrorISR;
1015:Middlewares/Third_Party/FreeRTOS/Source/CMSIS_RTOS_V2/cmsis_os2.c ****   }
1016:Middlewares/Third_Party/FreeRTOS/Source/CMSIS_RTOS_V2/cmsis_os2.c ****   else if (hTimer == NULL) {
 4152              		.loc 1 1016 0 is_stmt 1
ARM GAS  /tmp/ccjsdB5h.s 			page 111


 4153 0014 08B3     		cbz	r0, .L421
1007:Middlewares/Third_Party/FreeRTOS/Source/CMSIS_RTOS_V2/cmsis_os2.c ****   TimerHandle_t hTimer = (TimerHandle_t)timer_id;
 4154              		.loc 1 1007 0
 4155 0016 30B5     		push	{r4, r5, lr}
 4156              	.LCFI66:
 4157              		.cfi_def_cfa_offset 12
 4158              		.cfi_offset 4, -12
 4159              		.cfi_offset 5, -8
 4160              		.cfi_offset 14, -4
 4161 0018 83B0     		sub	sp, sp, #12
 4162              	.LCFI67:
 4163              		.cfi_def_cfa_offset 24
 4164 001a 0446     		mov	r4, r0
1017:Middlewares/Third_Party/FreeRTOS/Source/CMSIS_RTOS_V2/cmsis_os2.c ****     stat = osErrorParameter;
1018:Middlewares/Third_Party/FreeRTOS/Source/CMSIS_RTOS_V2/cmsis_os2.c ****   }
1019:Middlewares/Third_Party/FreeRTOS/Source/CMSIS_RTOS_V2/cmsis_os2.c ****   else {
1020:Middlewares/Third_Party/FreeRTOS/Source/CMSIS_RTOS_V2/cmsis_os2.c ****     callb = (TimerCallback_t *)pvTimerGetTimerID (hTimer);
 4165              		.loc 1 1020 0
 4166 001c FFF7FEFF 		bl	pvTimerGetTimerID
 4167              	.LVL343:
 4168 0020 0546     		mov	r5, r0
 4169              	.LVL344:
1021:Middlewares/Third_Party/FreeRTOS/Source/CMSIS_RTOS_V2/cmsis_os2.c **** 
1022:Middlewares/Third_Party/FreeRTOS/Source/CMSIS_RTOS_V2/cmsis_os2.c ****     if (xTimerDelete (hTimer, 0) == pdPASS) {
 4170              		.loc 1 1022 0
 4171 0022 0022     		movs	r2, #0
 4172 0024 0092     		str	r2, [sp]
 4173 0026 1346     		mov	r3, r2
 4174 0028 0521     		movs	r1, #5
 4175 002a 2046     		mov	r0, r4
 4176              	.LVL345:
 4177 002c FFF7FEFF 		bl	xTimerGenericCommand
 4178              	.LVL346:
 4179 0030 0128     		cmp	r0, #1
 4180 0032 15D1     		bne	.L422
1023:Middlewares/Third_Party/FreeRTOS/Source/CMSIS_RTOS_V2/cmsis_os2.c ****       vPortFree (callb);
 4181              		.loc 1 1023 0
 4182 0034 2846     		mov	r0, r5
 4183 0036 FFF7FEFF 		bl	vPortFree
 4184              	.LVL347:
1024:Middlewares/Third_Party/FreeRTOS/Source/CMSIS_RTOS_V2/cmsis_os2.c ****       stat = osOK;
 4185              		.loc 1 1024 0
 4186 003a 0020     		movs	r0, #0
 4187              	.LVL348:
 4188              	.L415:
1025:Middlewares/Third_Party/FreeRTOS/Source/CMSIS_RTOS_V2/cmsis_os2.c ****     } else {
1026:Middlewares/Third_Party/FreeRTOS/Source/CMSIS_RTOS_V2/cmsis_os2.c ****       stat = osErrorResource;
1027:Middlewares/Third_Party/FreeRTOS/Source/CMSIS_RTOS_V2/cmsis_os2.c ****     }
1028:Middlewares/Third_Party/FreeRTOS/Source/CMSIS_RTOS_V2/cmsis_os2.c ****   }
1029:Middlewares/Third_Party/FreeRTOS/Source/CMSIS_RTOS_V2/cmsis_os2.c **** #else
1030:Middlewares/Third_Party/FreeRTOS/Source/CMSIS_RTOS_V2/cmsis_os2.c ****   stat = osError;
1031:Middlewares/Third_Party/FreeRTOS/Source/CMSIS_RTOS_V2/cmsis_os2.c **** #endif
1032:Middlewares/Third_Party/FreeRTOS/Source/CMSIS_RTOS_V2/cmsis_os2.c **** 
1033:Middlewares/Third_Party/FreeRTOS/Source/CMSIS_RTOS_V2/cmsis_os2.c ****   return (stat);
1034:Middlewares/Third_Party/FreeRTOS/Source/CMSIS_RTOS_V2/cmsis_os2.c **** }
 4189              		.loc 1 1034 0
 4190 003c 03B0     		add	sp, sp, #12
ARM GAS  /tmp/ccjsdB5h.s 			page 112


 4191              	.LCFI68:
 4192              		.cfi_def_cfa_offset 12
 4193              		@ sp needed
 4194 003e 30BD     		pop	{r4, r5, pc}
 4195              	.LVL349:
 4196              	.L427:
 4197              	.LCFI69:
 4198              		.cfi_def_cfa_offset 0
 4199              		.cfi_restore 4
 4200              		.cfi_restore 5
 4201              		.cfi_restore 14
 4202              	.LBB522:
 4203              	.LBB523:
 4204              		.loc 2 465 0
 4205              		.syntax unified
 4206              	@ 465 "Drivers/CMSIS/Include/cmsis_gcc.h" 1
 4207 0040 EFF31183 		MRS r3, basepri
 4208              	@ 0 "" 2
 4209              		.thumb
 4210              		.syntax unified
 4211              	.LBE523:
 4212              	.LBE522:
1013:Middlewares/Third_Party/FreeRTOS/Source/CMSIS_RTOS_V2/cmsis_os2.c ****     stat = osErrorISR;
 4213              		.loc 1 1013 0
 4214 0044 002B     		cmp	r3, #0
 4215 0046 E5D0     		beq	.L417
1014:Middlewares/Third_Party/FreeRTOS/Source/CMSIS_RTOS_V2/cmsis_os2.c ****   }
 4216              		.loc 1 1014 0
 4217 0048 6FF00500 		mvn	r0, #5
 4218              	.LVL350:
 4219 004c 7047     		bx	lr
 4220              	.LVL351:
 4221              	.L418:
 4222 004e 6FF00500 		mvn	r0, #5
 4223              	.LVL352:
 4224 0052 7047     		bx	lr
 4225              	.LVL353:
 4226              	.L419:
 4227 0054 6FF00500 		mvn	r0, #5
 4228              	.LVL354:
 4229 0058 7047     		bx	lr
 4230              	.LVL355:
 4231              	.L421:
1017:Middlewares/Third_Party/FreeRTOS/Source/CMSIS_RTOS_V2/cmsis_os2.c ****   }
 4232              		.loc 1 1017 0
 4233 005a 6FF00300 		mvn	r0, #3
 4234              	.LVL356:
 4235              		.loc 1 1034 0
 4236 005e 7047     		bx	lr
 4237              	.LVL357:
 4238              	.L422:
 4239              	.LCFI70:
 4240              		.cfi_def_cfa_offset 24
 4241              		.cfi_offset 4, -12
 4242              		.cfi_offset 5, -8
 4243              		.cfi_offset 14, -4
1026:Middlewares/Third_Party/FreeRTOS/Source/CMSIS_RTOS_V2/cmsis_os2.c ****     }
ARM GAS  /tmp/ccjsdB5h.s 			page 113


 4244              		.loc 1 1026 0
 4245 0060 6FF00200 		mvn	r0, #2
 4246              	.LVL358:
1033:Middlewares/Third_Party/FreeRTOS/Source/CMSIS_RTOS_V2/cmsis_os2.c **** }
 4247              		.loc 1 1033 0
 4248 0064 EAE7     		b	.L415
 4249              	.L429:
 4250 0066 00BF     		.align	2
 4251              	.L428:
 4252 0068 00000000 		.word	.LANCHOR0
 4253              		.cfi_endproc
 4254              	.LFE144:
 4256              		.section	.text.osEventFlagsNew,"ax",%progbits
 4257              		.align	1
 4258              		.global	osEventFlagsNew
 4259              		.syntax unified
 4260              		.thumb
 4261              		.thumb_func
 4262              		.fpu fpv4-sp-d16
 4264              	osEventFlagsNew:
 4265              	.LFB145:
1035:Middlewares/Third_Party/FreeRTOS/Source/CMSIS_RTOS_V2/cmsis_os2.c **** 
1036:Middlewares/Third_Party/FreeRTOS/Source/CMSIS_RTOS_V2/cmsis_os2.c **** /*---------------------------------------------------------------------------*/
1037:Middlewares/Third_Party/FreeRTOS/Source/CMSIS_RTOS_V2/cmsis_os2.c **** 
1038:Middlewares/Third_Party/FreeRTOS/Source/CMSIS_RTOS_V2/cmsis_os2.c **** osEventFlagsId_t osEventFlagsNew (const osEventFlagsAttr_t *attr) {
 4266              		.loc 1 1038 0
 4267              		.cfi_startproc
 4268              		@ args = 0, pretend = 0, frame = 0
 4269              		@ frame_needed = 0, uses_anonymous_args = 0
 4270              	.LVL359:
 4271 0000 08B5     		push	{r3, lr}
 4272              	.LCFI71:
 4273              		.cfi_def_cfa_offset 8
 4274              		.cfi_offset 3, -8
 4275              		.cfi_offset 14, -4
 4276              	.LVL360:
 4277              	.LBB524:
 4278              	.LBB525:
 209:Drivers/CMSIS/Include/cmsis_gcc.h ****   return(result);
 4279              		.loc 2 209 0
 4280              		.syntax unified
 4281              	@ 209 "Drivers/CMSIS/Include/cmsis_gcc.h" 1
 4282 0002 EFF30583 		MRS r3, ipsr
 4283              	@ 0 "" 2
 4284              		.thumb
 4285              		.syntax unified
 4286              	.LBE525:
 4287              	.LBE524:
1039:Middlewares/Third_Party/FreeRTOS/Source/CMSIS_RTOS_V2/cmsis_os2.c ****   EventGroupHandle_t hEventGroup;
1040:Middlewares/Third_Party/FreeRTOS/Source/CMSIS_RTOS_V2/cmsis_os2.c ****   int32_t mem;
1041:Middlewares/Third_Party/FreeRTOS/Source/CMSIS_RTOS_V2/cmsis_os2.c **** 
1042:Middlewares/Third_Party/FreeRTOS/Source/CMSIS_RTOS_V2/cmsis_os2.c ****   hEventGroup = NULL;
1043:Middlewares/Third_Party/FreeRTOS/Source/CMSIS_RTOS_V2/cmsis_os2.c **** 
1044:Middlewares/Third_Party/FreeRTOS/Source/CMSIS_RTOS_V2/cmsis_os2.c ****   if (!IS_IRQ()) {
 4288              		.loc 1 1044 0
 4289 0006 FBB9     		cbnz	r3, .L436
 4290              	.LBB526:
ARM GAS  /tmp/ccjsdB5h.s 			page 114


 4291              	.LBB527:
 386:Drivers/CMSIS/Include/cmsis_gcc.h ****   return(result);
 4292              		.loc 2 386 0
 4293              		.syntax unified
 4294              	@ 386 "Drivers/CMSIS/Include/cmsis_gcc.h" 1
 4295 0008 EFF31083 		MRS r3, primask
 4296              	@ 0 "" 2
 4297              		.thumb
 4298              		.syntax unified
 4299              	.LBE527:
 4300              	.LBE526:
 4301              		.loc 1 1044 0
 4302 000c F3B9     		cbnz	r3, .L437
 4303              		.loc 1 1044 0 is_stmt 0 discriminator 2
 4304 000e 104B     		ldr	r3, .L442
 4305 0010 1B68     		ldr	r3, [r3]
 4306 0012 022B     		cmp	r3, #2
 4307 0014 07D0     		beq	.L440
 4308              	.L432:
 4309              	.LVL361:
1045:Middlewares/Third_Party/FreeRTOS/Source/CMSIS_RTOS_V2/cmsis_os2.c ****     mem = -1;
1046:Middlewares/Third_Party/FreeRTOS/Source/CMSIS_RTOS_V2/cmsis_os2.c **** 
1047:Middlewares/Third_Party/FreeRTOS/Source/CMSIS_RTOS_V2/cmsis_os2.c ****     if (attr != NULL) {
 4310              		.loc 1 1047 0 is_stmt 1
 4311 0016 70B1     		cbz	r0, .L433
1048:Middlewares/Third_Party/FreeRTOS/Source/CMSIS_RTOS_V2/cmsis_os2.c ****       if ((attr->cb_mem != NULL) && (attr->cb_size >= sizeof(StaticEventGroup_t))) {
 4312              		.loc 1 1048 0
 4313 0018 8368     		ldr	r3, [r0, #8]
 4314 001a 53B1     		cbz	r3, .L434
 4315              		.loc 1 1048 0 is_stmt 0 discriminator 1
 4316 001c C268     		ldr	r2, [r0, #12]
 4317 001e 1F2A     		cmp	r2, #31
 4318 0020 0ED8     		bhi	.L435
1042:Middlewares/Third_Party/FreeRTOS/Source/CMSIS_RTOS_V2/cmsis_os2.c **** 
 4319              		.loc 1 1042 0 is_stmt 1
 4320 0022 0020     		movs	r0, #0
 4321              	.LVL362:
 4322 0024 09E0     		b	.L430
 4323              	.LVL363:
 4324              	.L440:
 4325              	.LBB528:
 4326              	.LBB529:
 4327              		.loc 2 465 0
 4328              		.syntax unified
 4329              	@ 465 "Drivers/CMSIS/Include/cmsis_gcc.h" 1
 4330 0026 EFF31183 		MRS r3, basepri
 4331              	@ 0 "" 2
 4332              		.thumb
 4333              		.syntax unified
 4334              	.LBE529:
 4335              	.LBE528:
1044:Middlewares/Third_Party/FreeRTOS/Source/CMSIS_RTOS_V2/cmsis_os2.c ****     mem = -1;
 4336              		.loc 1 1044 0
 4337 002a 002B     		cmp	r3, #0
 4338 002c F3D0     		beq	.L432
1042:Middlewares/Third_Party/FreeRTOS/Source/CMSIS_RTOS_V2/cmsis_os2.c **** 
 4339              		.loc 1 1042 0
ARM GAS  /tmp/ccjsdB5h.s 			page 115


 4340 002e 0020     		movs	r0, #0
 4341              	.LVL364:
1049:Middlewares/Third_Party/FreeRTOS/Source/CMSIS_RTOS_V2/cmsis_os2.c ****         mem = 1;
1050:Middlewares/Third_Party/FreeRTOS/Source/CMSIS_RTOS_V2/cmsis_os2.c ****       }
1051:Middlewares/Third_Party/FreeRTOS/Source/CMSIS_RTOS_V2/cmsis_os2.c ****       else {
1052:Middlewares/Third_Party/FreeRTOS/Source/CMSIS_RTOS_V2/cmsis_os2.c ****         if ((attr->cb_mem == NULL) && (attr->cb_size == 0U)) {
1053:Middlewares/Third_Party/FreeRTOS/Source/CMSIS_RTOS_V2/cmsis_os2.c ****           mem = 0;
1054:Middlewares/Third_Party/FreeRTOS/Source/CMSIS_RTOS_V2/cmsis_os2.c ****         }
1055:Middlewares/Third_Party/FreeRTOS/Source/CMSIS_RTOS_V2/cmsis_os2.c ****       }
1056:Middlewares/Third_Party/FreeRTOS/Source/CMSIS_RTOS_V2/cmsis_os2.c ****     }
1057:Middlewares/Third_Party/FreeRTOS/Source/CMSIS_RTOS_V2/cmsis_os2.c ****     else {
1058:Middlewares/Third_Party/FreeRTOS/Source/CMSIS_RTOS_V2/cmsis_os2.c ****       mem = 0;
1059:Middlewares/Third_Party/FreeRTOS/Source/CMSIS_RTOS_V2/cmsis_os2.c ****     }
1060:Middlewares/Third_Party/FreeRTOS/Source/CMSIS_RTOS_V2/cmsis_os2.c **** 
1061:Middlewares/Third_Party/FreeRTOS/Source/CMSIS_RTOS_V2/cmsis_os2.c ****     if (mem == 1) {
1062:Middlewares/Third_Party/FreeRTOS/Source/CMSIS_RTOS_V2/cmsis_os2.c ****       hEventGroup = xEventGroupCreateStatic (attr->cb_mem);
1063:Middlewares/Third_Party/FreeRTOS/Source/CMSIS_RTOS_V2/cmsis_os2.c ****     }
1064:Middlewares/Third_Party/FreeRTOS/Source/CMSIS_RTOS_V2/cmsis_os2.c ****     else {
1065:Middlewares/Third_Party/FreeRTOS/Source/CMSIS_RTOS_V2/cmsis_os2.c ****       if (mem == 0) {
1066:Middlewares/Third_Party/FreeRTOS/Source/CMSIS_RTOS_V2/cmsis_os2.c ****         hEventGroup = xEventGroupCreate();
1067:Middlewares/Third_Party/FreeRTOS/Source/CMSIS_RTOS_V2/cmsis_os2.c ****       }
1068:Middlewares/Third_Party/FreeRTOS/Source/CMSIS_RTOS_V2/cmsis_os2.c ****     }
1069:Middlewares/Third_Party/FreeRTOS/Source/CMSIS_RTOS_V2/cmsis_os2.c ****   }
1070:Middlewares/Third_Party/FreeRTOS/Source/CMSIS_RTOS_V2/cmsis_os2.c **** 
1071:Middlewares/Third_Party/FreeRTOS/Source/CMSIS_RTOS_V2/cmsis_os2.c ****   return ((osEventFlagsId_t)hEventGroup);
 4342              		.loc 1 1071 0
 4343 0030 03E0     		b	.L430
 4344              	.LVL365:
 4345              	.L434:
1052:Middlewares/Third_Party/FreeRTOS/Source/CMSIS_RTOS_V2/cmsis_os2.c ****           mem = 0;
 4346              		.loc 1 1052 0 discriminator 1
 4347 0032 C368     		ldr	r3, [r0, #12]
1065:Middlewares/Third_Party/FreeRTOS/Source/CMSIS_RTOS_V2/cmsis_os2.c ****         hEventGroup = xEventGroupCreate();
 4348              		.loc 1 1065 0 discriminator 1
 4349 0034 13B9     		cbnz	r3, .L441
 4350              	.L433:
1066:Middlewares/Third_Party/FreeRTOS/Source/CMSIS_RTOS_V2/cmsis_os2.c ****       }
 4351              		.loc 1 1066 0
 4352 0036 FFF7FEFF 		bl	xEventGroupCreate
 4353              	.LVL366:
 4354              	.L430:
1072:Middlewares/Third_Party/FreeRTOS/Source/CMSIS_RTOS_V2/cmsis_os2.c **** }
 4355              		.loc 1 1072 0
 4356 003a 08BD     		pop	{r3, pc}
 4357              	.LVL367:
 4358              	.L441:
1042:Middlewares/Third_Party/FreeRTOS/Source/CMSIS_RTOS_V2/cmsis_os2.c **** 
 4359              		.loc 1 1042 0
 4360 003c 0020     		movs	r0, #0
 4361              	.LVL368:
 4362 003e FCE7     		b	.L430
 4363              	.LVL369:
 4364              	.L435:
1062:Middlewares/Third_Party/FreeRTOS/Source/CMSIS_RTOS_V2/cmsis_os2.c ****     }
 4365              		.loc 1 1062 0
 4366 0040 1846     		mov	r0, r3
 4367              	.LVL370:
ARM GAS  /tmp/ccjsdB5h.s 			page 116


 4368 0042 FFF7FEFF 		bl	xEventGroupCreateStatic
 4369              	.LVL371:
 4370 0046 F8E7     		b	.L430
 4371              	.LVL372:
 4372              	.L436:
1042:Middlewares/Third_Party/FreeRTOS/Source/CMSIS_RTOS_V2/cmsis_os2.c **** 
 4373              		.loc 1 1042 0
 4374 0048 0020     		movs	r0, #0
 4375              	.LVL373:
 4376 004a F6E7     		b	.L430
 4377              	.LVL374:
 4378              	.L437:
 4379 004c 0020     		movs	r0, #0
 4380              	.LVL375:
 4381 004e F4E7     		b	.L430
 4382              	.L443:
 4383              		.align	2
 4384              	.L442:
 4385 0050 00000000 		.word	.LANCHOR0
 4386              		.cfi_endproc
 4387              	.LFE145:
 4389              		.section	.text.osEventFlagsSet,"ax",%progbits
 4390              		.align	1
 4391              		.global	osEventFlagsSet
 4392              		.syntax unified
 4393              		.thumb
 4394              		.thumb_func
 4395              		.fpu fpv4-sp-d16
 4397              	osEventFlagsSet:
 4398              	.LFB146:
1073:Middlewares/Third_Party/FreeRTOS/Source/CMSIS_RTOS_V2/cmsis_os2.c **** 
1074:Middlewares/Third_Party/FreeRTOS/Source/CMSIS_RTOS_V2/cmsis_os2.c **** uint32_t osEventFlagsSet (osEventFlagsId_t ef_id, uint32_t flags) {
 4399              		.loc 1 1074 0
 4400              		.cfi_startproc
 4401              		@ args = 0, pretend = 0, frame = 8
 4402              		@ frame_needed = 0, uses_anonymous_args = 0
 4403              	.LVL376:
1075:Middlewares/Third_Party/FreeRTOS/Source/CMSIS_RTOS_V2/cmsis_os2.c ****   EventGroupHandle_t hEventGroup = (EventGroupHandle_t)ef_id;
1076:Middlewares/Third_Party/FreeRTOS/Source/CMSIS_RTOS_V2/cmsis_os2.c ****   uint32_t rflags;
1077:Middlewares/Third_Party/FreeRTOS/Source/CMSIS_RTOS_V2/cmsis_os2.c ****   BaseType_t yield;
1078:Middlewares/Third_Party/FreeRTOS/Source/CMSIS_RTOS_V2/cmsis_os2.c **** 
1079:Middlewares/Third_Party/FreeRTOS/Source/CMSIS_RTOS_V2/cmsis_os2.c ****   if ((hEventGroup == NULL) || ((flags & EVENT_FLAGS_INVALID_BITS) != 0U)) {
 4404              		.loc 1 1079 0
 4405 0000 50B3     		cbz	r0, .L448
 4406              		.loc 1 1079 0 is_stmt 0 discriminator 1
 4407 0002 11F07F4F 		tst	r1, #-16777216
 4408 0006 2AD1     		bne	.L449
1074:Middlewares/Third_Party/FreeRTOS/Source/CMSIS_RTOS_V2/cmsis_os2.c ****   EventGroupHandle_t hEventGroup = (EventGroupHandle_t)ef_id;
 4409              		.loc 1 1074 0 is_stmt 1
 4410 0008 10B5     		push	{r4, lr}
 4411              	.LCFI72:
 4412              		.cfi_def_cfa_offset 8
 4413              		.cfi_offset 4, -8
 4414              		.cfi_offset 14, -4
 4415 000a 82B0     		sub	sp, sp, #8
 4416              	.LCFI73:
 4417              		.cfi_def_cfa_offset 16
ARM GAS  /tmp/ccjsdB5h.s 			page 117


 4418 000c 0C46     		mov	r4, r1
 4419              	.LBB530:
 4420              	.LBB531:
 209:Drivers/CMSIS/Include/cmsis_gcc.h ****   return(result);
 4421              		.loc 2 209 0
 4422              		.syntax unified
 4423              	@ 209 "Drivers/CMSIS/Include/cmsis_gcc.h" 1
 4424 000e EFF30583 		MRS r3, ipsr
 4425              	@ 0 "" 2
 4426              		.thumb
 4427              		.syntax unified
 4428              	.LBE531:
 4429              	.LBE530:
1080:Middlewares/Third_Party/FreeRTOS/Source/CMSIS_RTOS_V2/cmsis_os2.c ****     rflags = (uint32_t)osErrorParameter;
1081:Middlewares/Third_Party/FreeRTOS/Source/CMSIS_RTOS_V2/cmsis_os2.c ****   }
1082:Middlewares/Third_Party/FreeRTOS/Source/CMSIS_RTOS_V2/cmsis_os2.c ****   else if (IS_IRQ()) {
 4430              		.loc 1 1082 0
 4431 0012 4BB9     		cbnz	r3, .L446
 4432              	.LBB532:
 4433              	.LBB533:
 386:Drivers/CMSIS/Include/cmsis_gcc.h ****   return(result);
 4434              		.loc 2 386 0
 4435              		.syntax unified
 4436              	@ 386 "Drivers/CMSIS/Include/cmsis_gcc.h" 1
 4437 0014 EFF31083 		MRS r3, primask
 4438              	@ 0 "" 2
 4439              		.thumb
 4440              		.syntax unified
 4441              	.LBE533:
 4442              	.LBE532:
 4443              		.loc 1 1082 0
 4444 0018 33B9     		cbnz	r3, .L446
 4445              		.loc 1 1082 0 is_stmt 0 discriminator 2
 4446 001a 154B     		ldr	r3, .L456
 4447 001c 1B68     		ldr	r3, [r3]
 4448 001e 022B     		cmp	r3, #2
 4449 0020 16D1     		bne	.L447
 4450              	.LBB534:
 4451              	.LBB535:
 4452              		.loc 2 465 0 is_stmt 1
 4453              		.syntax unified
 4454              	@ 465 "Drivers/CMSIS/Include/cmsis_gcc.h" 1
 4455 0022 EFF31183 		MRS r3, basepri
 4456              	@ 0 "" 2
 4457              		.thumb
 4458              		.syntax unified
 4459              	.LBE535:
 4460              	.LBE534:
 4461              		.loc 1 1082 0
 4462 0026 9BB1     		cbz	r3, .L447
 4463              	.L446:
1083:Middlewares/Third_Party/FreeRTOS/Source/CMSIS_RTOS_V2/cmsis_os2.c ****     yield = pdFALSE;
 4464              		.loc 1 1083 0
 4465 0028 02AA     		add	r2, sp, #8
 4466 002a 0023     		movs	r3, #0
 4467 002c 42F8043D 		str	r3, [r2, #-4]!
1084:Middlewares/Third_Party/FreeRTOS/Source/CMSIS_RTOS_V2/cmsis_os2.c **** 
ARM GAS  /tmp/ccjsdB5h.s 			page 118


1085:Middlewares/Third_Party/FreeRTOS/Source/CMSIS_RTOS_V2/cmsis_os2.c ****     if (xEventGroupSetBitsFromISR (hEventGroup, (EventBits_t)flags, &yield) != pdFAIL) {
 4468              		.loc 1 1085 0
 4469 0030 2146     		mov	r1, r4
 4470              	.LVL377:
 4471 0032 FFF7FEFF 		bl	xEventGroupSetBitsFromISR
 4472              	.LVL378:
 4473 0036 A8B9     		cbnz	r0, .L450
 4474              	.LVL379:
1086:Middlewares/Third_Party/FreeRTOS/Source/CMSIS_RTOS_V2/cmsis_os2.c ****       rflags = (uint32_t)osErrorResource;
1087:Middlewares/Third_Party/FreeRTOS/Source/CMSIS_RTOS_V2/cmsis_os2.c ****     } else {
1088:Middlewares/Third_Party/FreeRTOS/Source/CMSIS_RTOS_V2/cmsis_os2.c ****       rflags = flags;
1089:Middlewares/Third_Party/FreeRTOS/Source/CMSIS_RTOS_V2/cmsis_os2.c ****       portYIELD_FROM_ISR (yield);
 4475              		.loc 1 1089 0
 4476 0038 019B     		ldr	r3, [sp, #4]
 4477 003a B3B1     		cbz	r3, .L451
 4478              		.loc 1 1089 0 is_stmt 0 discriminator 1
 4479 003c 0D4B     		ldr	r3, .L456+4
 4480 003e 4FF08052 		mov	r2, #268435456
 4481 0042 1A60     		str	r2, [r3]
 4482              		.syntax unified
 4483              	@ 1089 "Middlewares/Third_Party/FreeRTOS/Source/CMSIS_RTOS_V2/cmsis_os2.c" 1
 4484 0044 BFF34F8F 		dsb
 4485              	@ 0 "" 2
 4486              	@ 1089 "Middlewares/Third_Party/FreeRTOS/Source/CMSIS_RTOS_V2/cmsis_os2.c" 1
 4487 0048 BFF36F8F 		isb
 4488              	@ 0 "" 2
1088:Middlewares/Third_Party/FreeRTOS/Source/CMSIS_RTOS_V2/cmsis_os2.c ****       portYIELD_FROM_ISR (yield);
 4489              		.loc 1 1088 0 is_stmt 1 discriminator 1
 4490              		.thumb
 4491              		.syntax unified
 4492 004c 2046     		mov	r0, r4
 4493 004e 0DE0     		b	.L444
 4494              	.LVL380:
 4495              	.L447:
1090:Middlewares/Third_Party/FreeRTOS/Source/CMSIS_RTOS_V2/cmsis_os2.c ****     }
1091:Middlewares/Third_Party/FreeRTOS/Source/CMSIS_RTOS_V2/cmsis_os2.c ****   }
1092:Middlewares/Third_Party/FreeRTOS/Source/CMSIS_RTOS_V2/cmsis_os2.c ****   else {
1093:Middlewares/Third_Party/FreeRTOS/Source/CMSIS_RTOS_V2/cmsis_os2.c ****     rflags = xEventGroupSetBits (hEventGroup, (EventBits_t)flags);
 4496              		.loc 1 1093 0
 4497 0050 2146     		mov	r1, r4
 4498              	.LVL381:
 4499 0052 FFF7FEFF 		bl	xEventGroupSetBits
 4500              	.LVL382:
 4501 0056 09E0     		b	.L444
 4502              	.LVL383:
 4503              	.L448:
 4504              	.LCFI74:
 4505              		.cfi_def_cfa_offset 0
 4506              		.cfi_restore 4
 4507              		.cfi_restore 14
1080:Middlewares/Third_Party/FreeRTOS/Source/CMSIS_RTOS_V2/cmsis_os2.c ****   }
 4508              		.loc 1 1080 0
 4509 0058 6FF00300 		mvn	r0, #3
 4510              	.LVL384:
 4511 005c 7047     		bx	lr
 4512              	.LVL385:
 4513              	.L449:
ARM GAS  /tmp/ccjsdB5h.s 			page 119


 4514 005e 6FF00300 		mvn	r0, #3
 4515              	.LVL386:
1094:Middlewares/Third_Party/FreeRTOS/Source/CMSIS_RTOS_V2/cmsis_os2.c ****   }
1095:Middlewares/Third_Party/FreeRTOS/Source/CMSIS_RTOS_V2/cmsis_os2.c **** 
1096:Middlewares/Third_Party/FreeRTOS/Source/CMSIS_RTOS_V2/cmsis_os2.c ****   return (rflags);
1097:Middlewares/Third_Party/FreeRTOS/Source/CMSIS_RTOS_V2/cmsis_os2.c **** }
 4516              		.loc 1 1097 0
 4517 0062 7047     		bx	lr
 4518              	.LVL387:
 4519              	.L450:
 4520              	.LCFI75:
 4521              		.cfi_def_cfa_offset 16
 4522              		.cfi_offset 4, -8
 4523              		.cfi_offset 14, -4
1086:Middlewares/Third_Party/FreeRTOS/Source/CMSIS_RTOS_V2/cmsis_os2.c ****     } else {
 4524              		.loc 1 1086 0
 4525 0064 6FF00200 		mvn	r0, #2
 4526 0068 00E0     		b	.L444
 4527              	.LVL388:
 4528              	.L451:
1088:Middlewares/Third_Party/FreeRTOS/Source/CMSIS_RTOS_V2/cmsis_os2.c ****       portYIELD_FROM_ISR (yield);
 4529              		.loc 1 1088 0
 4530 006a 2046     		mov	r0, r4
 4531              	.LVL389:
 4532              	.L444:
 4533              		.loc 1 1097 0
 4534 006c 02B0     		add	sp, sp, #8
 4535              	.LCFI76:
 4536              		.cfi_def_cfa_offset 8
 4537              		@ sp needed
 4538 006e 10BD     		pop	{r4, pc}
 4539              	.LVL390:
 4540              	.L457:
 4541              		.align	2
 4542              	.L456:
 4543 0070 00000000 		.word	.LANCHOR0
 4544 0074 04ED00E0 		.word	-536810236
 4545              		.cfi_endproc
 4546              	.LFE146:
 4548              		.section	.text.osEventFlagsClear,"ax",%progbits
 4549              		.align	1
 4550              		.global	osEventFlagsClear
 4551              		.syntax unified
 4552              		.thumb
 4553              		.thumb_func
 4554              		.fpu fpv4-sp-d16
 4556              	osEventFlagsClear:
 4557              	.LFB147:
1098:Middlewares/Third_Party/FreeRTOS/Source/CMSIS_RTOS_V2/cmsis_os2.c **** 
1099:Middlewares/Third_Party/FreeRTOS/Source/CMSIS_RTOS_V2/cmsis_os2.c **** uint32_t osEventFlagsClear (osEventFlagsId_t ef_id, uint32_t flags) {
 4558              		.loc 1 1099 0
 4559              		.cfi_startproc
 4560              		@ args = 0, pretend = 0, frame = 0
 4561              		@ frame_needed = 0, uses_anonymous_args = 0
 4562              	.LVL391:
 4563 0000 70B5     		push	{r4, r5, r6, lr}
 4564              	.LCFI77:
ARM GAS  /tmp/ccjsdB5h.s 			page 120


 4565              		.cfi_def_cfa_offset 16
 4566              		.cfi_offset 4, -16
 4567              		.cfi_offset 5, -12
 4568              		.cfi_offset 6, -8
 4569              		.cfi_offset 14, -4
 4570              	.LVL392:
1100:Middlewares/Third_Party/FreeRTOS/Source/CMSIS_RTOS_V2/cmsis_os2.c ****   EventGroupHandle_t hEventGroup = (EventGroupHandle_t)ef_id;
1101:Middlewares/Third_Party/FreeRTOS/Source/CMSIS_RTOS_V2/cmsis_os2.c ****   uint32_t rflags;
1102:Middlewares/Third_Party/FreeRTOS/Source/CMSIS_RTOS_V2/cmsis_os2.c **** 
1103:Middlewares/Third_Party/FreeRTOS/Source/CMSIS_RTOS_V2/cmsis_os2.c ****   if ((hEventGroup == NULL) || ((flags & EVENT_FLAGS_INVALID_BITS) != 0U)) {
 4571              		.loc 1 1103 0
 4572 0002 28B3     		cbz	r0, .L462
 4573 0004 0546     		mov	r5, r0
 4574              		.loc 1 1103 0 is_stmt 0 discriminator 1
 4575 0006 11F07F4F 		tst	r1, #-16777216
 4576 000a 24D1     		bne	.L463
 4577 000c 0C46     		mov	r4, r1
 4578              	.LBB536:
 4579              	.LBB537:
 209:Drivers/CMSIS/Include/cmsis_gcc.h ****   return(result);
 4580              		.loc 2 209 0 is_stmt 1
 4581              		.syntax unified
 4582              	@ 209 "Drivers/CMSIS/Include/cmsis_gcc.h" 1
 4583 000e EFF30583 		MRS r3, ipsr
 4584              	@ 0 "" 2
 4585              		.thumb
 4586              		.syntax unified
 4587              	.LBE537:
 4588              	.LBE536:
1104:Middlewares/Third_Party/FreeRTOS/Source/CMSIS_RTOS_V2/cmsis_os2.c ****     rflags = (uint32_t)osErrorParameter;
1105:Middlewares/Third_Party/FreeRTOS/Source/CMSIS_RTOS_V2/cmsis_os2.c ****   }
1106:Middlewares/Third_Party/FreeRTOS/Source/CMSIS_RTOS_V2/cmsis_os2.c ****   else if (IS_IRQ()) {
 4589              		.loc 1 1106 0
 4590 0012 4BB9     		cbnz	r3, .L460
 4591              	.LBB538:
 4592              	.LBB539:
 386:Drivers/CMSIS/Include/cmsis_gcc.h ****   return(result);
 4593              		.loc 2 386 0
 4594              		.syntax unified
 4595              	@ 386 "Drivers/CMSIS/Include/cmsis_gcc.h" 1
 4596 0014 EFF31083 		MRS r3, primask
 4597              	@ 0 "" 2
 4598              		.thumb
 4599              		.syntax unified
 4600              	.LBE539:
 4601              	.LBE538:
 4602              		.loc 1 1106 0
 4603 0018 33B9     		cbnz	r3, .L460
 4604              		.loc 1 1106 0 is_stmt 0 discriminator 2
 4605 001a 104B     		ldr	r3, .L465
 4606 001c 1B68     		ldr	r3, [r3]
 4607 001e 022B     		cmp	r3, #2
 4608 0020 10D1     		bne	.L461
 4609              	.LBB540:
 4610              	.LBB541:
 4611              		.loc 2 465 0 is_stmt 1
 4612              		.syntax unified
ARM GAS  /tmp/ccjsdB5h.s 			page 121


 4613              	@ 465 "Drivers/CMSIS/Include/cmsis_gcc.h" 1
 4614 0022 EFF31183 		MRS r3, basepri
 4615              	@ 0 "" 2
 4616              		.thumb
 4617              		.syntax unified
 4618              	.LBE541:
 4619              	.LBE540:
 4620              		.loc 1 1106 0
 4621 0026 6BB1     		cbz	r3, .L461
 4622              	.L460:
1107:Middlewares/Third_Party/FreeRTOS/Source/CMSIS_RTOS_V2/cmsis_os2.c ****     rflags = xEventGroupGetBitsFromISR (hEventGroup);
 4623              		.loc 1 1107 0
 4624 0028 2846     		mov	r0, r5
 4625              	.LVL393:
 4626 002a FFF7FEFF 		bl	xEventGroupGetBitsFromISR
 4627              	.LVL394:
 4628 002e 0646     		mov	r6, r0
 4629              	.LVL395:
1108:Middlewares/Third_Party/FreeRTOS/Source/CMSIS_RTOS_V2/cmsis_os2.c **** 
1109:Middlewares/Third_Party/FreeRTOS/Source/CMSIS_RTOS_V2/cmsis_os2.c ****     if (xEventGroupClearBitsFromISR (hEventGroup, (EventBits_t)flags) == pdFAIL) {
 4630              		.loc 1 1109 0
 4631 0030 2146     		mov	r1, r4
 4632 0032 2846     		mov	r0, r5
 4633              	.LVL396:
 4634 0034 FFF7FEFF 		bl	xEventGroupClearBitsFromISR
 4635              	.LVL397:
 4636 0038 0028     		cmp	r0, #0
1110:Middlewares/Third_Party/FreeRTOS/Source/CMSIS_RTOS_V2/cmsis_os2.c ****       rflags = (uint32_t)osErrorResource;
 4637              		.loc 1 1110 0
 4638 003a 08BF     		it	eq
 4639 003c 6FF00206 		mvneq	r6, #2
 4640              	.LVL398:
 4641              	.L458:
1111:Middlewares/Third_Party/FreeRTOS/Source/CMSIS_RTOS_V2/cmsis_os2.c ****     }
1112:Middlewares/Third_Party/FreeRTOS/Source/CMSIS_RTOS_V2/cmsis_os2.c ****   }
1113:Middlewares/Third_Party/FreeRTOS/Source/CMSIS_RTOS_V2/cmsis_os2.c ****   else {
1114:Middlewares/Third_Party/FreeRTOS/Source/CMSIS_RTOS_V2/cmsis_os2.c ****     rflags = xEventGroupClearBits (hEventGroup, (EventBits_t)flags);
1115:Middlewares/Third_Party/FreeRTOS/Source/CMSIS_RTOS_V2/cmsis_os2.c ****   }
1116:Middlewares/Third_Party/FreeRTOS/Source/CMSIS_RTOS_V2/cmsis_os2.c **** 
1117:Middlewares/Third_Party/FreeRTOS/Source/CMSIS_RTOS_V2/cmsis_os2.c ****   return (rflags);
1118:Middlewares/Third_Party/FreeRTOS/Source/CMSIS_RTOS_V2/cmsis_os2.c **** }
 4642              		.loc 1 1118 0
 4643 0040 3046     		mov	r0, r6
 4644 0042 70BD     		pop	{r4, r5, r6, pc}
 4645              	.LVL399:
 4646              	.L461:
1114:Middlewares/Third_Party/FreeRTOS/Source/CMSIS_RTOS_V2/cmsis_os2.c ****   }
 4647              		.loc 1 1114 0
 4648 0044 2146     		mov	r1, r4
 4649              	.LVL400:
 4650 0046 2846     		mov	r0, r5
 4651              	.LVL401:
 4652 0048 FFF7FEFF 		bl	xEventGroupClearBits
 4653              	.LVL402:
 4654 004c 0646     		mov	r6, r0
 4655              	.LVL403:
 4656 004e F7E7     		b	.L458
ARM GAS  /tmp/ccjsdB5h.s 			page 122


 4657              	.LVL404:
 4658              	.L462:
1104:Middlewares/Third_Party/FreeRTOS/Source/CMSIS_RTOS_V2/cmsis_os2.c ****   }
 4659              		.loc 1 1104 0
 4660 0050 6FF00306 		mvn	r6, #3
 4661 0054 F4E7     		b	.L458
 4662              	.L463:
 4663 0056 6FF00306 		mvn	r6, #3
 4664              	.LVL405:
1117:Middlewares/Third_Party/FreeRTOS/Source/CMSIS_RTOS_V2/cmsis_os2.c **** }
 4665              		.loc 1 1117 0
 4666 005a F1E7     		b	.L458
 4667              	.L466:
 4668              		.align	2
 4669              	.L465:
 4670 005c 00000000 		.word	.LANCHOR0
 4671              		.cfi_endproc
 4672              	.LFE147:
 4674              		.section	.text.osEventFlagsGet,"ax",%progbits
 4675              		.align	1
 4676              		.global	osEventFlagsGet
 4677              		.syntax unified
 4678              		.thumb
 4679              		.thumb_func
 4680              		.fpu fpv4-sp-d16
 4682              	osEventFlagsGet:
 4683              	.LFB148:
1119:Middlewares/Third_Party/FreeRTOS/Source/CMSIS_RTOS_V2/cmsis_os2.c **** 
1120:Middlewares/Third_Party/FreeRTOS/Source/CMSIS_RTOS_V2/cmsis_os2.c **** uint32_t osEventFlagsGet (osEventFlagsId_t ef_id) {
 4684              		.loc 1 1120 0
 4685              		.cfi_startproc
 4686              		@ args = 0, pretend = 0, frame = 0
 4687              		@ frame_needed = 0, uses_anonymous_args = 0
 4688              	.LVL406:
1121:Middlewares/Third_Party/FreeRTOS/Source/CMSIS_RTOS_V2/cmsis_os2.c ****   EventGroupHandle_t hEventGroup = (EventGroupHandle_t)ef_id;
1122:Middlewares/Third_Party/FreeRTOS/Source/CMSIS_RTOS_V2/cmsis_os2.c ****   uint32_t rflags;
1123:Middlewares/Third_Party/FreeRTOS/Source/CMSIS_RTOS_V2/cmsis_os2.c **** 
1124:Middlewares/Third_Party/FreeRTOS/Source/CMSIS_RTOS_V2/cmsis_os2.c ****   if (ef_id == NULL) {
 4689              		.loc 1 1124 0
 4690 0000 A0B1     		cbz	r0, .L471
1120:Middlewares/Third_Party/FreeRTOS/Source/CMSIS_RTOS_V2/cmsis_os2.c ****   EventGroupHandle_t hEventGroup = (EventGroupHandle_t)ef_id;
 4691              		.loc 1 1120 0
 4692 0002 08B5     		push	{r3, lr}
 4693              	.LCFI78:
 4694              		.cfi_def_cfa_offset 8
 4695              		.cfi_offset 3, -8
 4696              		.cfi_offset 14, -4
 4697              	.LBB542:
 4698              	.LBB543:
 209:Drivers/CMSIS/Include/cmsis_gcc.h ****   return(result);
 4699              		.loc 2 209 0
 4700              		.syntax unified
 4701              	@ 209 "Drivers/CMSIS/Include/cmsis_gcc.h" 1
 4702 0004 EFF30583 		MRS r3, ipsr
 4703              	@ 0 "" 2
 4704              		.thumb
 4705              		.syntax unified
ARM GAS  /tmp/ccjsdB5h.s 			page 123


 4706              	.LBE543:
 4707              	.LBE542:
1125:Middlewares/Third_Party/FreeRTOS/Source/CMSIS_RTOS_V2/cmsis_os2.c ****     rflags = 0U;
1126:Middlewares/Third_Party/FreeRTOS/Source/CMSIS_RTOS_V2/cmsis_os2.c ****   }
1127:Middlewares/Third_Party/FreeRTOS/Source/CMSIS_RTOS_V2/cmsis_os2.c ****   else if (IS_IRQ()) {
 4708              		.loc 1 1127 0
 4709 0008 6BB9     		cbnz	r3, .L469
 4710              	.LBB544:
 4711              	.LBB545:
 386:Drivers/CMSIS/Include/cmsis_gcc.h ****   return(result);
 4712              		.loc 2 386 0
 4713              		.syntax unified
 4714              	@ 386 "Drivers/CMSIS/Include/cmsis_gcc.h" 1
 4715 000a EFF31083 		MRS r3, primask
 4716              	@ 0 "" 2
 4717              		.thumb
 4718              		.syntax unified
 4719              	.LBE545:
 4720              	.LBE544:
 4721              		.loc 1 1127 0
 4722 000e 53B9     		cbnz	r3, .L469
 4723              		.loc 1 1127 0 is_stmt 0 discriminator 2
 4724 0010 074B     		ldr	r3, .L476
 4725 0012 1B68     		ldr	r3, [r3]
 4726 0014 022B     		cmp	r3, #2
 4727 0016 02D1     		bne	.L470
 4728              	.LBB546:
 4729              	.LBB547:
 4730              		.loc 2 465 0 is_stmt 1
 4731              		.syntax unified
 4732              	@ 465 "Drivers/CMSIS/Include/cmsis_gcc.h" 1
 4733 0018 EFF31183 		MRS r3, basepri
 4734              	@ 0 "" 2
 4735              		.thumb
 4736              		.syntax unified
 4737              	.LBE547:
 4738              	.LBE546:
 4739              		.loc 1 1127 0
 4740 001c 1BB9     		cbnz	r3, .L469
 4741              	.L470:
1128:Middlewares/Third_Party/FreeRTOS/Source/CMSIS_RTOS_V2/cmsis_os2.c ****     rflags = xEventGroupGetBitsFromISR (hEventGroup);
1129:Middlewares/Third_Party/FreeRTOS/Source/CMSIS_RTOS_V2/cmsis_os2.c ****   }
1130:Middlewares/Third_Party/FreeRTOS/Source/CMSIS_RTOS_V2/cmsis_os2.c ****   else {
1131:Middlewares/Third_Party/FreeRTOS/Source/CMSIS_RTOS_V2/cmsis_os2.c ****     rflags = xEventGroupGetBits (hEventGroup);
 4742              		.loc 1 1131 0
 4743 001e 0021     		movs	r1, #0
 4744 0020 FFF7FEFF 		bl	xEventGroupClearBits
 4745              	.LVL407:
 4746 0024 01E0     		b	.L467
 4747              	.LVL408:
 4748              	.L469:
1128:Middlewares/Third_Party/FreeRTOS/Source/CMSIS_RTOS_V2/cmsis_os2.c ****     rflags = xEventGroupGetBitsFromISR (hEventGroup);
 4749              		.loc 1 1128 0
 4750 0026 FFF7FEFF 		bl	xEventGroupGetBitsFromISR
 4751              	.LVL409:
 4752              	.L467:
1132:Middlewares/Third_Party/FreeRTOS/Source/CMSIS_RTOS_V2/cmsis_os2.c ****   }
ARM GAS  /tmp/ccjsdB5h.s 			page 124


1133:Middlewares/Third_Party/FreeRTOS/Source/CMSIS_RTOS_V2/cmsis_os2.c **** 
1134:Middlewares/Third_Party/FreeRTOS/Source/CMSIS_RTOS_V2/cmsis_os2.c ****   return (rflags);
1135:Middlewares/Third_Party/FreeRTOS/Source/CMSIS_RTOS_V2/cmsis_os2.c **** }
 4753              		.loc 1 1135 0
 4754 002a 08BD     		pop	{r3, pc}
 4755              	.LVL410:
 4756              	.L471:
 4757              	.LCFI79:
 4758              		.cfi_def_cfa_offset 0
 4759              		.cfi_restore 3
 4760              		.cfi_restore 14
1125:Middlewares/Third_Party/FreeRTOS/Source/CMSIS_RTOS_V2/cmsis_os2.c ****   }
 4761              		.loc 1 1125 0
 4762 002c 0020     		movs	r0, #0
 4763              	.LVL411:
 4764              		.loc 1 1135 0
 4765 002e 7047     		bx	lr
 4766              	.L477:
 4767              		.align	2
 4768              	.L476:
 4769 0030 00000000 		.word	.LANCHOR0
 4770              		.cfi_endproc
 4771              	.LFE148:
 4773              		.section	.text.osEventFlagsWait,"ax",%progbits
 4774              		.align	1
 4775              		.global	osEventFlagsWait
 4776              		.syntax unified
 4777              		.thumb
 4778              		.thumb_func
 4779              		.fpu fpv4-sp-d16
 4781              	osEventFlagsWait:
 4782              	.LFB149:
1136:Middlewares/Third_Party/FreeRTOS/Source/CMSIS_RTOS_V2/cmsis_os2.c **** 
1137:Middlewares/Third_Party/FreeRTOS/Source/CMSIS_RTOS_V2/cmsis_os2.c **** uint32_t osEventFlagsWait (osEventFlagsId_t ef_id, uint32_t flags, uint32_t options, uint32_t timeo
 4783              		.loc 1 1137 0
 4784              		.cfi_startproc
 4785              		@ args = 0, pretend = 0, frame = 0
 4786              		@ frame_needed = 0, uses_anonymous_args = 0
 4787              	.LVL412:
1138:Middlewares/Third_Party/FreeRTOS/Source/CMSIS_RTOS_V2/cmsis_os2.c ****   EventGroupHandle_t hEventGroup = (EventGroupHandle_t)ef_id;
1139:Middlewares/Third_Party/FreeRTOS/Source/CMSIS_RTOS_V2/cmsis_os2.c ****   BaseType_t wait_all;
1140:Middlewares/Third_Party/FreeRTOS/Source/CMSIS_RTOS_V2/cmsis_os2.c ****   BaseType_t exit_clr;
1141:Middlewares/Third_Party/FreeRTOS/Source/CMSIS_RTOS_V2/cmsis_os2.c ****   uint32_t rflags;
1142:Middlewares/Third_Party/FreeRTOS/Source/CMSIS_RTOS_V2/cmsis_os2.c **** 
1143:Middlewares/Third_Party/FreeRTOS/Source/CMSIS_RTOS_V2/cmsis_os2.c ****   if ((hEventGroup == NULL) || ((flags & EVENT_FLAGS_INVALID_BITS) != 0U)) {
 4788              		.loc 1 1143 0
 4789 0000 B0B3     		cbz	r0, .L482
1137:Middlewares/Third_Party/FreeRTOS/Source/CMSIS_RTOS_V2/cmsis_os2.c ****   EventGroupHandle_t hEventGroup = (EventGroupHandle_t)ef_id;
 4790              		.loc 1 1137 0 discriminator 1
 4791 0002 70B5     		push	{r4, r5, r6, lr}
 4792              	.LCFI80:
 4793              		.cfi_def_cfa_offset 16
 4794              		.cfi_offset 4, -16
 4795              		.cfi_offset 5, -12
 4796              		.cfi_offset 6, -8
 4797              		.cfi_offset 14, -4
 4798 0004 82B0     		sub	sp, sp, #8
ARM GAS  /tmp/ccjsdB5h.s 			page 125


 4799              	.LCFI81:
 4800              		.cfi_def_cfa_offset 24
 4801 0006 0446     		mov	r4, r0
 4802              		.loc 1 1143 0 discriminator 1
 4803 0008 11F07F4F 		tst	r1, #-16777216
 4804 000c 33D1     		bne	.L483
 4805              	.LBB548:
 4806              	.LBB549:
 209:Drivers/CMSIS/Include/cmsis_gcc.h ****   return(result);
 4807              		.loc 2 209 0
 4808              		.syntax unified
 4809              	@ 209 "Drivers/CMSIS/Include/cmsis_gcc.h" 1
 4810 000e EFF30580 		MRS r0, ipsr
 4811              	@ 0 "" 2
 4812              	.LVL413:
 4813              		.thumb
 4814              		.syntax unified
 4815              	.LBE549:
 4816              	.LBE548:
1144:Middlewares/Third_Party/FreeRTOS/Source/CMSIS_RTOS_V2/cmsis_os2.c ****     rflags = (uint32_t)osErrorParameter;
1145:Middlewares/Third_Party/FreeRTOS/Source/CMSIS_RTOS_V2/cmsis_os2.c ****   }
1146:Middlewares/Third_Party/FreeRTOS/Source/CMSIS_RTOS_V2/cmsis_os2.c ****   else if (IS_IRQ()) {
 4817              		.loc 1 1146 0
 4818 0012 A0BB     		cbnz	r0, .L484
 4819              	.LBB550:
 4820              	.LBB551:
 386:Drivers/CMSIS/Include/cmsis_gcc.h ****   return(result);
 4821              		.loc 2 386 0
 4822              		.syntax unified
 4823              	@ 386 "Drivers/CMSIS/Include/cmsis_gcc.h" 1
 4824 0014 EFF31080 		MRS r0, primask
 4825              	@ 0 "" 2
 4826              		.thumb
 4827              		.syntax unified
 4828              	.LBE551:
 4829              	.LBE550:
 4830              		.loc 1 1146 0
 4831 0018 A0BB     		cbnz	r0, .L485
 4832              		.loc 1 1146 0 is_stmt 0 discriminator 2
 4833 001a 1C48     		ldr	r0, .L494
 4834 001c 0068     		ldr	r0, [r0]
 4835 001e 0228     		cmp	r0, #2
 4836 0020 16D0     		beq	.L493
 4837              	.L480:
 4838 0022 2046     		mov	r0, r4
 4839 0024 1D46     		mov	r5, r3
 4840 0026 0C46     		mov	r4, r1
 4841              	.LVL414:
1147:Middlewares/Third_Party/FreeRTOS/Source/CMSIS_RTOS_V2/cmsis_os2.c ****     rflags = (uint32_t)osErrorISR;
1148:Middlewares/Third_Party/FreeRTOS/Source/CMSIS_RTOS_V2/cmsis_os2.c ****   }
1149:Middlewares/Third_Party/FreeRTOS/Source/CMSIS_RTOS_V2/cmsis_os2.c ****   else {
1150:Middlewares/Third_Party/FreeRTOS/Source/CMSIS_RTOS_V2/cmsis_os2.c ****     if (options & osFlagsWaitAll) {
 4842              		.loc 1 1150 0 is_stmt 1
 4843 0028 02F00106 		and	r6, r2, #1
 4844              	.LVL415:
1151:Middlewares/Third_Party/FreeRTOS/Source/CMSIS_RTOS_V2/cmsis_os2.c ****       wait_all = pdTRUE;
1152:Middlewares/Third_Party/FreeRTOS/Source/CMSIS_RTOS_V2/cmsis_os2.c ****     } else {
ARM GAS  /tmp/ccjsdB5h.s 			page 126


1153:Middlewares/Third_Party/FreeRTOS/Source/CMSIS_RTOS_V2/cmsis_os2.c ****       wait_all = pdFAIL;
1154:Middlewares/Third_Party/FreeRTOS/Source/CMSIS_RTOS_V2/cmsis_os2.c ****     }
1155:Middlewares/Third_Party/FreeRTOS/Source/CMSIS_RTOS_V2/cmsis_os2.c **** 
1156:Middlewares/Third_Party/FreeRTOS/Source/CMSIS_RTOS_V2/cmsis_os2.c ****     if (options & osFlagsNoClear) {
 4845              		.loc 1 1156 0
 4846 002c 82F00202 		eor	r2, r2, #2
 4847              	.LVL416:
1157:Middlewares/Third_Party/FreeRTOS/Source/CMSIS_RTOS_V2/cmsis_os2.c ****       exit_clr = pdFAIL;
1158:Middlewares/Third_Party/FreeRTOS/Source/CMSIS_RTOS_V2/cmsis_os2.c ****     } else {
1159:Middlewares/Third_Party/FreeRTOS/Source/CMSIS_RTOS_V2/cmsis_os2.c ****       exit_clr = pdTRUE;
1160:Middlewares/Third_Party/FreeRTOS/Source/CMSIS_RTOS_V2/cmsis_os2.c ****     }
1161:Middlewares/Third_Party/FreeRTOS/Source/CMSIS_RTOS_V2/cmsis_os2.c **** 
1162:Middlewares/Third_Party/FreeRTOS/Source/CMSIS_RTOS_V2/cmsis_os2.c ****     rflags = xEventGroupWaitBits (hEventGroup, (EventBits_t)flags, exit_clr, wait_all, (TickType_t)
 4848              		.loc 1 1162 0
 4849 0030 0093     		str	r3, [sp]
 4850 0032 3346     		mov	r3, r6
 4851              	.LVL417:
 4852 0034 C2F34002 		ubfx	r2, r2, #1, #1
 4853              	.LVL418:
 4854 0038 FFF7FEFF 		bl	xEventGroupWaitBits
 4855              	.LVL419:
1163:Middlewares/Third_Party/FreeRTOS/Source/CMSIS_RTOS_V2/cmsis_os2.c **** 
1164:Middlewares/Third_Party/FreeRTOS/Source/CMSIS_RTOS_V2/cmsis_os2.c ****     if (options & osFlagsWaitAll) {
 4856              		.loc 1 1164 0
 4857 003c 7EB1     		cbz	r6, .L481
1165:Middlewares/Third_Party/FreeRTOS/Source/CMSIS_RTOS_V2/cmsis_os2.c ****       if (flags != rflags) {
 4858              		.loc 1 1165 0
 4859 003e 8442     		cmp	r4, r0
 4860 0040 1BD0     		beq	.L478
1166:Middlewares/Third_Party/FreeRTOS/Source/CMSIS_RTOS_V2/cmsis_os2.c ****         if (timeout > 0U) {
1167:Middlewares/Third_Party/FreeRTOS/Source/CMSIS_RTOS_V2/cmsis_os2.c ****           rflags = (uint32_t)osErrorTimeout;
1168:Middlewares/Third_Party/FreeRTOS/Source/CMSIS_RTOS_V2/cmsis_os2.c ****         } else {
1169:Middlewares/Third_Party/FreeRTOS/Source/CMSIS_RTOS_V2/cmsis_os2.c ****           rflags = (uint32_t)osErrorResource;
 4861              		.loc 1 1169 0
 4862 0042 002D     		cmp	r5, #0
 4863 0044 14BF     		ite	ne
 4864 0046 6FF00100 		mvnne	r0, #1
 4865              	.LVL420:
 4866 004a 6FF00200 		mvneq	r0, #2
 4867 004e 14E0     		b	.L478
 4868              	.LVL421:
 4869              	.L493:
 4870              	.LBB552:
 4871              	.LBB553:
 4872              		.loc 2 465 0
 4873              		.syntax unified
 4874              	@ 465 "Drivers/CMSIS/Include/cmsis_gcc.h" 1
 4875 0050 EFF31180 		MRS r0, basepri
 4876              	@ 0 "" 2
 4877              		.thumb
 4878              		.syntax unified
 4879              	.LBE553:
 4880              	.LBE552:
1146:Middlewares/Third_Party/FreeRTOS/Source/CMSIS_RTOS_V2/cmsis_os2.c ****     rflags = (uint32_t)osErrorISR;
 4881              		.loc 1 1146 0
 4882 0054 0028     		cmp	r0, #0
 4883 0056 E4D0     		beq	.L480
ARM GAS  /tmp/ccjsdB5h.s 			page 127


1147:Middlewares/Third_Party/FreeRTOS/Source/CMSIS_RTOS_V2/cmsis_os2.c ****   }
 4884              		.loc 1 1147 0
 4885 0058 6FF00500 		mvn	r0, #5
 4886 005c 0DE0     		b	.L478
 4887              	.LVL422:
 4888              	.L481:
1170:Middlewares/Third_Party/FreeRTOS/Source/CMSIS_RTOS_V2/cmsis_os2.c ****         }
1171:Middlewares/Third_Party/FreeRTOS/Source/CMSIS_RTOS_V2/cmsis_os2.c ****       }
1172:Middlewares/Third_Party/FreeRTOS/Source/CMSIS_RTOS_V2/cmsis_os2.c ****     }
1173:Middlewares/Third_Party/FreeRTOS/Source/CMSIS_RTOS_V2/cmsis_os2.c ****     else {
1174:Middlewares/Third_Party/FreeRTOS/Source/CMSIS_RTOS_V2/cmsis_os2.c ****       if ((flags & rflags) == 0U) {
 4889              		.loc 1 1174 0
 4890 005e 0442     		tst	r4, r0
 4891 0060 0BD1     		bne	.L478
1175:Middlewares/Third_Party/FreeRTOS/Source/CMSIS_RTOS_V2/cmsis_os2.c ****         if (timeout > 0U) {
1176:Middlewares/Third_Party/FreeRTOS/Source/CMSIS_RTOS_V2/cmsis_os2.c ****           rflags = (uint32_t)osErrorTimeout;
1177:Middlewares/Third_Party/FreeRTOS/Source/CMSIS_RTOS_V2/cmsis_os2.c ****         } else {
1178:Middlewares/Third_Party/FreeRTOS/Source/CMSIS_RTOS_V2/cmsis_os2.c ****           rflags = (uint32_t)osErrorResource;
 4892              		.loc 1 1178 0
 4893 0062 002D     		cmp	r5, #0
 4894 0064 14BF     		ite	ne
 4895 0066 6FF00100 		mvnne	r0, #1
 4896              	.LVL423:
 4897 006a 6FF00200 		mvneq	r0, #2
 4898 006e 04E0     		b	.L478
 4899              	.LVL424:
 4900              	.L482:
 4901              	.LCFI82:
 4902              		.cfi_def_cfa_offset 0
 4903              		.cfi_restore 4
 4904              		.cfi_restore 5
 4905              		.cfi_restore 6
 4906              		.cfi_restore 14
1144:Middlewares/Third_Party/FreeRTOS/Source/CMSIS_RTOS_V2/cmsis_os2.c ****   }
 4907              		.loc 1 1144 0
 4908 0070 6FF00300 		mvn	r0, #3
 4909              	.LVL425:
1179:Middlewares/Third_Party/FreeRTOS/Source/CMSIS_RTOS_V2/cmsis_os2.c ****         }
1180:Middlewares/Third_Party/FreeRTOS/Source/CMSIS_RTOS_V2/cmsis_os2.c ****       }
1181:Middlewares/Third_Party/FreeRTOS/Source/CMSIS_RTOS_V2/cmsis_os2.c ****     }
1182:Middlewares/Third_Party/FreeRTOS/Source/CMSIS_RTOS_V2/cmsis_os2.c ****   }
1183:Middlewares/Third_Party/FreeRTOS/Source/CMSIS_RTOS_V2/cmsis_os2.c **** 
1184:Middlewares/Third_Party/FreeRTOS/Source/CMSIS_RTOS_V2/cmsis_os2.c ****   return (rflags);
1185:Middlewares/Third_Party/FreeRTOS/Source/CMSIS_RTOS_V2/cmsis_os2.c **** }
 4910              		.loc 1 1185 0
 4911 0074 7047     		bx	lr
 4912              	.LVL426:
 4913              	.L483:
 4914              	.LCFI83:
 4915              		.cfi_def_cfa_offset 24
 4916              		.cfi_offset 4, -16
 4917              		.cfi_offset 5, -12
 4918              		.cfi_offset 6, -8
 4919              		.cfi_offset 14, -4
1144:Middlewares/Third_Party/FreeRTOS/Source/CMSIS_RTOS_V2/cmsis_os2.c ****   }
 4920              		.loc 1 1144 0
 4921 0076 6FF00300 		mvn	r0, #3
ARM GAS  /tmp/ccjsdB5h.s 			page 128


 4922              	.LVL427:
 4923              	.L478:
 4924              		.loc 1 1185 0
 4925 007a 02B0     		add	sp, sp, #8
 4926              	.LCFI84:
 4927              		.cfi_remember_state
 4928              		.cfi_def_cfa_offset 16
 4929              		@ sp needed
 4930 007c 70BD     		pop	{r4, r5, r6, pc}
 4931              	.LVL428:
 4932              	.L484:
 4933              	.LCFI85:
 4934              		.cfi_restore_state
1147:Middlewares/Third_Party/FreeRTOS/Source/CMSIS_RTOS_V2/cmsis_os2.c ****   }
 4935              		.loc 1 1147 0
 4936 007e 6FF00500 		mvn	r0, #5
 4937 0082 FAE7     		b	.L478
 4938              	.L485:
 4939 0084 6FF00500 		mvn	r0, #5
 4940 0088 F7E7     		b	.L478
 4941              	.L495:
 4942 008a 00BF     		.align	2
 4943              	.L494:
 4944 008c 00000000 		.word	.LANCHOR0
 4945              		.cfi_endproc
 4946              	.LFE149:
 4948              		.section	.text.osEventFlagsDelete,"ax",%progbits
 4949              		.align	1
 4950              		.global	osEventFlagsDelete
 4951              		.syntax unified
 4952              		.thumb
 4953              		.thumb_func
 4954              		.fpu fpv4-sp-d16
 4956              	osEventFlagsDelete:
 4957              	.LFB150:
1186:Middlewares/Third_Party/FreeRTOS/Source/CMSIS_RTOS_V2/cmsis_os2.c **** 
1187:Middlewares/Third_Party/FreeRTOS/Source/CMSIS_RTOS_V2/cmsis_os2.c **** osStatus_t osEventFlagsDelete (osEventFlagsId_t ef_id) {
 4958              		.loc 1 1187 0
 4959              		.cfi_startproc
 4960              		@ args = 0, pretend = 0, frame = 0
 4961              		@ frame_needed = 0, uses_anonymous_args = 0
 4962              	.LVL429:
 4963 0000 08B5     		push	{r3, lr}
 4964              	.LCFI86:
 4965              		.cfi_def_cfa_offset 8
 4966              		.cfi_offset 3, -8
 4967              		.cfi_offset 14, -4
 4968              	.LVL430:
 4969              	.LBB554:
 4970              	.LBB555:
 209:Drivers/CMSIS/Include/cmsis_gcc.h ****   return(result);
 4971              		.loc 2 209 0
 4972              		.syntax unified
 4973              	@ 209 "Drivers/CMSIS/Include/cmsis_gcc.h" 1
 4974 0002 EFF30583 		MRS r3, ipsr
 4975              	@ 0 "" 2
 4976              		.thumb
ARM GAS  /tmp/ccjsdB5h.s 			page 129


 4977              		.syntax unified
 4978              	.LBE555:
 4979              	.LBE554:
1188:Middlewares/Third_Party/FreeRTOS/Source/CMSIS_RTOS_V2/cmsis_os2.c ****   EventGroupHandle_t hEventGroup = (EventGroupHandle_t)ef_id;
1189:Middlewares/Third_Party/FreeRTOS/Source/CMSIS_RTOS_V2/cmsis_os2.c ****   osStatus_t stat;
1190:Middlewares/Third_Party/FreeRTOS/Source/CMSIS_RTOS_V2/cmsis_os2.c **** 
1191:Middlewares/Third_Party/FreeRTOS/Source/CMSIS_RTOS_V2/cmsis_os2.c **** #ifndef USE_FreeRTOS_HEAP_1
1192:Middlewares/Third_Party/FreeRTOS/Source/CMSIS_RTOS_V2/cmsis_os2.c ****   if (IS_IRQ()) {
 4980              		.loc 1 1192 0
 4981 0006 93B9     		cbnz	r3, .L499
 4982              	.LBB556:
 4983              	.LBB557:
 386:Drivers/CMSIS/Include/cmsis_gcc.h ****   return(result);
 4984              		.loc 2 386 0
 4985              		.syntax unified
 4986              	@ 386 "Drivers/CMSIS/Include/cmsis_gcc.h" 1
 4987 0008 EFF31083 		MRS r3, primask
 4988              	@ 0 "" 2
 4989              		.thumb
 4990              		.syntax unified
 4991              	.LBE557:
 4992              	.LBE556:
 4993              		.loc 1 1192 0
 4994 000c 93B9     		cbnz	r3, .L500
 4995              		.loc 1 1192 0 is_stmt 0 discriminator 2
 4996 000e 0C4B     		ldr	r3, .L505
 4997 0010 1B68     		ldr	r3, [r3]
 4998 0012 022B     		cmp	r3, #2
 4999 0014 04D0     		beq	.L504
 5000              	.L498:
1193:Middlewares/Third_Party/FreeRTOS/Source/CMSIS_RTOS_V2/cmsis_os2.c ****     stat = osErrorISR;
1194:Middlewares/Third_Party/FreeRTOS/Source/CMSIS_RTOS_V2/cmsis_os2.c ****   }
1195:Middlewares/Third_Party/FreeRTOS/Source/CMSIS_RTOS_V2/cmsis_os2.c ****   else if (hEventGroup == NULL) {
 5001              		.loc 1 1195 0 is_stmt 1
 5002 0016 80B1     		cbz	r0, .L502
 5003              	.LVL431:
1196:Middlewares/Third_Party/FreeRTOS/Source/CMSIS_RTOS_V2/cmsis_os2.c ****     stat = osErrorParameter;
1197:Middlewares/Third_Party/FreeRTOS/Source/CMSIS_RTOS_V2/cmsis_os2.c ****   }
1198:Middlewares/Third_Party/FreeRTOS/Source/CMSIS_RTOS_V2/cmsis_os2.c ****   else {
1199:Middlewares/Third_Party/FreeRTOS/Source/CMSIS_RTOS_V2/cmsis_os2.c ****     stat = osOK;
1200:Middlewares/Third_Party/FreeRTOS/Source/CMSIS_RTOS_V2/cmsis_os2.c ****     vEventGroupDelete (hEventGroup);
 5004              		.loc 1 1200 0
 5005 0018 FFF7FEFF 		bl	vEventGroupDelete
 5006              	.LVL432:
1199:Middlewares/Third_Party/FreeRTOS/Source/CMSIS_RTOS_V2/cmsis_os2.c ****     vEventGroupDelete (hEventGroup);
 5007              		.loc 1 1199 0
 5008 001c 0020     		movs	r0, #0
 5009              	.LVL433:
 5010              	.L496:
1201:Middlewares/Third_Party/FreeRTOS/Source/CMSIS_RTOS_V2/cmsis_os2.c ****   }
1202:Middlewares/Third_Party/FreeRTOS/Source/CMSIS_RTOS_V2/cmsis_os2.c **** #else
1203:Middlewares/Third_Party/FreeRTOS/Source/CMSIS_RTOS_V2/cmsis_os2.c ****   stat = osError;
1204:Middlewares/Third_Party/FreeRTOS/Source/CMSIS_RTOS_V2/cmsis_os2.c **** #endif
1205:Middlewares/Third_Party/FreeRTOS/Source/CMSIS_RTOS_V2/cmsis_os2.c **** 
1206:Middlewares/Third_Party/FreeRTOS/Source/CMSIS_RTOS_V2/cmsis_os2.c ****   return (stat);
1207:Middlewares/Third_Party/FreeRTOS/Source/CMSIS_RTOS_V2/cmsis_os2.c **** }
 5011              		.loc 1 1207 0
ARM GAS  /tmp/ccjsdB5h.s 			page 130


 5012 001e 08BD     		pop	{r3, pc}
 5013              	.LVL434:
 5014              	.L504:
 5015              	.LBB558:
 5016              	.LBB559:
 5017              		.loc 2 465 0
 5018              		.syntax unified
 5019              	@ 465 "Drivers/CMSIS/Include/cmsis_gcc.h" 1
 5020 0020 EFF31183 		MRS r3, basepri
 5021              	@ 0 "" 2
 5022              		.thumb
 5023              		.syntax unified
 5024              	.LBE559:
 5025              	.LBE558:
1192:Middlewares/Third_Party/FreeRTOS/Source/CMSIS_RTOS_V2/cmsis_os2.c ****     stat = osErrorISR;
 5026              		.loc 1 1192 0
 5027 0024 002B     		cmp	r3, #0
 5028 0026 F6D0     		beq	.L498
1193:Middlewares/Third_Party/FreeRTOS/Source/CMSIS_RTOS_V2/cmsis_os2.c ****   }
 5029              		.loc 1 1193 0
 5030 0028 6FF00500 		mvn	r0, #5
 5031              	.LVL435:
 5032 002c F7E7     		b	.L496
 5033              	.LVL436:
 5034              	.L499:
 5035 002e 6FF00500 		mvn	r0, #5
 5036              	.LVL437:
 5037 0032 F4E7     		b	.L496
 5038              	.LVL438:
 5039              	.L500:
 5040 0034 6FF00500 		mvn	r0, #5
 5041              	.LVL439:
 5042 0038 F1E7     		b	.L496
 5043              	.LVL440:
 5044              	.L502:
1196:Middlewares/Third_Party/FreeRTOS/Source/CMSIS_RTOS_V2/cmsis_os2.c ****   }
 5045              		.loc 1 1196 0
 5046 003a 6FF00300 		mvn	r0, #3
 5047              	.LVL441:
1206:Middlewares/Third_Party/FreeRTOS/Source/CMSIS_RTOS_V2/cmsis_os2.c **** }
 5048              		.loc 1 1206 0
 5049 003e EEE7     		b	.L496
 5050              	.L506:
 5051              		.align	2
 5052              	.L505:
 5053 0040 00000000 		.word	.LANCHOR0
 5054              		.cfi_endproc
 5055              	.LFE150:
 5057              		.section	.text.osMutexNew,"ax",%progbits
 5058              		.align	1
 5059              		.global	osMutexNew
 5060              		.syntax unified
 5061              		.thumb
 5062              		.thumb_func
 5063              		.fpu fpv4-sp-d16
 5065              	osMutexNew:
 5066              	.LFB151:
ARM GAS  /tmp/ccjsdB5h.s 			page 131


1208:Middlewares/Third_Party/FreeRTOS/Source/CMSIS_RTOS_V2/cmsis_os2.c **** 
1209:Middlewares/Third_Party/FreeRTOS/Source/CMSIS_RTOS_V2/cmsis_os2.c **** /*---------------------------------------------------------------------------*/
1210:Middlewares/Third_Party/FreeRTOS/Source/CMSIS_RTOS_V2/cmsis_os2.c **** 
1211:Middlewares/Third_Party/FreeRTOS/Source/CMSIS_RTOS_V2/cmsis_os2.c **** osMutexId_t osMutexNew (const osMutexAttr_t *attr) {
 5067              		.loc 1 1211 0
 5068              		.cfi_startproc
 5069              		@ args = 0, pretend = 0, frame = 0
 5070              		@ frame_needed = 0, uses_anonymous_args = 0
 5071              	.LVL442:
 5072 0000 70B5     		push	{r4, r5, r6, lr}
 5073              	.LCFI87:
 5074              		.cfi_def_cfa_offset 16
 5075              		.cfi_offset 4, -16
 5076              		.cfi_offset 5, -12
 5077              		.cfi_offset 6, -8
 5078              		.cfi_offset 14, -4
 5079              	.LVL443:
 5080              	.LBB560:
 5081              	.LBB561:
 209:Drivers/CMSIS/Include/cmsis_gcc.h ****   return(result);
 5082              		.loc 2 209 0
 5083              		.syntax unified
 5084              	@ 209 "Drivers/CMSIS/Include/cmsis_gcc.h" 1
 5085 0002 EFF30583 		MRS r3, ipsr
 5086              	@ 0 "" 2
 5087              		.thumb
 5088              		.syntax unified
 5089              	.LBE561:
 5090              	.LBE560:
1212:Middlewares/Third_Party/FreeRTOS/Source/CMSIS_RTOS_V2/cmsis_os2.c ****   SemaphoreHandle_t hMutex;
1213:Middlewares/Third_Party/FreeRTOS/Source/CMSIS_RTOS_V2/cmsis_os2.c ****   uint32_t type;
1214:Middlewares/Third_Party/FreeRTOS/Source/CMSIS_RTOS_V2/cmsis_os2.c ****   uint32_t rmtx;
1215:Middlewares/Third_Party/FreeRTOS/Source/CMSIS_RTOS_V2/cmsis_os2.c ****   int32_t  mem;
1216:Middlewares/Third_Party/FreeRTOS/Source/CMSIS_RTOS_V2/cmsis_os2.c ****   #if (configQUEUE_REGISTRY_SIZE > 0)
1217:Middlewares/Third_Party/FreeRTOS/Source/CMSIS_RTOS_V2/cmsis_os2.c ****   const char *name;
1218:Middlewares/Third_Party/FreeRTOS/Source/CMSIS_RTOS_V2/cmsis_os2.c ****   #endif
1219:Middlewares/Third_Party/FreeRTOS/Source/CMSIS_RTOS_V2/cmsis_os2.c **** 
1220:Middlewares/Third_Party/FreeRTOS/Source/CMSIS_RTOS_V2/cmsis_os2.c ****   hMutex = NULL;
1221:Middlewares/Third_Party/FreeRTOS/Source/CMSIS_RTOS_V2/cmsis_os2.c **** 
1222:Middlewares/Third_Party/FreeRTOS/Source/CMSIS_RTOS_V2/cmsis_os2.c ****   if (!IS_IRQ()) {
 5091              		.loc 1 1222 0
 5092 0006 002B     		cmp	r3, #0
 5093 0008 47D1     		bne	.L520
 5094              	.LBB562:
 5095              	.LBB563:
 386:Drivers/CMSIS/Include/cmsis_gcc.h ****   return(result);
 5096              		.loc 2 386 0
 5097              		.syntax unified
 5098              	@ 386 "Drivers/CMSIS/Include/cmsis_gcc.h" 1
 5099 000a EFF31083 		MRS r3, primask
 5100              	@ 0 "" 2
 5101              		.thumb
 5102              		.syntax unified
 5103              	.LBE563:
 5104              	.LBE562:
 5105              		.loc 1 1222 0
 5106 000e 002B     		cmp	r3, #0
ARM GAS  /tmp/ccjsdB5h.s 			page 132


 5107 0010 45D1     		bne	.L521
 5108              		.loc 1 1222 0 is_stmt 0 discriminator 2
 5109 0012 254B     		ldr	r3, .L528
 5110 0014 1B68     		ldr	r3, [r3]
 5111 0016 022B     		cmp	r3, #2
 5112 0018 11D0     		beq	.L527
 5113              	.L509:
 5114 001a 0446     		mov	r4, r0
1223:Middlewares/Third_Party/FreeRTOS/Source/CMSIS_RTOS_V2/cmsis_os2.c ****     if (attr != NULL) {
 5115              		.loc 1 1223 0 is_stmt 1
 5116 001c 0028     		cmp	r0, #0
 5117 001e 36D0     		beq	.L523
1224:Middlewares/Third_Party/FreeRTOS/Source/CMSIS_RTOS_V2/cmsis_os2.c ****       type = attr->attr_bits;
 5118              		.loc 1 1224 0
 5119 0020 4368     		ldr	r3, [r0, #4]
 5120              	.LVL444:
1225:Middlewares/Third_Party/FreeRTOS/Source/CMSIS_RTOS_V2/cmsis_os2.c ****     } else {
1226:Middlewares/Third_Party/FreeRTOS/Source/CMSIS_RTOS_V2/cmsis_os2.c ****       type = 0U;
1227:Middlewares/Third_Party/FreeRTOS/Source/CMSIS_RTOS_V2/cmsis_os2.c ****     }
1228:Middlewares/Third_Party/FreeRTOS/Source/CMSIS_RTOS_V2/cmsis_os2.c **** 
1229:Middlewares/Third_Party/FreeRTOS/Source/CMSIS_RTOS_V2/cmsis_os2.c ****     if ((type & osMutexRecursive) == osMutexRecursive) {
 5121              		.loc 1 1229 0
 5122 0022 03F00102 		and	r2, r3, #1
1230:Middlewares/Third_Party/FreeRTOS/Source/CMSIS_RTOS_V2/cmsis_os2.c ****       rmtx = 1U;
 5123              		.loc 1 1230 0
 5124 0026 1646     		mov	r6, r2
 5125              	.LVL445:
1231:Middlewares/Third_Party/FreeRTOS/Source/CMSIS_RTOS_V2/cmsis_os2.c ****     } else {
1232:Middlewares/Third_Party/FreeRTOS/Source/CMSIS_RTOS_V2/cmsis_os2.c ****       rmtx = 0U;
1233:Middlewares/Third_Party/FreeRTOS/Source/CMSIS_RTOS_V2/cmsis_os2.c ****     }
1234:Middlewares/Third_Party/FreeRTOS/Source/CMSIS_RTOS_V2/cmsis_os2.c **** 
1235:Middlewares/Third_Party/FreeRTOS/Source/CMSIS_RTOS_V2/cmsis_os2.c ****     if ((type & osMutexRobust) != osMutexRobust) {
 5126              		.loc 1 1235 0
 5127 0028 13F0080F 		tst	r3, #8
 5128 002c 39D1     		bne	.L524
 5129              	.LVL446:
1236:Middlewares/Third_Party/FreeRTOS/Source/CMSIS_RTOS_V2/cmsis_os2.c ****       mem = -1;
1237:Middlewares/Third_Party/FreeRTOS/Source/CMSIS_RTOS_V2/cmsis_os2.c **** 
1238:Middlewares/Third_Party/FreeRTOS/Source/CMSIS_RTOS_V2/cmsis_os2.c ****       if (attr != NULL) {
1239:Middlewares/Third_Party/FreeRTOS/Source/CMSIS_RTOS_V2/cmsis_os2.c ****         if ((attr->cb_mem != NULL) && (attr->cb_size >= sizeof(StaticSemaphore_t))) {
 5130              		.loc 1 1239 0
 5131 002e 8168     		ldr	r1, [r0, #8]
 5132 0030 59B1     		cbz	r1, .L511
 5133              		.loc 1 1239 0 is_stmt 0 discriminator 1
 5134 0032 C368     		ldr	r3, [r0, #12]
 5135              	.LVL447:
 5136 0034 4F2B     		cmp	r3, #79
 5137 0036 15D8     		bhi	.L512
 5138              	.LVL448:
 5139              	.L513:
1220:Middlewares/Third_Party/FreeRTOS/Source/CMSIS_RTOS_V2/cmsis_os2.c **** 
 5140              		.loc 1 1220 0 is_stmt 1
 5141 0038 0025     		movs	r5, #0
 5142              	.LVL449:
 5143              	.L507:
1240:Middlewares/Third_Party/FreeRTOS/Source/CMSIS_RTOS_V2/cmsis_os2.c ****           mem = 1;
1241:Middlewares/Third_Party/FreeRTOS/Source/CMSIS_RTOS_V2/cmsis_os2.c ****         }
ARM GAS  /tmp/ccjsdB5h.s 			page 133


1242:Middlewares/Third_Party/FreeRTOS/Source/CMSIS_RTOS_V2/cmsis_os2.c ****         else {
1243:Middlewares/Third_Party/FreeRTOS/Source/CMSIS_RTOS_V2/cmsis_os2.c ****           if ((attr->cb_mem == NULL) && (attr->cb_size == 0U)) {
1244:Middlewares/Third_Party/FreeRTOS/Source/CMSIS_RTOS_V2/cmsis_os2.c ****             mem = 0;
1245:Middlewares/Third_Party/FreeRTOS/Source/CMSIS_RTOS_V2/cmsis_os2.c ****           }
1246:Middlewares/Third_Party/FreeRTOS/Source/CMSIS_RTOS_V2/cmsis_os2.c ****         }
1247:Middlewares/Third_Party/FreeRTOS/Source/CMSIS_RTOS_V2/cmsis_os2.c ****       }
1248:Middlewares/Third_Party/FreeRTOS/Source/CMSIS_RTOS_V2/cmsis_os2.c ****       else {
1249:Middlewares/Third_Party/FreeRTOS/Source/CMSIS_RTOS_V2/cmsis_os2.c ****         mem = 0;
1250:Middlewares/Third_Party/FreeRTOS/Source/CMSIS_RTOS_V2/cmsis_os2.c ****       }
1251:Middlewares/Third_Party/FreeRTOS/Source/CMSIS_RTOS_V2/cmsis_os2.c **** 
1252:Middlewares/Third_Party/FreeRTOS/Source/CMSIS_RTOS_V2/cmsis_os2.c ****       if (mem == 1) {
1253:Middlewares/Third_Party/FreeRTOS/Source/CMSIS_RTOS_V2/cmsis_os2.c ****         if (rmtx != 0U) {
1254:Middlewares/Third_Party/FreeRTOS/Source/CMSIS_RTOS_V2/cmsis_os2.c ****           hMutex = xSemaphoreCreateRecursiveMutexStatic (attr->cb_mem);
1255:Middlewares/Third_Party/FreeRTOS/Source/CMSIS_RTOS_V2/cmsis_os2.c ****         }
1256:Middlewares/Third_Party/FreeRTOS/Source/CMSIS_RTOS_V2/cmsis_os2.c ****         else {
1257:Middlewares/Third_Party/FreeRTOS/Source/CMSIS_RTOS_V2/cmsis_os2.c ****           hMutex = xSemaphoreCreateMutexStatic (attr->cb_mem);
1258:Middlewares/Third_Party/FreeRTOS/Source/CMSIS_RTOS_V2/cmsis_os2.c ****         }
1259:Middlewares/Third_Party/FreeRTOS/Source/CMSIS_RTOS_V2/cmsis_os2.c ****       }
1260:Middlewares/Third_Party/FreeRTOS/Source/CMSIS_RTOS_V2/cmsis_os2.c ****       else {
1261:Middlewares/Third_Party/FreeRTOS/Source/CMSIS_RTOS_V2/cmsis_os2.c ****         if (mem == 0) {
1262:Middlewares/Third_Party/FreeRTOS/Source/CMSIS_RTOS_V2/cmsis_os2.c ****           if (rmtx != 0U) {
1263:Middlewares/Third_Party/FreeRTOS/Source/CMSIS_RTOS_V2/cmsis_os2.c ****             hMutex = xSemaphoreCreateRecursiveMutex ();
1264:Middlewares/Third_Party/FreeRTOS/Source/CMSIS_RTOS_V2/cmsis_os2.c ****           } else {
1265:Middlewares/Third_Party/FreeRTOS/Source/CMSIS_RTOS_V2/cmsis_os2.c ****             hMutex = xSemaphoreCreateMutex ();
1266:Middlewares/Third_Party/FreeRTOS/Source/CMSIS_RTOS_V2/cmsis_os2.c ****           }
1267:Middlewares/Third_Party/FreeRTOS/Source/CMSIS_RTOS_V2/cmsis_os2.c ****         }
1268:Middlewares/Third_Party/FreeRTOS/Source/CMSIS_RTOS_V2/cmsis_os2.c ****       }
1269:Middlewares/Third_Party/FreeRTOS/Source/CMSIS_RTOS_V2/cmsis_os2.c **** 
1270:Middlewares/Third_Party/FreeRTOS/Source/CMSIS_RTOS_V2/cmsis_os2.c ****       #if (configQUEUE_REGISTRY_SIZE > 0)
1271:Middlewares/Third_Party/FreeRTOS/Source/CMSIS_RTOS_V2/cmsis_os2.c ****       if (hMutex != NULL) {
1272:Middlewares/Third_Party/FreeRTOS/Source/CMSIS_RTOS_V2/cmsis_os2.c ****         if (attr != NULL) {
1273:Middlewares/Third_Party/FreeRTOS/Source/CMSIS_RTOS_V2/cmsis_os2.c ****           name = attr->name;
1274:Middlewares/Third_Party/FreeRTOS/Source/CMSIS_RTOS_V2/cmsis_os2.c ****         } else {
1275:Middlewares/Third_Party/FreeRTOS/Source/CMSIS_RTOS_V2/cmsis_os2.c ****           name = NULL;
1276:Middlewares/Third_Party/FreeRTOS/Source/CMSIS_RTOS_V2/cmsis_os2.c ****         }
1277:Middlewares/Third_Party/FreeRTOS/Source/CMSIS_RTOS_V2/cmsis_os2.c ****         vQueueAddToRegistry (hMutex, name);
1278:Middlewares/Third_Party/FreeRTOS/Source/CMSIS_RTOS_V2/cmsis_os2.c ****       }
1279:Middlewares/Third_Party/FreeRTOS/Source/CMSIS_RTOS_V2/cmsis_os2.c ****       #endif
1280:Middlewares/Third_Party/FreeRTOS/Source/CMSIS_RTOS_V2/cmsis_os2.c **** 
1281:Middlewares/Third_Party/FreeRTOS/Source/CMSIS_RTOS_V2/cmsis_os2.c ****       if ((hMutex != NULL) && (rmtx != 0U)) {
1282:Middlewares/Third_Party/FreeRTOS/Source/CMSIS_RTOS_V2/cmsis_os2.c ****         hMutex = (SemaphoreHandle_t)((uint32_t)hMutex | 1U);
1283:Middlewares/Third_Party/FreeRTOS/Source/CMSIS_RTOS_V2/cmsis_os2.c ****       }
1284:Middlewares/Third_Party/FreeRTOS/Source/CMSIS_RTOS_V2/cmsis_os2.c ****     }
1285:Middlewares/Third_Party/FreeRTOS/Source/CMSIS_RTOS_V2/cmsis_os2.c ****   }
1286:Middlewares/Third_Party/FreeRTOS/Source/CMSIS_RTOS_V2/cmsis_os2.c **** 
1287:Middlewares/Third_Party/FreeRTOS/Source/CMSIS_RTOS_V2/cmsis_os2.c ****   return ((osMutexId_t)hMutex);
1288:Middlewares/Third_Party/FreeRTOS/Source/CMSIS_RTOS_V2/cmsis_os2.c **** }
 5144              		.loc 1 1288 0
 5145 003a 2846     		mov	r0, r5
 5146 003c 70BD     		pop	{r4, r5, r6, pc}
 5147              	.LVL450:
 5148              	.L527:
 5149              	.LBB564:
 5150              	.LBB565:
 5151              		.loc 2 465 0
 5152              		.syntax unified
 5153              	@ 465 "Drivers/CMSIS/Include/cmsis_gcc.h" 1
ARM GAS  /tmp/ccjsdB5h.s 			page 134


 5154 003e EFF31183 		MRS r3, basepri
 5155              	@ 0 "" 2
 5156              		.thumb
 5157              		.syntax unified
 5158              	.LBE565:
 5159              	.LBE564:
1222:Middlewares/Third_Party/FreeRTOS/Source/CMSIS_RTOS_V2/cmsis_os2.c ****     if (attr != NULL) {
 5160              		.loc 1 1222 0
 5161 0042 002B     		cmp	r3, #0
 5162 0044 E9D0     		beq	.L509
1220:Middlewares/Third_Party/FreeRTOS/Source/CMSIS_RTOS_V2/cmsis_os2.c **** 
 5163              		.loc 1 1220 0
 5164 0046 0025     		movs	r5, #0
 5165 0048 F7E7     		b	.L507
 5166              	.LVL451:
 5167              	.L511:
1243:Middlewares/Third_Party/FreeRTOS/Source/CMSIS_RTOS_V2/cmsis_os2.c ****             mem = 0;
 5168              		.loc 1 1243 0 discriminator 1
 5169 004a C368     		ldr	r3, [r0, #12]
 5170              	.LVL452:
1261:Middlewares/Third_Party/FreeRTOS/Source/CMSIS_RTOS_V2/cmsis_os2.c ****           if (rmtx != 0U) {
 5171              		.loc 1 1261 0 discriminator 1
 5172 004c 002B     		cmp	r3, #0
 5173 004e F3D1     		bne	.L513
1262:Middlewares/Third_Party/FreeRTOS/Source/CMSIS_RTOS_V2/cmsis_os2.c ****             hMutex = xSemaphoreCreateRecursiveMutex ();
 5174              		.loc 1 1262 0
 5175 0050 F2B1     		cbz	r2, .L510
1263:Middlewares/Third_Party/FreeRTOS/Source/CMSIS_RTOS_V2/cmsis_os2.c ****           } else {
 5176              		.loc 1 1263 0
 5177 0052 0420     		movs	r0, #4
 5178              	.LVL453:
 5179 0054 FFF7FEFF 		bl	xQueueCreateMutex
 5180              	.LVL454:
 5181 0058 0546     		mov	r5, r0
 5182              	.LVL455:
 5183              	.L517:
1271:Middlewares/Third_Party/FreeRTOS/Source/CMSIS_RTOS_V2/cmsis_os2.c ****         if (attr != NULL) {
 5184              		.loc 1 1271 0
 5185 005a 002D     		cmp	r5, #0
 5186 005c ECD0     		beq	.L513
1272:Middlewares/Third_Party/FreeRTOS/Source/CMSIS_RTOS_V2/cmsis_os2.c ****           name = attr->name;
 5187              		.loc 1 1272 0
 5188 005e 44B9     		cbnz	r4, .L519
1275:Middlewares/Third_Party/FreeRTOS/Source/CMSIS_RTOS_V2/cmsis_os2.c ****         }
 5189              		.loc 1 1275 0
 5190 0060 0021     		movs	r1, #0
 5191 0062 07E0     		b	.L518
 5192              	.LVL456:
 5193              	.L512:
1253:Middlewares/Third_Party/FreeRTOS/Source/CMSIS_RTOS_V2/cmsis_os2.c ****           hMutex = xSemaphoreCreateRecursiveMutexStatic (attr->cb_mem);
 5194              		.loc 1 1253 0
 5195 0064 72B1     		cbz	r2, .L515
1254:Middlewares/Third_Party/FreeRTOS/Source/CMSIS_RTOS_V2/cmsis_os2.c ****         }
 5196              		.loc 1 1254 0
 5197 0066 0420     		movs	r0, #4
 5198              	.LVL457:
 5199 0068 FFF7FEFF 		bl	xQueueCreateMutexStatic
ARM GAS  /tmp/ccjsdB5h.s 			page 135


 5200              	.LVL458:
 5201 006c 0546     		mov	r5, r0
 5202              	.LVL459:
 5203              	.L516:
1271:Middlewares/Third_Party/FreeRTOS/Source/CMSIS_RTOS_V2/cmsis_os2.c ****         if (attr != NULL) {
 5204              		.loc 1 1271 0
 5205 006e 002D     		cmp	r5, #0
 5206 0070 E3D0     		beq	.L507
 5207              	.LVL460:
 5208              	.L519:
1273:Middlewares/Third_Party/FreeRTOS/Source/CMSIS_RTOS_V2/cmsis_os2.c ****         } else {
 5209              		.loc 1 1273 0
 5210 0072 2168     		ldr	r1, [r4]
 5211              	.LVL461:
 5212              	.L518:
1277:Middlewares/Third_Party/FreeRTOS/Source/CMSIS_RTOS_V2/cmsis_os2.c ****       }
 5213              		.loc 1 1277 0
 5214 0074 2846     		mov	r0, r5
 5215              	.LVL462:
 5216 0076 FFF7FEFF 		bl	vQueueAddToRegistry
 5217              	.LVL463:
1281:Middlewares/Third_Party/FreeRTOS/Source/CMSIS_RTOS_V2/cmsis_os2.c ****         hMutex = (SemaphoreHandle_t)((uint32_t)hMutex | 1U);
 5218              		.loc 1 1281 0
 5219 007a 002E     		cmp	r6, #0
 5220 007c DDD0     		beq	.L507
1282:Middlewares/Third_Party/FreeRTOS/Source/CMSIS_RTOS_V2/cmsis_os2.c ****       }
 5221              		.loc 1 1282 0
 5222 007e 45F00105 		orr	r5, r5, #1
 5223              	.LVL464:
 5224 0082 DAE7     		b	.L507
 5225              	.LVL465:
 5226              	.L515:
1257:Middlewares/Third_Party/FreeRTOS/Source/CMSIS_RTOS_V2/cmsis_os2.c ****         }
 5227              		.loc 1 1257 0
 5228 0084 0120     		movs	r0, #1
 5229              	.LVL466:
 5230 0086 FFF7FEFF 		bl	xQueueCreateMutexStatic
 5231              	.LVL467:
 5232 008a 0546     		mov	r5, r0
 5233              	.LVL468:
 5234 008c EFE7     		b	.L516
 5235              	.LVL469:
 5236              	.L523:
1230:Middlewares/Third_Party/FreeRTOS/Source/CMSIS_RTOS_V2/cmsis_os2.c ****     } else {
 5237              		.loc 1 1230 0
 5238 008e 0026     		movs	r6, #0
 5239              	.L510:
1265:Middlewares/Third_Party/FreeRTOS/Source/CMSIS_RTOS_V2/cmsis_os2.c ****           }
 5240              		.loc 1 1265 0
 5241 0090 0120     		movs	r0, #1
 5242              	.LVL470:
 5243 0092 FFF7FEFF 		bl	xQueueCreateMutex
 5244              	.LVL471:
 5245 0096 0546     		mov	r5, r0
 5246              	.LVL472:
 5247 0098 DFE7     		b	.L517
 5248              	.LVL473:
ARM GAS  /tmp/ccjsdB5h.s 			page 136


 5249              	.L520:
1220:Middlewares/Third_Party/FreeRTOS/Source/CMSIS_RTOS_V2/cmsis_os2.c **** 
 5250              		.loc 1 1220 0
 5251 009a 0025     		movs	r5, #0
 5252 009c CDE7     		b	.L507
 5253              	.L521:
 5254 009e 0025     		movs	r5, #0
 5255 00a0 CBE7     		b	.L507
 5256              	.LVL474:
 5257              	.L524:
 5258 00a2 0025     		movs	r5, #0
1287:Middlewares/Third_Party/FreeRTOS/Source/CMSIS_RTOS_V2/cmsis_os2.c **** }
 5259              		.loc 1 1287 0
 5260 00a4 C9E7     		b	.L507
 5261              	.L529:
 5262 00a6 00BF     		.align	2
 5263              	.L528:
 5264 00a8 00000000 		.word	.LANCHOR0
 5265              		.cfi_endproc
 5266              	.LFE151:
 5268              		.section	.text.osMutexAcquire,"ax",%progbits
 5269              		.align	1
 5270              		.global	osMutexAcquire
 5271              		.syntax unified
 5272              		.thumb
 5273              		.thumb_func
 5274              		.fpu fpv4-sp-d16
 5276              	osMutexAcquire:
 5277              	.LFB152:
1289:Middlewares/Third_Party/FreeRTOS/Source/CMSIS_RTOS_V2/cmsis_os2.c **** 
1290:Middlewares/Third_Party/FreeRTOS/Source/CMSIS_RTOS_V2/cmsis_os2.c **** osStatus_t osMutexAcquire (osMutexId_t mutex_id, uint32_t timeout) {
 5278              		.loc 1 1290 0
 5279              		.cfi_startproc
 5280              		@ args = 0, pretend = 0, frame = 0
 5281              		@ frame_needed = 0, uses_anonymous_args = 0
 5282              	.LVL475:
1291:Middlewares/Third_Party/FreeRTOS/Source/CMSIS_RTOS_V2/cmsis_os2.c ****   SemaphoreHandle_t hMutex;
1292:Middlewares/Third_Party/FreeRTOS/Source/CMSIS_RTOS_V2/cmsis_os2.c ****   osStatus_t stat;
1293:Middlewares/Third_Party/FreeRTOS/Source/CMSIS_RTOS_V2/cmsis_os2.c ****   uint32_t rmtx;
1294:Middlewares/Third_Party/FreeRTOS/Source/CMSIS_RTOS_V2/cmsis_os2.c **** 
1295:Middlewares/Third_Party/FreeRTOS/Source/CMSIS_RTOS_V2/cmsis_os2.c ****   hMutex = (SemaphoreHandle_t)((uint32_t)mutex_id & ~1U);
 5283              		.loc 1 1295 0
 5284 0000 20F00102 		bic	r2, r0, #1
 5285              	.LVL476:
1296:Middlewares/Third_Party/FreeRTOS/Source/CMSIS_RTOS_V2/cmsis_os2.c **** 
1297:Middlewares/Third_Party/FreeRTOS/Source/CMSIS_RTOS_V2/cmsis_os2.c ****   rmtx = (uint32_t)mutex_id & 1U;
 5286              		.loc 1 1297 0
 5287 0004 00F00103 		and	r3, r0, #1
 5288              	.LVL477:
 5289              	.LBB566:
 5290              	.LBB567:
 209:Drivers/CMSIS/Include/cmsis_gcc.h ****   return(result);
 5291              		.loc 2 209 0
 5292              		.syntax unified
 5293              	@ 209 "Drivers/CMSIS/Include/cmsis_gcc.h" 1
 5294 0008 EFF30580 		MRS r0, ipsr
 5295              	@ 0 "" 2
ARM GAS  /tmp/ccjsdB5h.s 			page 137


 5296              	.LVL478:
 5297              		.thumb
 5298              		.syntax unified
 5299              	.LBE567:
 5300              	.LBE566:
1298:Middlewares/Third_Party/FreeRTOS/Source/CMSIS_RTOS_V2/cmsis_os2.c **** 
1299:Middlewares/Third_Party/FreeRTOS/Source/CMSIS_RTOS_V2/cmsis_os2.c ****   stat = osOK;
1300:Middlewares/Third_Party/FreeRTOS/Source/CMSIS_RTOS_V2/cmsis_os2.c **** 
1301:Middlewares/Third_Party/FreeRTOS/Source/CMSIS_RTOS_V2/cmsis_os2.c ****   if (IS_IRQ()) {
 5301              		.loc 1 1301 0
 5302 000c 48BB     		cbnz	r0, .L534
 5303              	.LBB568:
 5304              	.LBB569:
 386:Drivers/CMSIS/Include/cmsis_gcc.h ****   return(result);
 5305              		.loc 2 386 0
 5306              		.syntax unified
 5307              	@ 386 "Drivers/CMSIS/Include/cmsis_gcc.h" 1
 5308 000e EFF31080 		MRS r0, primask
 5309              	@ 0 "" 2
 5310              		.thumb
 5311              		.syntax unified
 5312              	.LBE569:
 5313              	.LBE568:
 5314              		.loc 1 1301 0
 5315 0012 48BB     		cbnz	r0, .L535
 5316              		.loc 1 1301 0 is_stmt 0 discriminator 2
 5317 0014 1948     		ldr	r0, .L547
 5318 0016 0068     		ldr	r0, [r0]
 5319 0018 0228     		cmp	r0, #2
 5320 001a 0FD0     		beq	.L546
 5321              	.L532:
1302:Middlewares/Third_Party/FreeRTOS/Source/CMSIS_RTOS_V2/cmsis_os2.c ****     stat = osErrorISR;
1303:Middlewares/Third_Party/FreeRTOS/Source/CMSIS_RTOS_V2/cmsis_os2.c ****   }
1304:Middlewares/Third_Party/FreeRTOS/Source/CMSIS_RTOS_V2/cmsis_os2.c ****   else if (hMutex == NULL) {
 5322              		.loc 1 1304 0 is_stmt 1
 5323 001c 3AB3     		cbz	r2, .L537
1290:Middlewares/Third_Party/FreeRTOS/Source/CMSIS_RTOS_V2/cmsis_os2.c ****   SemaphoreHandle_t hMutex;
 5324              		.loc 1 1290 0
 5325 001e 10B5     		push	{r4, lr}
 5326              	.LCFI88:
 5327              		.cfi_def_cfa_offset 8
 5328              		.cfi_offset 4, -8
 5329              		.cfi_offset 14, -4
 5330 0020 0C46     		mov	r4, r1
1305:Middlewares/Third_Party/FreeRTOS/Source/CMSIS_RTOS_V2/cmsis_os2.c ****     stat = osErrorParameter;
1306:Middlewares/Third_Party/FreeRTOS/Source/CMSIS_RTOS_V2/cmsis_os2.c ****   }
1307:Middlewares/Third_Party/FreeRTOS/Source/CMSIS_RTOS_V2/cmsis_os2.c ****   else {
1308:Middlewares/Third_Party/FreeRTOS/Source/CMSIS_RTOS_V2/cmsis_os2.c ****     if (rmtx != 0U) {
 5331              		.loc 1 1308 0
 5332 0022 93B1     		cbz	r3, .L533
1309:Middlewares/Third_Party/FreeRTOS/Source/CMSIS_RTOS_V2/cmsis_os2.c ****       if (xSemaphoreTakeRecursive (hMutex, timeout) != pdPASS) {
 5333              		.loc 1 1309 0
 5334 0024 1046     		mov	r0, r2
 5335 0026 FFF7FEFF 		bl	xQueueTakeMutexRecursive
 5336              	.LVL479:
 5337 002a 0128     		cmp	r0, #1
 5338 002c 22D0     		beq	.L538
ARM GAS  /tmp/ccjsdB5h.s 			page 138


1310:Middlewares/Third_Party/FreeRTOS/Source/CMSIS_RTOS_V2/cmsis_os2.c ****         if (timeout != 0U) {
1311:Middlewares/Third_Party/FreeRTOS/Source/CMSIS_RTOS_V2/cmsis_os2.c ****           stat = osErrorTimeout;
1312:Middlewares/Third_Party/FreeRTOS/Source/CMSIS_RTOS_V2/cmsis_os2.c ****         } else {
1313:Middlewares/Third_Party/FreeRTOS/Source/CMSIS_RTOS_V2/cmsis_os2.c ****           stat = osErrorResource;
 5339              		.loc 1 1313 0
 5340 002e 002C     		cmp	r4, #0
 5341 0030 14BF     		ite	ne
 5342 0032 6FF00100 		mvnne	r0, #1
 5343 0036 6FF00200 		mvneq	r0, #2
 5344              	.L530:
1314:Middlewares/Third_Party/FreeRTOS/Source/CMSIS_RTOS_V2/cmsis_os2.c ****         }
1315:Middlewares/Third_Party/FreeRTOS/Source/CMSIS_RTOS_V2/cmsis_os2.c ****       }
1316:Middlewares/Third_Party/FreeRTOS/Source/CMSIS_RTOS_V2/cmsis_os2.c ****     }
1317:Middlewares/Third_Party/FreeRTOS/Source/CMSIS_RTOS_V2/cmsis_os2.c ****     else {
1318:Middlewares/Third_Party/FreeRTOS/Source/CMSIS_RTOS_V2/cmsis_os2.c ****       if (xSemaphoreTake (hMutex, timeout) != pdPASS) {
1319:Middlewares/Third_Party/FreeRTOS/Source/CMSIS_RTOS_V2/cmsis_os2.c ****         if (timeout != 0U) {
1320:Middlewares/Third_Party/FreeRTOS/Source/CMSIS_RTOS_V2/cmsis_os2.c ****           stat = osErrorTimeout;
1321:Middlewares/Third_Party/FreeRTOS/Source/CMSIS_RTOS_V2/cmsis_os2.c ****         } else {
1322:Middlewares/Third_Party/FreeRTOS/Source/CMSIS_RTOS_V2/cmsis_os2.c ****           stat = osErrorResource;
1323:Middlewares/Third_Party/FreeRTOS/Source/CMSIS_RTOS_V2/cmsis_os2.c ****         }
1324:Middlewares/Third_Party/FreeRTOS/Source/CMSIS_RTOS_V2/cmsis_os2.c ****       }
1325:Middlewares/Third_Party/FreeRTOS/Source/CMSIS_RTOS_V2/cmsis_os2.c ****     }
1326:Middlewares/Third_Party/FreeRTOS/Source/CMSIS_RTOS_V2/cmsis_os2.c ****   }
1327:Middlewares/Third_Party/FreeRTOS/Source/CMSIS_RTOS_V2/cmsis_os2.c **** 
1328:Middlewares/Third_Party/FreeRTOS/Source/CMSIS_RTOS_V2/cmsis_os2.c ****   return (stat);
1329:Middlewares/Third_Party/FreeRTOS/Source/CMSIS_RTOS_V2/cmsis_os2.c **** }
 5345              		.loc 1 1329 0
 5346 003a 10BD     		pop	{r4, pc}
 5347              	.LVL480:
 5348              	.L546:
 5349              	.LCFI89:
 5350              		.cfi_def_cfa_offset 0
 5351              		.cfi_restore 4
 5352              		.cfi_restore 14
 5353              	.LBB570:
 5354              	.LBB571:
 5355              		.loc 2 465 0
 5356              		.syntax unified
 5357              	@ 465 "Drivers/CMSIS/Include/cmsis_gcc.h" 1
 5358 003c EFF31180 		MRS r0, basepri
 5359              	@ 0 "" 2
 5360              		.thumb
 5361              		.syntax unified
 5362              	.LBE571:
 5363              	.LBE570:
1301:Middlewares/Third_Party/FreeRTOS/Source/CMSIS_RTOS_V2/cmsis_os2.c ****     stat = osErrorISR;
 5364              		.loc 1 1301 0
 5365 0040 0028     		cmp	r0, #0
 5366 0042 EBD0     		beq	.L532
1302:Middlewares/Third_Party/FreeRTOS/Source/CMSIS_RTOS_V2/cmsis_os2.c ****   }
 5367              		.loc 1 1302 0
 5368 0044 6FF00500 		mvn	r0, #5
 5369 0048 7047     		bx	lr
 5370              	.L533:
 5371              	.LCFI90:
 5372              		.cfi_def_cfa_offset 8
 5373              		.cfi_offset 4, -8
ARM GAS  /tmp/ccjsdB5h.s 			page 139


 5374              		.cfi_offset 14, -4
1318:Middlewares/Third_Party/FreeRTOS/Source/CMSIS_RTOS_V2/cmsis_os2.c ****         if (timeout != 0U) {
 5375              		.loc 1 1318 0
 5376 004a 1046     		mov	r0, r2
 5377 004c FFF7FEFF 		bl	xQueueSemaphoreTake
 5378              	.LVL481:
 5379 0050 0128     		cmp	r0, #1
 5380 0052 11D0     		beq	.L540
1322:Middlewares/Third_Party/FreeRTOS/Source/CMSIS_RTOS_V2/cmsis_os2.c ****         }
 5381              		.loc 1 1322 0
 5382 0054 002C     		cmp	r4, #0
 5383 0056 14BF     		ite	ne
 5384 0058 6FF00100 		mvnne	r0, #1
 5385 005c 6FF00200 		mvneq	r0, #2
 5386 0060 EBE7     		b	.L530
 5387              	.LVL482:
 5388              	.L534:
 5389              	.LCFI91:
 5390              		.cfi_def_cfa_offset 0
 5391              		.cfi_restore 4
 5392              		.cfi_restore 14
1302:Middlewares/Third_Party/FreeRTOS/Source/CMSIS_RTOS_V2/cmsis_os2.c ****   }
 5393              		.loc 1 1302 0
 5394 0062 6FF00500 		mvn	r0, #5
 5395 0066 7047     		bx	lr
 5396              	.L535:
 5397 0068 6FF00500 		mvn	r0, #5
 5398 006c 7047     		bx	lr
 5399              	.L537:
1305:Middlewares/Third_Party/FreeRTOS/Source/CMSIS_RTOS_V2/cmsis_os2.c ****   }
 5400              		.loc 1 1305 0
 5401 006e 6FF00300 		mvn	r0, #3
 5402              		.loc 1 1329 0
 5403 0072 7047     		bx	lr
 5404              	.LVL483:
 5405              	.L538:
 5406              	.LCFI92:
 5407              		.cfi_def_cfa_offset 8
 5408              		.cfi_offset 4, -8
 5409              		.cfi_offset 14, -4
1299:Middlewares/Third_Party/FreeRTOS/Source/CMSIS_RTOS_V2/cmsis_os2.c **** 
 5410              		.loc 1 1299 0
 5411 0074 0020     		movs	r0, #0
 5412 0076 E0E7     		b	.L530
 5413              	.L540:
 5414 0078 0020     		movs	r0, #0
 5415 007a DEE7     		b	.L530
 5416              	.L548:
 5417              		.align	2
 5418              	.L547:
 5419 007c 00000000 		.word	.LANCHOR0
 5420              		.cfi_endproc
 5421              	.LFE152:
 5423              		.section	.text.osMutexRelease,"ax",%progbits
 5424              		.align	1
 5425              		.global	osMutexRelease
 5426              		.syntax unified
ARM GAS  /tmp/ccjsdB5h.s 			page 140


 5427              		.thumb
 5428              		.thumb_func
 5429              		.fpu fpv4-sp-d16
 5431              	osMutexRelease:
 5432              	.LFB153:
1330:Middlewares/Third_Party/FreeRTOS/Source/CMSIS_RTOS_V2/cmsis_os2.c **** 
1331:Middlewares/Third_Party/FreeRTOS/Source/CMSIS_RTOS_V2/cmsis_os2.c **** osStatus_t osMutexRelease (osMutexId_t mutex_id) {
 5433              		.loc 1 1331 0
 5434              		.cfi_startproc
 5435              		@ args = 0, pretend = 0, frame = 0
 5436              		@ frame_needed = 0, uses_anonymous_args = 0
 5437              	.LVL484:
 5438              	.LBB572:
 5439              	.LBB573:
 209:Drivers/CMSIS/Include/cmsis_gcc.h ****   return(result);
 5440              		.loc 2 209 0
 5441              		.syntax unified
 5442              	@ 209 "Drivers/CMSIS/Include/cmsis_gcc.h" 1
 5443 0000 EFF30582 		MRS r2, ipsr
 5444              	@ 0 "" 2
 5445              		.thumb
 5446              		.syntax unified
 5447              	.LBE573:
 5448              	.LBE572:
1332:Middlewares/Third_Party/FreeRTOS/Source/CMSIS_RTOS_V2/cmsis_os2.c ****   SemaphoreHandle_t hMutex;
1333:Middlewares/Third_Party/FreeRTOS/Source/CMSIS_RTOS_V2/cmsis_os2.c ****   osStatus_t stat;
1334:Middlewares/Third_Party/FreeRTOS/Source/CMSIS_RTOS_V2/cmsis_os2.c ****   uint32_t rmtx;
1335:Middlewares/Third_Party/FreeRTOS/Source/CMSIS_RTOS_V2/cmsis_os2.c **** 
1336:Middlewares/Third_Party/FreeRTOS/Source/CMSIS_RTOS_V2/cmsis_os2.c ****   hMutex = (SemaphoreHandle_t)((uint32_t)mutex_id & ~1U);
1337:Middlewares/Third_Party/FreeRTOS/Source/CMSIS_RTOS_V2/cmsis_os2.c **** 
1338:Middlewares/Third_Party/FreeRTOS/Source/CMSIS_RTOS_V2/cmsis_os2.c ****   rmtx = (uint32_t)mutex_id & 1U;
1339:Middlewares/Third_Party/FreeRTOS/Source/CMSIS_RTOS_V2/cmsis_os2.c **** 
1340:Middlewares/Third_Party/FreeRTOS/Source/CMSIS_RTOS_V2/cmsis_os2.c ****   stat = osOK;
1341:Middlewares/Third_Party/FreeRTOS/Source/CMSIS_RTOS_V2/cmsis_os2.c **** 
1342:Middlewares/Third_Party/FreeRTOS/Source/CMSIS_RTOS_V2/cmsis_os2.c ****   if (IS_IRQ()) {
 5449              		.loc 1 1342 0
 5450 0004 4ABB     		cbnz	r2, .L553
1331:Middlewares/Third_Party/FreeRTOS/Source/CMSIS_RTOS_V2/cmsis_os2.c ****   SemaphoreHandle_t hMutex;
 5451              		.loc 1 1331 0
 5452 0006 10B5     		push	{r4, lr}
 5453              	.LCFI93:
 5454              		.cfi_def_cfa_offset 8
 5455              		.cfi_offset 4, -8
 5456              		.cfi_offset 14, -4
 5457 0008 20F00104 		bic	r4, r0, #1
 5458              	.LVL485:
 5459 000c 00F00100 		and	r0, r0, #1
 5460              	.LVL486:
 5461              	.LBB574:
 5462              	.LBB575:
 386:Drivers/CMSIS/Include/cmsis_gcc.h ****   return(result);
 5463              		.loc 2 386 0
 5464              		.syntax unified
 5465              	@ 386 "Drivers/CMSIS/Include/cmsis_gcc.h" 1
 5466 0010 EFF31082 		MRS r2, primask
 5467              	@ 0 "" 2
 5468              		.thumb
ARM GAS  /tmp/ccjsdB5h.s 			page 141


 5469              		.syntax unified
 5470              	.LBE575:
 5471              	.LBE574:
 5472              		.loc 1 1342 0
 5473 0014 22BB     		cbnz	r2, .L554
 5474              		.loc 1 1342 0 is_stmt 0 discriminator 2
 5475 0016 154A     		ldr	r2, .L564
 5476 0018 1268     		ldr	r2, [r2]
 5477 001a 022A     		cmp	r2, #2
 5478 001c 0AD0     		beq	.L563
 5479              	.L551:
1343:Middlewares/Third_Party/FreeRTOS/Source/CMSIS_RTOS_V2/cmsis_os2.c ****     stat = osErrorISR;
1344:Middlewares/Third_Party/FreeRTOS/Source/CMSIS_RTOS_V2/cmsis_os2.c ****   }
1345:Middlewares/Third_Party/FreeRTOS/Source/CMSIS_RTOS_V2/cmsis_os2.c ****   else if (hMutex == NULL) {
 5480              		.loc 1 1345 0 is_stmt 1
 5481 001e 14B3     		cbz	r4, .L556
1346:Middlewares/Third_Party/FreeRTOS/Source/CMSIS_RTOS_V2/cmsis_os2.c ****     stat = osErrorParameter;
1347:Middlewares/Third_Party/FreeRTOS/Source/CMSIS_RTOS_V2/cmsis_os2.c ****   }
1348:Middlewares/Third_Party/FreeRTOS/Source/CMSIS_RTOS_V2/cmsis_os2.c ****   else {
1349:Middlewares/Third_Party/FreeRTOS/Source/CMSIS_RTOS_V2/cmsis_os2.c ****     if (rmtx != 0U) {
 5482              		.loc 1 1349 0
 5483 0020 78B1     		cbz	r0, .L552
1350:Middlewares/Third_Party/FreeRTOS/Source/CMSIS_RTOS_V2/cmsis_os2.c ****       if (xSemaphoreGiveRecursive (hMutex) != pdPASS) {
 5484              		.loc 1 1350 0
 5485 0022 2046     		mov	r0, r4
 5486              	.LVL487:
 5487 0024 FFF7FEFF 		bl	xQueueGiveMutexRecursive
 5488              	.LVL488:
1351:Middlewares/Third_Party/FreeRTOS/Source/CMSIS_RTOS_V2/cmsis_os2.c ****         stat = osErrorResource;
 5489              		.loc 1 1351 0
 5490 0028 0128     		cmp	r0, #1
 5491 002a 0CBF     		ite	eq
 5492 002c 0020     		moveq	r0, #0
 5493 002e 6FF00200 		mvnne	r0, #2
 5494              	.L549:
1352:Middlewares/Third_Party/FreeRTOS/Source/CMSIS_RTOS_V2/cmsis_os2.c ****       }
1353:Middlewares/Third_Party/FreeRTOS/Source/CMSIS_RTOS_V2/cmsis_os2.c ****     }
1354:Middlewares/Third_Party/FreeRTOS/Source/CMSIS_RTOS_V2/cmsis_os2.c ****     else {
1355:Middlewares/Third_Party/FreeRTOS/Source/CMSIS_RTOS_V2/cmsis_os2.c ****       if (xSemaphoreGive (hMutex) != pdPASS) {
1356:Middlewares/Third_Party/FreeRTOS/Source/CMSIS_RTOS_V2/cmsis_os2.c ****         stat = osErrorResource;
1357:Middlewares/Third_Party/FreeRTOS/Source/CMSIS_RTOS_V2/cmsis_os2.c ****       }
1358:Middlewares/Third_Party/FreeRTOS/Source/CMSIS_RTOS_V2/cmsis_os2.c ****     }
1359:Middlewares/Third_Party/FreeRTOS/Source/CMSIS_RTOS_V2/cmsis_os2.c ****   }
1360:Middlewares/Third_Party/FreeRTOS/Source/CMSIS_RTOS_V2/cmsis_os2.c **** 
1361:Middlewares/Third_Party/FreeRTOS/Source/CMSIS_RTOS_V2/cmsis_os2.c ****   return (stat);
1362:Middlewares/Third_Party/FreeRTOS/Source/CMSIS_RTOS_V2/cmsis_os2.c **** }
 5495              		.loc 1 1362 0
 5496 0032 10BD     		pop	{r4, pc}
 5497              	.LVL489:
 5498              	.L563:
 5499              	.LBB576:
 5500              	.LBB577:
 5501              		.loc 2 465 0
 5502              		.syntax unified
 5503              	@ 465 "Drivers/CMSIS/Include/cmsis_gcc.h" 1
 5504 0034 EFF31182 		MRS r2, basepri
 5505              	@ 0 "" 2
ARM GAS  /tmp/ccjsdB5h.s 			page 142


 5506              		.thumb
 5507              		.syntax unified
 5508              	.LBE577:
 5509              	.LBE576:
1342:Middlewares/Third_Party/FreeRTOS/Source/CMSIS_RTOS_V2/cmsis_os2.c ****     stat = osErrorISR;
 5510              		.loc 1 1342 0
 5511 0038 002A     		cmp	r2, #0
 5512 003a F0D0     		beq	.L551
1343:Middlewares/Third_Party/FreeRTOS/Source/CMSIS_RTOS_V2/cmsis_os2.c ****   }
 5513              		.loc 1 1343 0
 5514 003c 6FF00500 		mvn	r0, #5
 5515              	.LVL490:
 5516 0040 F7E7     		b	.L549
 5517              	.LVL491:
 5518              	.L552:
1355:Middlewares/Third_Party/FreeRTOS/Source/CMSIS_RTOS_V2/cmsis_os2.c ****         stat = osErrorResource;
 5519              		.loc 1 1355 0
 5520 0042 0023     		movs	r3, #0
 5521 0044 1A46     		mov	r2, r3
 5522 0046 1946     		mov	r1, r3
 5523 0048 2046     		mov	r0, r4
 5524              	.LVL492:
 5525 004a FFF7FEFF 		bl	xQueueGenericSend
 5526              	.LVL493:
1356:Middlewares/Third_Party/FreeRTOS/Source/CMSIS_RTOS_V2/cmsis_os2.c ****       }
 5527              		.loc 1 1356 0
 5528 004e 0128     		cmp	r0, #1
 5529 0050 0CBF     		ite	eq
 5530 0052 0020     		moveq	r0, #0
 5531 0054 6FF00200 		mvnne	r0, #2
 5532 0058 EBE7     		b	.L549
 5533              	.LVL494:
 5534              	.L553:
 5535              	.LCFI94:
 5536              		.cfi_def_cfa_offset 0
 5537              		.cfi_restore 4
 5538              		.cfi_restore 14
1343:Middlewares/Third_Party/FreeRTOS/Source/CMSIS_RTOS_V2/cmsis_os2.c ****   }
 5539              		.loc 1 1343 0
 5540 005a 6FF00500 		mvn	r0, #5
 5541              	.LVL495:
 5542              		.loc 1 1362 0
 5543 005e 7047     		bx	lr
 5544              	.LVL496:
 5545              	.L554:
 5546              	.LCFI95:
 5547              		.cfi_def_cfa_offset 8
 5548              		.cfi_offset 4, -8
 5549              		.cfi_offset 14, -4
1343:Middlewares/Third_Party/FreeRTOS/Source/CMSIS_RTOS_V2/cmsis_os2.c ****   }
 5550              		.loc 1 1343 0
 5551 0060 6FF00500 		mvn	r0, #5
 5552              	.LVL497:
 5553 0064 E5E7     		b	.L549
 5554              	.LVL498:
 5555              	.L556:
1346:Middlewares/Third_Party/FreeRTOS/Source/CMSIS_RTOS_V2/cmsis_os2.c ****   }
ARM GAS  /tmp/ccjsdB5h.s 			page 143


 5556              		.loc 1 1346 0
 5557 0066 6FF00300 		mvn	r0, #3
 5558              	.LVL499:
 5559 006a E2E7     		b	.L549
 5560              	.L565:
 5561              		.align	2
 5562              	.L564:
 5563 006c 00000000 		.word	.LANCHOR0
 5564              		.cfi_endproc
 5565              	.LFE153:
 5567              		.section	.text.osMutexGetOwner,"ax",%progbits
 5568              		.align	1
 5569              		.global	osMutexGetOwner
 5570              		.syntax unified
 5571              		.thumb
 5572              		.thumb_func
 5573              		.fpu fpv4-sp-d16
 5575              	osMutexGetOwner:
 5576              	.LFB154:
1363:Middlewares/Third_Party/FreeRTOS/Source/CMSIS_RTOS_V2/cmsis_os2.c **** 
1364:Middlewares/Third_Party/FreeRTOS/Source/CMSIS_RTOS_V2/cmsis_os2.c **** osThreadId_t osMutexGetOwner (osMutexId_t mutex_id) {
 5577              		.loc 1 1364 0
 5578              		.cfi_startproc
 5579              		@ args = 0, pretend = 0, frame = 0
 5580              		@ frame_needed = 0, uses_anonymous_args = 0
 5581              	.LVL500:
 5582 0000 08B5     		push	{r3, lr}
 5583              	.LCFI96:
 5584              		.cfi_def_cfa_offset 8
 5585              		.cfi_offset 3, -8
 5586              		.cfi_offset 14, -4
 5587              	.LVL501:
 5588              	.LBB578:
 5589              	.LBB579:
 209:Drivers/CMSIS/Include/cmsis_gcc.h ****   return(result);
 5590              		.loc 2 209 0
 5591              		.syntax unified
 5592              	@ 209 "Drivers/CMSIS/Include/cmsis_gcc.h" 1
 5593 0002 EFF30583 		MRS r3, ipsr
 5594              	@ 0 "" 2
 5595              		.thumb
 5596              		.syntax unified
 5597              	.LBE579:
 5598              	.LBE578:
1365:Middlewares/Third_Party/FreeRTOS/Source/CMSIS_RTOS_V2/cmsis_os2.c ****   SemaphoreHandle_t hMutex;
1366:Middlewares/Third_Party/FreeRTOS/Source/CMSIS_RTOS_V2/cmsis_os2.c ****   osThreadId_t owner;
1367:Middlewares/Third_Party/FreeRTOS/Source/CMSIS_RTOS_V2/cmsis_os2.c **** 
1368:Middlewares/Third_Party/FreeRTOS/Source/CMSIS_RTOS_V2/cmsis_os2.c ****   hMutex = (SemaphoreHandle_t)((uint32_t)mutex_id & ~1U);
1369:Middlewares/Third_Party/FreeRTOS/Source/CMSIS_RTOS_V2/cmsis_os2.c **** 
1370:Middlewares/Third_Party/FreeRTOS/Source/CMSIS_RTOS_V2/cmsis_os2.c ****   if (IS_IRQ() || (hMutex == NULL)) {
 5599              		.loc 1 1370 0
 5600 0006 93B9     		cbnz	r3, .L569
 5601 0008 20F00100 		bic	r0, r0, #1
 5602              	.LVL502:
 5603              	.LBB580:
 5604              	.LBB581:
 386:Drivers/CMSIS/Include/cmsis_gcc.h ****   return(result);
ARM GAS  /tmp/ccjsdB5h.s 			page 144


 5605              		.loc 2 386 0
 5606              		.syntax unified
 5607              	@ 386 "Drivers/CMSIS/Include/cmsis_gcc.h" 1
 5608 000c EFF31083 		MRS r3, primask
 5609              	@ 0 "" 2
 5610              		.thumb
 5611              		.syntax unified
 5612              	.LBE581:
 5613              	.LBE580:
 5614              		.loc 1 1370 0
 5615 0010 7BB9     		cbnz	r3, .L570
 5616              		.loc 1 1370 0 is_stmt 0 discriminator 2
 5617 0012 0A4B     		ldr	r3, .L575
 5618 0014 1B68     		ldr	r3, [r3]
 5619 0016 022B     		cmp	r3, #2
 5620 0018 03D0     		beq	.L574
 5621              	.L568:
 5622              		.loc 1 1370 0 discriminator 5
 5623 001a 60B1     		cbz	r0, .L572
1371:Middlewares/Third_Party/FreeRTOS/Source/CMSIS_RTOS_V2/cmsis_os2.c ****     owner = NULL;
1372:Middlewares/Third_Party/FreeRTOS/Source/CMSIS_RTOS_V2/cmsis_os2.c ****   } else {
1373:Middlewares/Third_Party/FreeRTOS/Source/CMSIS_RTOS_V2/cmsis_os2.c ****     owner = (osThreadId_t)xSemaphoreGetMutexHolder (hMutex);
 5624              		.loc 1 1373 0 is_stmt 1
 5625 001c FFF7FEFF 		bl	xQueueGetMutexHolder
 5626              	.LVL503:
 5627              	.L566:
1374:Middlewares/Third_Party/FreeRTOS/Source/CMSIS_RTOS_V2/cmsis_os2.c ****   }
1375:Middlewares/Third_Party/FreeRTOS/Source/CMSIS_RTOS_V2/cmsis_os2.c **** 
1376:Middlewares/Third_Party/FreeRTOS/Source/CMSIS_RTOS_V2/cmsis_os2.c ****   return (owner);
1377:Middlewares/Third_Party/FreeRTOS/Source/CMSIS_RTOS_V2/cmsis_os2.c **** }
 5628              		.loc 1 1377 0
 5629 0020 08BD     		pop	{r3, pc}
 5630              	.LVL504:
 5631              	.L574:
 5632              	.LBB582:
 5633              	.LBB583:
 5634              		.loc 2 465 0
 5635              		.syntax unified
 5636              	@ 465 "Drivers/CMSIS/Include/cmsis_gcc.h" 1
 5637 0022 EFF31183 		MRS r3, basepri
 5638              	@ 0 "" 2
 5639              		.thumb
 5640              		.syntax unified
 5641              	.LBE583:
 5642              	.LBE582:
1370:Middlewares/Third_Party/FreeRTOS/Source/CMSIS_RTOS_V2/cmsis_os2.c ****     owner = NULL;
 5643              		.loc 1 1370 0
 5644 0026 002B     		cmp	r3, #0
 5645 0028 F7D0     		beq	.L568
1371:Middlewares/Third_Party/FreeRTOS/Source/CMSIS_RTOS_V2/cmsis_os2.c ****     owner = NULL;
 5646              		.loc 1 1371 0
 5647 002a 0020     		movs	r0, #0
 5648              	.LVL505:
 5649 002c F8E7     		b	.L566
 5650              	.LVL506:
 5651              	.L569:
 5652 002e 0020     		movs	r0, #0
ARM GAS  /tmp/ccjsdB5h.s 			page 145


 5653              	.LVL507:
 5654 0030 F6E7     		b	.L566
 5655              	.LVL508:
 5656              	.L570:
 5657 0032 0020     		movs	r0, #0
 5658              	.LVL509:
 5659 0034 F4E7     		b	.L566
 5660              	.LVL510:
 5661              	.L572:
 5662 0036 0020     		movs	r0, #0
 5663              	.LVL511:
1376:Middlewares/Third_Party/FreeRTOS/Source/CMSIS_RTOS_V2/cmsis_os2.c **** }
 5664              		.loc 1 1376 0
 5665 0038 F2E7     		b	.L566
 5666              	.L576:
 5667 003a 00BF     		.align	2
 5668              	.L575:
 5669 003c 00000000 		.word	.LANCHOR0
 5670              		.cfi_endproc
 5671              	.LFE154:
 5673              		.section	.text.osMutexDelete,"ax",%progbits
 5674              		.align	1
 5675              		.global	osMutexDelete
 5676              		.syntax unified
 5677              		.thumb
 5678              		.thumb_func
 5679              		.fpu fpv4-sp-d16
 5681              	osMutexDelete:
 5682              	.LFB155:
1378:Middlewares/Third_Party/FreeRTOS/Source/CMSIS_RTOS_V2/cmsis_os2.c **** 
1379:Middlewares/Third_Party/FreeRTOS/Source/CMSIS_RTOS_V2/cmsis_os2.c **** osStatus_t osMutexDelete (osMutexId_t mutex_id) {
 5683              		.loc 1 1379 0
 5684              		.cfi_startproc
 5685              		@ args = 0, pretend = 0, frame = 0
 5686              		@ frame_needed = 0, uses_anonymous_args = 0
 5687              	.LVL512:
 5688              	.LBB584:
 5689              	.LBB585:
 209:Drivers/CMSIS/Include/cmsis_gcc.h ****   return(result);
 5690              		.loc 2 209 0
 5691              		.syntax unified
 5692              	@ 209 "Drivers/CMSIS/Include/cmsis_gcc.h" 1
 5693 0000 EFF30583 		MRS r3, ipsr
 5694              	@ 0 "" 2
 5695              		.thumb
 5696              		.syntax unified
 5697              	.LBE585:
 5698              	.LBE584:
1380:Middlewares/Third_Party/FreeRTOS/Source/CMSIS_RTOS_V2/cmsis_os2.c ****   osStatus_t stat;
1381:Middlewares/Third_Party/FreeRTOS/Source/CMSIS_RTOS_V2/cmsis_os2.c **** #ifndef USE_FreeRTOS_HEAP_1
1382:Middlewares/Third_Party/FreeRTOS/Source/CMSIS_RTOS_V2/cmsis_os2.c ****   SemaphoreHandle_t hMutex;
1383:Middlewares/Third_Party/FreeRTOS/Source/CMSIS_RTOS_V2/cmsis_os2.c **** 
1384:Middlewares/Third_Party/FreeRTOS/Source/CMSIS_RTOS_V2/cmsis_os2.c ****   hMutex = (SemaphoreHandle_t)((uint32_t)mutex_id & ~1U);
1385:Middlewares/Third_Party/FreeRTOS/Source/CMSIS_RTOS_V2/cmsis_os2.c **** 
1386:Middlewares/Third_Party/FreeRTOS/Source/CMSIS_RTOS_V2/cmsis_os2.c ****   if (IS_IRQ()) {
 5699              		.loc 1 1386 0
 5700 0004 CBB9     		cbnz	r3, .L580
ARM GAS  /tmp/ccjsdB5h.s 			page 146


1379:Middlewares/Third_Party/FreeRTOS/Source/CMSIS_RTOS_V2/cmsis_os2.c ****   osStatus_t stat;
 5701              		.loc 1 1379 0
 5702 0006 10B5     		push	{r4, lr}
 5703              	.LCFI97:
 5704              		.cfi_def_cfa_offset 8
 5705              		.cfi_offset 4, -8
 5706              		.cfi_offset 14, -4
 5707 0008 20F00104 		bic	r4, r0, #1
 5708              	.LVL513:
 5709              	.LBB586:
 5710              	.LBB587:
 386:Drivers/CMSIS/Include/cmsis_gcc.h ****   return(result);
 5711              		.loc 2 386 0
 5712              		.syntax unified
 5713              	@ 386 "Drivers/CMSIS/Include/cmsis_gcc.h" 1
 5714 000c EFF31083 		MRS r3, primask
 5715              	@ 0 "" 2
 5716              		.thumb
 5717              		.syntax unified
 5718              	.LBE587:
 5719              	.LBE586:
 5720              		.loc 1 1386 0
 5721 0010 B3B9     		cbnz	r3, .L581
 5722              		.loc 1 1386 0 is_stmt 0 discriminator 2
 5723 0012 0E4B     		ldr	r3, .L589
 5724 0014 1B68     		ldr	r3, [r3]
 5725 0016 022B     		cmp	r3, #2
 5726 0018 08D0     		beq	.L588
 5727              	.L579:
1387:Middlewares/Third_Party/FreeRTOS/Source/CMSIS_RTOS_V2/cmsis_os2.c ****     stat = osErrorISR;
1388:Middlewares/Third_Party/FreeRTOS/Source/CMSIS_RTOS_V2/cmsis_os2.c ****   }
1389:Middlewares/Third_Party/FreeRTOS/Source/CMSIS_RTOS_V2/cmsis_os2.c ****   else if (hMutex == NULL) {
 5728              		.loc 1 1389 0 is_stmt 1
 5729 001a A4B1     		cbz	r4, .L583
1390:Middlewares/Third_Party/FreeRTOS/Source/CMSIS_RTOS_V2/cmsis_os2.c ****     stat = osErrorParameter;
1391:Middlewares/Third_Party/FreeRTOS/Source/CMSIS_RTOS_V2/cmsis_os2.c ****   }
1392:Middlewares/Third_Party/FreeRTOS/Source/CMSIS_RTOS_V2/cmsis_os2.c ****   else {
1393:Middlewares/Third_Party/FreeRTOS/Source/CMSIS_RTOS_V2/cmsis_os2.c ****     #if (configQUEUE_REGISTRY_SIZE > 0)
1394:Middlewares/Third_Party/FreeRTOS/Source/CMSIS_RTOS_V2/cmsis_os2.c ****     vQueueUnregisterQueue (hMutex);
 5730              		.loc 1 1394 0
 5731 001c 2046     		mov	r0, r4
 5732              	.LVL514:
 5733 001e FFF7FEFF 		bl	vQueueUnregisterQueue
 5734              	.LVL515:
1395:Middlewares/Third_Party/FreeRTOS/Source/CMSIS_RTOS_V2/cmsis_os2.c ****     #endif
1396:Middlewares/Third_Party/FreeRTOS/Source/CMSIS_RTOS_V2/cmsis_os2.c ****     stat = osOK;
1397:Middlewares/Third_Party/FreeRTOS/Source/CMSIS_RTOS_V2/cmsis_os2.c ****     vSemaphoreDelete (hMutex);
 5735              		.loc 1 1397 0
 5736 0022 2046     		mov	r0, r4
 5737 0024 FFF7FEFF 		bl	vQueueDelete
 5738              	.LVL516:
1396:Middlewares/Third_Party/FreeRTOS/Source/CMSIS_RTOS_V2/cmsis_os2.c ****     vSemaphoreDelete (hMutex);
 5739              		.loc 1 1396 0
 5740 0028 0020     		movs	r0, #0
 5741              	.LVL517:
 5742              	.L577:
1398:Middlewares/Third_Party/FreeRTOS/Source/CMSIS_RTOS_V2/cmsis_os2.c ****   }
ARM GAS  /tmp/ccjsdB5h.s 			page 147


1399:Middlewares/Third_Party/FreeRTOS/Source/CMSIS_RTOS_V2/cmsis_os2.c **** #else
1400:Middlewares/Third_Party/FreeRTOS/Source/CMSIS_RTOS_V2/cmsis_os2.c ****   stat = osError;
1401:Middlewares/Third_Party/FreeRTOS/Source/CMSIS_RTOS_V2/cmsis_os2.c **** #endif
1402:Middlewares/Third_Party/FreeRTOS/Source/CMSIS_RTOS_V2/cmsis_os2.c **** 
1403:Middlewares/Third_Party/FreeRTOS/Source/CMSIS_RTOS_V2/cmsis_os2.c ****   return (stat);
1404:Middlewares/Third_Party/FreeRTOS/Source/CMSIS_RTOS_V2/cmsis_os2.c **** }
 5743              		.loc 1 1404 0
 5744 002a 10BD     		pop	{r4, pc}
 5745              	.LVL518:
 5746              	.L588:
 5747              	.LBB588:
 5748              	.LBB589:
 5749              		.loc 2 465 0
 5750              		.syntax unified
 5751              	@ 465 "Drivers/CMSIS/Include/cmsis_gcc.h" 1
 5752 002c EFF31183 		MRS r3, basepri
 5753              	@ 0 "" 2
 5754              		.thumb
 5755              		.syntax unified
 5756              	.LBE589:
 5757              	.LBE588:
1386:Middlewares/Third_Party/FreeRTOS/Source/CMSIS_RTOS_V2/cmsis_os2.c ****     stat = osErrorISR;
 5758              		.loc 1 1386 0
 5759 0030 002B     		cmp	r3, #0
 5760 0032 F2D0     		beq	.L579
1387:Middlewares/Third_Party/FreeRTOS/Source/CMSIS_RTOS_V2/cmsis_os2.c ****   }
 5761              		.loc 1 1387 0
 5762 0034 6FF00500 		mvn	r0, #5
 5763              	.LVL519:
 5764 0038 F7E7     		b	.L577
 5765              	.LVL520:
 5766              	.L580:
 5767              	.LCFI98:
 5768              		.cfi_def_cfa_offset 0
 5769              		.cfi_restore 4
 5770              		.cfi_restore 14
 5771 003a 6FF00500 		mvn	r0, #5
 5772              	.LVL521:
 5773              		.loc 1 1404 0
 5774 003e 7047     		bx	lr
 5775              	.LVL522:
 5776              	.L581:
 5777              	.LCFI99:
 5778              		.cfi_def_cfa_offset 8
 5779              		.cfi_offset 4, -8
 5780              		.cfi_offset 14, -4
1387:Middlewares/Third_Party/FreeRTOS/Source/CMSIS_RTOS_V2/cmsis_os2.c ****   }
 5781              		.loc 1 1387 0
 5782 0040 6FF00500 		mvn	r0, #5
 5783              	.LVL523:
 5784 0044 F1E7     		b	.L577
 5785              	.LVL524:
 5786              	.L583:
1390:Middlewares/Third_Party/FreeRTOS/Source/CMSIS_RTOS_V2/cmsis_os2.c ****   }
 5787              		.loc 1 1390 0
 5788 0046 6FF00300 		mvn	r0, #3
 5789              	.LVL525:
ARM GAS  /tmp/ccjsdB5h.s 			page 148


1403:Middlewares/Third_Party/FreeRTOS/Source/CMSIS_RTOS_V2/cmsis_os2.c **** }
 5790              		.loc 1 1403 0
 5791 004a EEE7     		b	.L577
 5792              	.L590:
 5793              		.align	2
 5794              	.L589:
 5795 004c 00000000 		.word	.LANCHOR0
 5796              		.cfi_endproc
 5797              	.LFE155:
 5799              		.section	.text.osSemaphoreNew,"ax",%progbits
 5800              		.align	1
 5801              		.global	osSemaphoreNew
 5802              		.syntax unified
 5803              		.thumb
 5804              		.thumb_func
 5805              		.fpu fpv4-sp-d16
 5807              	osSemaphoreNew:
 5808              	.LFB156:
1405:Middlewares/Third_Party/FreeRTOS/Source/CMSIS_RTOS_V2/cmsis_os2.c **** 
1406:Middlewares/Third_Party/FreeRTOS/Source/CMSIS_RTOS_V2/cmsis_os2.c **** /*---------------------------------------------------------------------------*/
1407:Middlewares/Third_Party/FreeRTOS/Source/CMSIS_RTOS_V2/cmsis_os2.c **** 
1408:Middlewares/Third_Party/FreeRTOS/Source/CMSIS_RTOS_V2/cmsis_os2.c **** osSemaphoreId_t osSemaphoreNew (uint32_t max_count, uint32_t initial_count, const osSemaphoreAttr_t
 5809              		.loc 1 1408 0
 5810              		.cfi_startproc
 5811              		@ args = 0, pretend = 0, frame = 0
 5812              		@ frame_needed = 0, uses_anonymous_args = 0
 5813              	.LVL526:
 5814 0000 70B5     		push	{r4, r5, r6, lr}
 5815              	.LCFI100:
 5816              		.cfi_def_cfa_offset 16
 5817              		.cfi_offset 4, -16
 5818              		.cfi_offset 5, -12
 5819              		.cfi_offset 6, -8
 5820              		.cfi_offset 14, -4
 5821 0002 82B0     		sub	sp, sp, #8
 5822              	.LCFI101:
 5823              		.cfi_def_cfa_offset 24
 5824              	.LVL527:
 5825              	.LBB590:
 5826              	.LBB591:
 209:Drivers/CMSIS/Include/cmsis_gcc.h ****   return(result);
 5827              		.loc 2 209 0
 5828              		.syntax unified
 5829              	@ 209 "Drivers/CMSIS/Include/cmsis_gcc.h" 1
 5830 0004 EFF30583 		MRS r3, ipsr
 5831              	@ 0 "" 2
 5832              		.thumb
 5833              		.syntax unified
 5834              	.LBE591:
 5835              	.LBE590:
1409:Middlewares/Third_Party/FreeRTOS/Source/CMSIS_RTOS_V2/cmsis_os2.c ****   SemaphoreHandle_t hSemaphore;
1410:Middlewares/Third_Party/FreeRTOS/Source/CMSIS_RTOS_V2/cmsis_os2.c ****   int32_t mem;
1411:Middlewares/Third_Party/FreeRTOS/Source/CMSIS_RTOS_V2/cmsis_os2.c ****   #if (configQUEUE_REGISTRY_SIZE > 0)
1412:Middlewares/Third_Party/FreeRTOS/Source/CMSIS_RTOS_V2/cmsis_os2.c ****   const char *name;
1413:Middlewares/Third_Party/FreeRTOS/Source/CMSIS_RTOS_V2/cmsis_os2.c ****   #endif
1414:Middlewares/Third_Party/FreeRTOS/Source/CMSIS_RTOS_V2/cmsis_os2.c **** 
1415:Middlewares/Third_Party/FreeRTOS/Source/CMSIS_RTOS_V2/cmsis_os2.c ****   hSemaphore = NULL;
ARM GAS  /tmp/ccjsdB5h.s 			page 149


1416:Middlewares/Third_Party/FreeRTOS/Source/CMSIS_RTOS_V2/cmsis_os2.c **** 
1417:Middlewares/Third_Party/FreeRTOS/Source/CMSIS_RTOS_V2/cmsis_os2.c ****   if (!IS_IRQ() && (max_count > 0U) && (initial_count <= max_count)) {
 5836              		.loc 1 1417 0
 5837 0008 002B     		cmp	r3, #0
 5838 000a 43D1     		bne	.L607
 5839              	.LBB592:
 5840              	.LBB593:
 386:Drivers/CMSIS/Include/cmsis_gcc.h ****   return(result);
 5841              		.loc 2 386 0
 5842              		.syntax unified
 5843              	@ 386 "Drivers/CMSIS/Include/cmsis_gcc.h" 1
 5844 000c EFF31083 		MRS r3, primask
 5845              	@ 0 "" 2
 5846              		.thumb
 5847              		.syntax unified
 5848              	.LBE593:
 5849              	.LBE592:
 5850              		.loc 1 1417 0
 5851 0010 002B     		cmp	r3, #0
 5852 0012 41D1     		bne	.L608
 5853              		.loc 1 1417 0 is_stmt 0 discriminator 2
 5854 0014 2F4B     		ldr	r3, .L617
 5855 0016 1B68     		ldr	r3, [r3]
 5856 0018 022B     		cmp	r3, #2
 5857 001a 0ED0     		beq	.L615
 5858              	.L593:
 5859              		.loc 1 1417 0 discriminator 5
 5860 001c 0028     		cmp	r0, #0
 5861 001e 3DD0     		beq	.L610
 5862              		.loc 1 1417 0 discriminator 6
 5863 0020 8842     		cmp	r0, r1
 5864 0022 3DD3     		bcc	.L611
 5865 0024 1446     		mov	r4, r2
 5866 0026 0E46     		mov	r6, r1
 5867              	.LVL528:
1418:Middlewares/Third_Party/FreeRTOS/Source/CMSIS_RTOS_V2/cmsis_os2.c ****     mem = -1;
1419:Middlewares/Third_Party/FreeRTOS/Source/CMSIS_RTOS_V2/cmsis_os2.c **** 
1420:Middlewares/Third_Party/FreeRTOS/Source/CMSIS_RTOS_V2/cmsis_os2.c ****     if (attr != NULL) {
 5868              		.loc 1 1420 0 is_stmt 1
 5869 0028 002A     		cmp	r2, #0
 5870 002a 42D0     		beq	.L594
1421:Middlewares/Third_Party/FreeRTOS/Source/CMSIS_RTOS_V2/cmsis_os2.c ****       if ((attr->cb_mem != NULL) && (attr->cb_size >= sizeof(StaticSemaphore_t))) {
 5871              		.loc 1 1421 0
 5872 002c 9268     		ldr	r2, [r2, #8]
 5873              	.LVL529:
 5874 002e 52B1     		cbz	r2, .L595
 5875              		.loc 1 1421 0 is_stmt 0 discriminator 1
 5876 0030 E368     		ldr	r3, [r4, #12]
 5877 0032 4F2B     		cmp	r3, #79
 5878 0034 36D8     		bhi	.L596
1415:Middlewares/Third_Party/FreeRTOS/Source/CMSIS_RTOS_V2/cmsis_os2.c **** 
 5879              		.loc 1 1415 0 is_stmt 1
 5880 0036 0025     		movs	r5, #0
 5881 0038 48E0     		b	.L591
 5882              	.LVL530:
 5883              	.L615:
 5884              	.LBB594:
ARM GAS  /tmp/ccjsdB5h.s 			page 150


 5885              	.LBB595:
 5886              		.loc 2 465 0
 5887              		.syntax unified
 5888              	@ 465 "Drivers/CMSIS/Include/cmsis_gcc.h" 1
 5889 003a EFF31183 		MRS r3, basepri
 5890              	@ 0 "" 2
 5891              		.thumb
 5892              		.syntax unified
 5893              	.LBE595:
 5894              	.LBE594:
1417:Middlewares/Third_Party/FreeRTOS/Source/CMSIS_RTOS_V2/cmsis_os2.c ****     mem = -1;
 5895              		.loc 1 1417 0
 5896 003e 002B     		cmp	r3, #0
 5897 0040 ECD0     		beq	.L593
1415:Middlewares/Third_Party/FreeRTOS/Source/CMSIS_RTOS_V2/cmsis_os2.c **** 
 5898              		.loc 1 1415 0
 5899 0042 0025     		movs	r5, #0
 5900 0044 42E0     		b	.L591
 5901              	.LVL531:
 5902              	.L595:
1422:Middlewares/Third_Party/FreeRTOS/Source/CMSIS_RTOS_V2/cmsis_os2.c ****         mem = 1;
1423:Middlewares/Third_Party/FreeRTOS/Source/CMSIS_RTOS_V2/cmsis_os2.c ****       }
1424:Middlewares/Third_Party/FreeRTOS/Source/CMSIS_RTOS_V2/cmsis_os2.c ****       else {
1425:Middlewares/Third_Party/FreeRTOS/Source/CMSIS_RTOS_V2/cmsis_os2.c ****         if ((attr->cb_mem == NULL) && (attr->cb_size == 0U)) {
 5903              		.loc 1 1425 0 discriminator 1
 5904 0046 E368     		ldr	r3, [r4, #12]
1415:Middlewares/Third_Party/FreeRTOS/Source/CMSIS_RTOS_V2/cmsis_os2.c **** 
 5905              		.loc 1 1415 0 discriminator 1
 5906 0048 0025     		movs	r5, #0
 5907              		.loc 1 1425 0 discriminator 1
 5908 004a 002B     		cmp	r3, #0
 5909 004c 3ED1     		bne	.L591
1426:Middlewares/Third_Party/FreeRTOS/Source/CMSIS_RTOS_V2/cmsis_os2.c ****           mem = 0;
1427:Middlewares/Third_Party/FreeRTOS/Source/CMSIS_RTOS_V2/cmsis_os2.c ****         }
1428:Middlewares/Third_Party/FreeRTOS/Source/CMSIS_RTOS_V2/cmsis_os2.c ****       }
1429:Middlewares/Third_Party/FreeRTOS/Source/CMSIS_RTOS_V2/cmsis_os2.c ****     }
1430:Middlewares/Third_Party/FreeRTOS/Source/CMSIS_RTOS_V2/cmsis_os2.c ****     else {
1431:Middlewares/Third_Party/FreeRTOS/Source/CMSIS_RTOS_V2/cmsis_os2.c ****       mem = 0;
1432:Middlewares/Third_Party/FreeRTOS/Source/CMSIS_RTOS_V2/cmsis_os2.c ****     }
1433:Middlewares/Third_Party/FreeRTOS/Source/CMSIS_RTOS_V2/cmsis_os2.c **** 
1434:Middlewares/Third_Party/FreeRTOS/Source/CMSIS_RTOS_V2/cmsis_os2.c ****     if (mem != -1) {
1435:Middlewares/Third_Party/FreeRTOS/Source/CMSIS_RTOS_V2/cmsis_os2.c ****       if (max_count == 1U) {
 5910              		.loc 1 1435 0
 5911 004e 0128     		cmp	r0, #1
 5912 0050 31D1     		bne	.L604
 5913              	.L603:
1436:Middlewares/Third_Party/FreeRTOS/Source/CMSIS_RTOS_V2/cmsis_os2.c ****         if (mem == 1) {
1437:Middlewares/Third_Party/FreeRTOS/Source/CMSIS_RTOS_V2/cmsis_os2.c ****           hSemaphore = xSemaphoreCreateBinaryStatic ((StaticSemaphore_t *)attr->cb_mem);
1438:Middlewares/Third_Party/FreeRTOS/Source/CMSIS_RTOS_V2/cmsis_os2.c ****         }
1439:Middlewares/Third_Party/FreeRTOS/Source/CMSIS_RTOS_V2/cmsis_os2.c ****         else {
1440:Middlewares/Third_Party/FreeRTOS/Source/CMSIS_RTOS_V2/cmsis_os2.c ****           hSemaphore = xSemaphoreCreateBinary();
 5914              		.loc 1 1440 0
 5915 0052 0322     		movs	r2, #3
 5916 0054 0021     		movs	r1, #0
 5917              	.LVL532:
 5918 0056 0120     		movs	r0, #1
 5919              	.LVL533:
ARM GAS  /tmp/ccjsdB5h.s 			page 151


 5920 0058 FFF7FEFF 		bl	xQueueGenericCreate
 5921              	.LVL534:
 5922 005c 0546     		mov	r5, r0
 5923              	.LVL535:
 5924              	.L598:
1441:Middlewares/Third_Party/FreeRTOS/Source/CMSIS_RTOS_V2/cmsis_os2.c ****         }
1442:Middlewares/Third_Party/FreeRTOS/Source/CMSIS_RTOS_V2/cmsis_os2.c **** 
1443:Middlewares/Third_Party/FreeRTOS/Source/CMSIS_RTOS_V2/cmsis_os2.c ****         if ((hSemaphore != NULL) && (initial_count != 0U)) {
 5925              		.loc 1 1443 0
 5926 005e ADB3     		cbz	r5, .L591
 5927              		.loc 1 1443 0 is_stmt 0 discriminator 1
 5928 0060 76B3     		cbz	r6, .L605
1444:Middlewares/Third_Party/FreeRTOS/Source/CMSIS_RTOS_V2/cmsis_os2.c ****           if (xSemaphoreGive (hSemaphore) != pdPASS) {
 5929              		.loc 1 1444 0 is_stmt 1
 5930 0062 0023     		movs	r3, #0
 5931 0064 1A46     		mov	r2, r3
 5932 0066 1946     		mov	r1, r3
 5933 0068 2846     		mov	r0, r5
 5934 006a FFF7FEFF 		bl	xQueueGenericSend
 5935              	.LVL536:
 5936 006e 0128     		cmp	r0, #1
 5937 0070 26D0     		beq	.L605
1445:Middlewares/Third_Party/FreeRTOS/Source/CMSIS_RTOS_V2/cmsis_os2.c ****             vSemaphoreDelete (hSemaphore);
 5938              		.loc 1 1445 0
 5939 0072 2846     		mov	r0, r5
 5940 0074 FFF7FEFF 		bl	vQueueDelete
 5941              	.LVL537:
1446:Middlewares/Third_Party/FreeRTOS/Source/CMSIS_RTOS_V2/cmsis_os2.c ****             hSemaphore = NULL;
 5942              		.loc 1 1446 0
 5943 0078 0025     		movs	r5, #0
 5944 007a 27E0     		b	.L591
 5945              	.LVL538:
 5946              	.L616:
1437:Middlewares/Third_Party/FreeRTOS/Source/CMSIS_RTOS_V2/cmsis_os2.c ****         }
 5947              		.loc 1 1437 0
 5948 007c 0323     		movs	r3, #3
 5949 007e 0093     		str	r3, [sp]
 5950 0080 1346     		mov	r3, r2
 5951 0082 0022     		movs	r2, #0
 5952 0084 1146     		mov	r1, r2
 5953              	.LVL539:
 5954 0086 0120     		movs	r0, #1
 5955              	.LVL540:
 5956 0088 FFF7FEFF 		bl	xQueueGenericCreateStatic
 5957              	.LVL541:
 5958 008c 0546     		mov	r5, r0
 5959              	.LVL542:
 5960 008e E6E7     		b	.L598
 5961              	.LVL543:
 5962              	.L612:
1447:Middlewares/Third_Party/FreeRTOS/Source/CMSIS_RTOS_V2/cmsis_os2.c ****           }
1448:Middlewares/Third_Party/FreeRTOS/Source/CMSIS_RTOS_V2/cmsis_os2.c ****         }
1449:Middlewares/Third_Party/FreeRTOS/Source/CMSIS_RTOS_V2/cmsis_os2.c ****       }
1450:Middlewares/Third_Party/FreeRTOS/Source/CMSIS_RTOS_V2/cmsis_os2.c ****       else {
1451:Middlewares/Third_Party/FreeRTOS/Source/CMSIS_RTOS_V2/cmsis_os2.c ****         if (mem == 1) {
1452:Middlewares/Third_Party/FreeRTOS/Source/CMSIS_RTOS_V2/cmsis_os2.c ****           hSemaphore = xSemaphoreCreateCountingStatic (max_count, initial_count, (StaticSemaphore_t
1453:Middlewares/Third_Party/FreeRTOS/Source/CMSIS_RTOS_V2/cmsis_os2.c ****         }
ARM GAS  /tmp/ccjsdB5h.s 			page 152


1454:Middlewares/Third_Party/FreeRTOS/Source/CMSIS_RTOS_V2/cmsis_os2.c ****         else {
1455:Middlewares/Third_Party/FreeRTOS/Source/CMSIS_RTOS_V2/cmsis_os2.c ****           hSemaphore = xSemaphoreCreateCounting (max_count, initial_count);
1456:Middlewares/Third_Party/FreeRTOS/Source/CMSIS_RTOS_V2/cmsis_os2.c ****         }
1457:Middlewares/Third_Party/FreeRTOS/Source/CMSIS_RTOS_V2/cmsis_os2.c ****       }
1458:Middlewares/Third_Party/FreeRTOS/Source/CMSIS_RTOS_V2/cmsis_os2.c **** 
1459:Middlewares/Third_Party/FreeRTOS/Source/CMSIS_RTOS_V2/cmsis_os2.c ****       #if (configQUEUE_REGISTRY_SIZE > 0)
1460:Middlewares/Third_Party/FreeRTOS/Source/CMSIS_RTOS_V2/cmsis_os2.c ****       if (hSemaphore != NULL) {
1461:Middlewares/Third_Party/FreeRTOS/Source/CMSIS_RTOS_V2/cmsis_os2.c ****         if (attr != NULL) {
1462:Middlewares/Third_Party/FreeRTOS/Source/CMSIS_RTOS_V2/cmsis_os2.c ****           name = attr->name;
1463:Middlewares/Third_Party/FreeRTOS/Source/CMSIS_RTOS_V2/cmsis_os2.c ****         } else {
1464:Middlewares/Third_Party/FreeRTOS/Source/CMSIS_RTOS_V2/cmsis_os2.c ****           name = NULL;
 5963              		.loc 1 1464 0
 5964 0090 0021     		movs	r1, #0
 5965 0092 18E0     		b	.L600
 5966              	.LVL544:
 5967              	.L607:
1415:Middlewares/Third_Party/FreeRTOS/Source/CMSIS_RTOS_V2/cmsis_os2.c **** 
 5968              		.loc 1 1415 0
 5969 0094 0025     		movs	r5, #0
 5970 0096 19E0     		b	.L591
 5971              	.L608:
 5972 0098 0025     		movs	r5, #0
 5973 009a 17E0     		b	.L591
 5974              	.L610:
 5975 009c 0025     		movs	r5, #0
 5976 009e 15E0     		b	.L591
 5977              	.L611:
 5978 00a0 0025     		movs	r5, #0
1465:Middlewares/Third_Party/FreeRTOS/Source/CMSIS_RTOS_V2/cmsis_os2.c ****         }
1466:Middlewares/Third_Party/FreeRTOS/Source/CMSIS_RTOS_V2/cmsis_os2.c ****         vQueueAddToRegistry (hSemaphore, name);
1467:Middlewares/Third_Party/FreeRTOS/Source/CMSIS_RTOS_V2/cmsis_os2.c ****       }
1468:Middlewares/Third_Party/FreeRTOS/Source/CMSIS_RTOS_V2/cmsis_os2.c ****       #endif
1469:Middlewares/Third_Party/FreeRTOS/Source/CMSIS_RTOS_V2/cmsis_os2.c ****     }
1470:Middlewares/Third_Party/FreeRTOS/Source/CMSIS_RTOS_V2/cmsis_os2.c ****   }
1471:Middlewares/Third_Party/FreeRTOS/Source/CMSIS_RTOS_V2/cmsis_os2.c **** 
1472:Middlewares/Third_Party/FreeRTOS/Source/CMSIS_RTOS_V2/cmsis_os2.c ****   return ((osSemaphoreId_t)hSemaphore);
 5979              		.loc 1 1472 0
 5980 00a2 13E0     		b	.L591
 5981              	.LVL545:
 5982              	.L596:
1435:Middlewares/Third_Party/FreeRTOS/Source/CMSIS_RTOS_V2/cmsis_os2.c ****         if (mem == 1) {
 5983              		.loc 1 1435 0
 5984 00a4 0128     		cmp	r0, #1
 5985 00a6 E9D0     		beq	.L616
1452:Middlewares/Third_Party/FreeRTOS/Source/CMSIS_RTOS_V2/cmsis_os2.c ****         }
 5986              		.loc 1 1452 0
 5987 00a8 FFF7FEFF 		bl	xQueueCreateCountingSemaphoreStatic
 5988              	.LVL546:
1460:Middlewares/Third_Party/FreeRTOS/Source/CMSIS_RTOS_V2/cmsis_os2.c ****         if (attr != NULL) {
 5989              		.loc 1 1460 0
 5990 00ac 0546     		mov	r5, r0
 5991 00ae 48B9     		cbnz	r0, .L606
 5992 00b0 0CE0     		b	.L591
 5993              	.LVL547:
 5994              	.L594:
1435:Middlewares/Third_Party/FreeRTOS/Source/CMSIS_RTOS_V2/cmsis_os2.c ****         if (mem == 1) {
 5995              		.loc 1 1435 0
ARM GAS  /tmp/ccjsdB5h.s 			page 153


 5996 00b2 0128     		cmp	r0, #1
 5997 00b4 CDD0     		beq	.L603
 5998              	.LVL548:
 5999              	.L604:
1455:Middlewares/Third_Party/FreeRTOS/Source/CMSIS_RTOS_V2/cmsis_os2.c ****         }
 6000              		.loc 1 1455 0
 6001 00b6 3146     		mov	r1, r6
 6002              	.LVL549:
 6003 00b8 FFF7FEFF 		bl	xQueueCreateCountingSemaphore
 6004              	.LVL550:
1460:Middlewares/Third_Party/FreeRTOS/Source/CMSIS_RTOS_V2/cmsis_os2.c ****         if (attr != NULL) {
 6005              		.loc 1 1460 0
 6006 00bc 0546     		mov	r5, r0
 6007 00be 28B1     		cbz	r0, .L591
 6008              	.LVL551:
 6009              	.L605:
1461:Middlewares/Third_Party/FreeRTOS/Source/CMSIS_RTOS_V2/cmsis_os2.c ****           name = attr->name;
 6010              		.loc 1 1461 0
 6011 00c0 002C     		cmp	r4, #0
 6012 00c2 E5D0     		beq	.L612
 6013              	.L606:
1462:Middlewares/Third_Party/FreeRTOS/Source/CMSIS_RTOS_V2/cmsis_os2.c ****         } else {
 6014              		.loc 1 1462 0
 6015 00c4 2168     		ldr	r1, [r4]
 6016              	.LVL552:
 6017              	.L600:
1466:Middlewares/Third_Party/FreeRTOS/Source/CMSIS_RTOS_V2/cmsis_os2.c ****       }
 6018              		.loc 1 1466 0
 6019 00c6 2846     		mov	r0, r5
 6020 00c8 FFF7FEFF 		bl	vQueueAddToRegistry
 6021              	.LVL553:
 6022              	.L591:
1473:Middlewares/Third_Party/FreeRTOS/Source/CMSIS_RTOS_V2/cmsis_os2.c **** }
 6023              		.loc 1 1473 0
 6024 00cc 2846     		mov	r0, r5
 6025 00ce 02B0     		add	sp, sp, #8
 6026              	.LCFI102:
 6027              		.cfi_def_cfa_offset 16
 6028              		@ sp needed
 6029 00d0 70BD     		pop	{r4, r5, r6, pc}
 6030              	.L618:
 6031 00d2 00BF     		.align	2
 6032              	.L617:
 6033 00d4 00000000 		.word	.LANCHOR0
 6034              		.cfi_endproc
 6035              	.LFE156:
 6037              		.section	.text.osSemaphoreAcquire,"ax",%progbits
 6038              		.align	1
 6039              		.global	osSemaphoreAcquire
 6040              		.syntax unified
 6041              		.thumb
 6042              		.thumb_func
 6043              		.fpu fpv4-sp-d16
 6045              	osSemaphoreAcquire:
 6046              	.LFB157:
1474:Middlewares/Third_Party/FreeRTOS/Source/CMSIS_RTOS_V2/cmsis_os2.c **** 
1475:Middlewares/Third_Party/FreeRTOS/Source/CMSIS_RTOS_V2/cmsis_os2.c **** osStatus_t osSemaphoreAcquire (osSemaphoreId_t semaphore_id, uint32_t timeout) {
ARM GAS  /tmp/ccjsdB5h.s 			page 154


 6047              		.loc 1 1475 0
 6048              		.cfi_startproc
 6049              		@ args = 0, pretend = 0, frame = 8
 6050              		@ frame_needed = 0, uses_anonymous_args = 0
 6051              	.LVL554:
1476:Middlewares/Third_Party/FreeRTOS/Source/CMSIS_RTOS_V2/cmsis_os2.c ****   SemaphoreHandle_t hSemaphore = (SemaphoreHandle_t)semaphore_id;
1477:Middlewares/Third_Party/FreeRTOS/Source/CMSIS_RTOS_V2/cmsis_os2.c ****   osStatus_t stat;
1478:Middlewares/Third_Party/FreeRTOS/Source/CMSIS_RTOS_V2/cmsis_os2.c ****   BaseType_t yield;
1479:Middlewares/Third_Party/FreeRTOS/Source/CMSIS_RTOS_V2/cmsis_os2.c **** 
1480:Middlewares/Third_Party/FreeRTOS/Source/CMSIS_RTOS_V2/cmsis_os2.c ****   stat = osOK;
1481:Middlewares/Third_Party/FreeRTOS/Source/CMSIS_RTOS_V2/cmsis_os2.c **** 
1482:Middlewares/Third_Party/FreeRTOS/Source/CMSIS_RTOS_V2/cmsis_os2.c ****   if (hSemaphore == NULL) {
 6052              		.loc 1 1482 0
 6053 0000 88B3     		cbz	r0, .L623
1475:Middlewares/Third_Party/FreeRTOS/Source/CMSIS_RTOS_V2/cmsis_os2.c ****   SemaphoreHandle_t hSemaphore = (SemaphoreHandle_t)semaphore_id;
 6054              		.loc 1 1475 0
 6055 0002 10B5     		push	{r4, lr}
 6056              	.LCFI103:
 6057              		.cfi_def_cfa_offset 8
 6058              		.cfi_offset 4, -8
 6059              		.cfi_offset 14, -4
 6060 0004 82B0     		sub	sp, sp, #8
 6061              	.LCFI104:
 6062              		.cfi_def_cfa_offset 16
 6063 0006 0C46     		mov	r4, r1
 6064              	.LBB596:
 6065              	.LBB597:
 209:Drivers/CMSIS/Include/cmsis_gcc.h ****   return(result);
 6066              		.loc 2 209 0
 6067              		.syntax unified
 6068              	@ 209 "Drivers/CMSIS/Include/cmsis_gcc.h" 1
 6069 0008 EFF30583 		MRS r3, ipsr
 6070              	@ 0 "" 2
 6071              		.thumb
 6072              		.syntax unified
 6073              	.LBE597:
 6074              	.LBE596:
1483:Middlewares/Third_Party/FreeRTOS/Source/CMSIS_RTOS_V2/cmsis_os2.c ****     stat = osErrorParameter;
1484:Middlewares/Third_Party/FreeRTOS/Source/CMSIS_RTOS_V2/cmsis_os2.c ****   }
1485:Middlewares/Third_Party/FreeRTOS/Source/CMSIS_RTOS_V2/cmsis_os2.c ****   else if (IS_IRQ()) {
 6075              		.loc 1 1485 0
 6076 000c 4BB9     		cbnz	r3, .L621
 6077              	.LBB598:
 6078              	.LBB599:
 386:Drivers/CMSIS/Include/cmsis_gcc.h ****   return(result);
 6079              		.loc 2 386 0
 6080              		.syntax unified
 6081              	@ 386 "Drivers/CMSIS/Include/cmsis_gcc.h" 1
 6082 000e EFF31083 		MRS r3, primask
 6083              	@ 0 "" 2
 6084              		.thumb
 6085              		.syntax unified
 6086              	.LBE599:
 6087              	.LBE598:
 6088              		.loc 1 1485 0
 6089 0012 33B9     		cbnz	r3, .L621
 6090              		.loc 1 1485 0 is_stmt 0 discriminator 2
ARM GAS  /tmp/ccjsdB5h.s 			page 155


 6091 0014 1A4B     		ldr	r3, .L633
 6092 0016 1B68     		ldr	r3, [r3]
 6093 0018 022B     		cmp	r3, #2
 6094 001a 18D1     		bne	.L622
 6095              	.LBB600:
 6096              	.LBB601:
 6097              		.loc 2 465 0 is_stmt 1
 6098              		.syntax unified
 6099              	@ 465 "Drivers/CMSIS/Include/cmsis_gcc.h" 1
 6100 001c EFF31183 		MRS r3, basepri
 6101              	@ 0 "" 2
 6102              		.thumb
 6103              		.syntax unified
 6104              	.LBE601:
 6105              	.LBE600:
 6106              		.loc 1 1485 0
 6107 0020 ABB1     		cbz	r3, .L622
 6108              	.L621:
1486:Middlewares/Third_Party/FreeRTOS/Source/CMSIS_RTOS_V2/cmsis_os2.c ****     if (timeout != 0U) {
 6109              		.loc 1 1486 0
 6110 0022 1CBB     		cbnz	r4, .L624
1487:Middlewares/Third_Party/FreeRTOS/Source/CMSIS_RTOS_V2/cmsis_os2.c ****       stat = osErrorParameter;
1488:Middlewares/Third_Party/FreeRTOS/Source/CMSIS_RTOS_V2/cmsis_os2.c ****     }
1489:Middlewares/Third_Party/FreeRTOS/Source/CMSIS_RTOS_V2/cmsis_os2.c ****     else {
1490:Middlewares/Third_Party/FreeRTOS/Source/CMSIS_RTOS_V2/cmsis_os2.c ****       yield = pdFALSE;
 6111              		.loc 1 1490 0
 6112 0024 0021     		movs	r1, #0
 6113              	.LVL555:
 6114 0026 02AA     		add	r2, sp, #8
 6115 0028 42F8041D 		str	r1, [r2, #-4]!
1491:Middlewares/Third_Party/FreeRTOS/Source/CMSIS_RTOS_V2/cmsis_os2.c **** 
1492:Middlewares/Third_Party/FreeRTOS/Source/CMSIS_RTOS_V2/cmsis_os2.c ****       if (xSemaphoreTakeFromISR (hSemaphore, &yield) != pdPASS) {
 6116              		.loc 1 1492 0
 6117 002c FFF7FEFF 		bl	xQueueReceiveFromISR
 6118              	.LVL556:
 6119 0030 0128     		cmp	r0, #1
 6120 0032 1ED1     		bne	.L625
1493:Middlewares/Third_Party/FreeRTOS/Source/CMSIS_RTOS_V2/cmsis_os2.c ****         stat = osErrorResource;
1494:Middlewares/Third_Party/FreeRTOS/Source/CMSIS_RTOS_V2/cmsis_os2.c ****       } else {
1495:Middlewares/Third_Party/FreeRTOS/Source/CMSIS_RTOS_V2/cmsis_os2.c ****         portYIELD_FROM_ISR (yield);
 6121              		.loc 1 1495 0
 6122 0034 019B     		ldr	r3, [sp, #4]
 6123 0036 FBB1     		cbz	r3, .L626
 6124              		.loc 1 1495 0 is_stmt 0 discriminator 1
 6125 0038 124B     		ldr	r3, .L633+4
 6126 003a 4FF08052 		mov	r2, #268435456
 6127 003e 1A60     		str	r2, [r3]
 6128              		.syntax unified
 6129              	@ 1495 "Middlewares/Third_Party/FreeRTOS/Source/CMSIS_RTOS_V2/cmsis_os2.c" 1
 6130 0040 BFF34F8F 		dsb
 6131              	@ 0 "" 2
 6132              	@ 1495 "Middlewares/Third_Party/FreeRTOS/Source/CMSIS_RTOS_V2/cmsis_os2.c" 1
 6133 0044 BFF36F8F 		isb
 6134              	@ 0 "" 2
1480:Middlewares/Third_Party/FreeRTOS/Source/CMSIS_RTOS_V2/cmsis_os2.c **** 
 6135              		.loc 1 1480 0 is_stmt 1 discriminator 1
 6136              		.thumb
ARM GAS  /tmp/ccjsdB5h.s 			page 156


 6137              		.syntax unified
 6138 0048 0020     		movs	r0, #0
 6139              	.L619:
1496:Middlewares/Third_Party/FreeRTOS/Source/CMSIS_RTOS_V2/cmsis_os2.c ****       }
1497:Middlewares/Third_Party/FreeRTOS/Source/CMSIS_RTOS_V2/cmsis_os2.c ****     }
1498:Middlewares/Third_Party/FreeRTOS/Source/CMSIS_RTOS_V2/cmsis_os2.c ****   }
1499:Middlewares/Third_Party/FreeRTOS/Source/CMSIS_RTOS_V2/cmsis_os2.c ****   else {
1500:Middlewares/Third_Party/FreeRTOS/Source/CMSIS_RTOS_V2/cmsis_os2.c ****     if (xSemaphoreTake (hSemaphore, (TickType_t)timeout) != pdPASS) {
1501:Middlewares/Third_Party/FreeRTOS/Source/CMSIS_RTOS_V2/cmsis_os2.c ****       if (timeout != 0U) {
1502:Middlewares/Third_Party/FreeRTOS/Source/CMSIS_RTOS_V2/cmsis_os2.c ****         stat = osErrorTimeout;
1503:Middlewares/Third_Party/FreeRTOS/Source/CMSIS_RTOS_V2/cmsis_os2.c ****       } else {
1504:Middlewares/Third_Party/FreeRTOS/Source/CMSIS_RTOS_V2/cmsis_os2.c ****         stat = osErrorResource;
1505:Middlewares/Third_Party/FreeRTOS/Source/CMSIS_RTOS_V2/cmsis_os2.c ****       }
1506:Middlewares/Third_Party/FreeRTOS/Source/CMSIS_RTOS_V2/cmsis_os2.c ****     }
1507:Middlewares/Third_Party/FreeRTOS/Source/CMSIS_RTOS_V2/cmsis_os2.c ****   }
1508:Middlewares/Third_Party/FreeRTOS/Source/CMSIS_RTOS_V2/cmsis_os2.c **** 
1509:Middlewares/Third_Party/FreeRTOS/Source/CMSIS_RTOS_V2/cmsis_os2.c ****   return (stat);
1510:Middlewares/Third_Party/FreeRTOS/Source/CMSIS_RTOS_V2/cmsis_os2.c **** }
 6140              		.loc 1 1510 0
 6141 004a 02B0     		add	sp, sp, #8
 6142              	.LCFI105:
 6143              		.cfi_remember_state
 6144              		.cfi_def_cfa_offset 8
 6145              		@ sp needed
 6146 004c 10BD     		pop	{r4, pc}
 6147              	.LVL557:
 6148              	.L622:
 6149              	.LCFI106:
 6150              		.cfi_restore_state
1500:Middlewares/Third_Party/FreeRTOS/Source/CMSIS_RTOS_V2/cmsis_os2.c ****       if (timeout != 0U) {
 6151              		.loc 1 1500 0
 6152 004e 2146     		mov	r1, r4
 6153              	.LVL558:
 6154 0050 FFF7FEFF 		bl	xQueueSemaphoreTake
 6155              	.LVL559:
 6156 0054 0128     		cmp	r0, #1
 6157 0056 11D0     		beq	.L627
1504:Middlewares/Third_Party/FreeRTOS/Source/CMSIS_RTOS_V2/cmsis_os2.c ****       }
 6158              		.loc 1 1504 0
 6159 0058 002C     		cmp	r4, #0
 6160 005a 14BF     		ite	ne
 6161 005c 6FF00100 		mvnne	r0, #1
 6162 0060 6FF00200 		mvneq	r0, #2
 6163 0064 F1E7     		b	.L619
 6164              	.LVL560:
 6165              	.L623:
 6166              	.LCFI107:
 6167              		.cfi_def_cfa_offset 0
 6168              		.cfi_restore 4
 6169              		.cfi_restore 14
1483:Middlewares/Third_Party/FreeRTOS/Source/CMSIS_RTOS_V2/cmsis_os2.c ****   }
 6170              		.loc 1 1483 0
 6171 0066 6FF00300 		mvn	r0, #3
 6172              	.LVL561:
 6173              		.loc 1 1510 0
 6174 006a 7047     		bx	lr
 6175              	.LVL562:
ARM GAS  /tmp/ccjsdB5h.s 			page 157


 6176              	.L624:
 6177              	.LCFI108:
 6178              		.cfi_def_cfa_offset 16
 6179              		.cfi_offset 4, -8
 6180              		.cfi_offset 14, -4
1487:Middlewares/Third_Party/FreeRTOS/Source/CMSIS_RTOS_V2/cmsis_os2.c ****     }
 6181              		.loc 1 1487 0
 6182 006c 6FF00300 		mvn	r0, #3
 6183              	.LVL563:
 6184 0070 EBE7     		b	.L619
 6185              	.LVL564:
 6186              	.L625:
1493:Middlewares/Third_Party/FreeRTOS/Source/CMSIS_RTOS_V2/cmsis_os2.c ****       } else {
 6187              		.loc 1 1493 0
 6188 0072 6FF00200 		mvn	r0, #2
 6189 0076 E8E7     		b	.L619
 6190              	.L626:
1480:Middlewares/Third_Party/FreeRTOS/Source/CMSIS_RTOS_V2/cmsis_os2.c **** 
 6191              		.loc 1 1480 0
 6192 0078 0020     		movs	r0, #0
 6193 007a E6E7     		b	.L619
 6194              	.L627:
 6195 007c 0020     		movs	r0, #0
 6196 007e E4E7     		b	.L619
 6197              	.L634:
 6198              		.align	2
 6199              	.L633:
 6200 0080 00000000 		.word	.LANCHOR0
 6201 0084 04ED00E0 		.word	-536810236
 6202              		.cfi_endproc
 6203              	.LFE157:
 6205              		.section	.text.osSemaphoreRelease,"ax",%progbits
 6206              		.align	1
 6207              		.global	osSemaphoreRelease
 6208              		.syntax unified
 6209              		.thumb
 6210              		.thumb_func
 6211              		.fpu fpv4-sp-d16
 6213              	osSemaphoreRelease:
 6214              	.LFB158:
1511:Middlewares/Third_Party/FreeRTOS/Source/CMSIS_RTOS_V2/cmsis_os2.c **** 
1512:Middlewares/Third_Party/FreeRTOS/Source/CMSIS_RTOS_V2/cmsis_os2.c **** osStatus_t osSemaphoreRelease (osSemaphoreId_t semaphore_id) {
 6215              		.loc 1 1512 0
 6216              		.cfi_startproc
 6217              		@ args = 0, pretend = 0, frame = 8
 6218              		@ frame_needed = 0, uses_anonymous_args = 0
 6219              	.LVL565:
1513:Middlewares/Third_Party/FreeRTOS/Source/CMSIS_RTOS_V2/cmsis_os2.c ****   SemaphoreHandle_t hSemaphore = (SemaphoreHandle_t)semaphore_id;
1514:Middlewares/Third_Party/FreeRTOS/Source/CMSIS_RTOS_V2/cmsis_os2.c ****   osStatus_t stat;
1515:Middlewares/Third_Party/FreeRTOS/Source/CMSIS_RTOS_V2/cmsis_os2.c ****   BaseType_t yield;
1516:Middlewares/Third_Party/FreeRTOS/Source/CMSIS_RTOS_V2/cmsis_os2.c **** 
1517:Middlewares/Third_Party/FreeRTOS/Source/CMSIS_RTOS_V2/cmsis_os2.c ****   stat = osOK;
1518:Middlewares/Third_Party/FreeRTOS/Source/CMSIS_RTOS_V2/cmsis_os2.c **** 
1519:Middlewares/Third_Party/FreeRTOS/Source/CMSIS_RTOS_V2/cmsis_os2.c ****   if (hSemaphore == NULL) {
 6220              		.loc 1 1519 0
 6221 0000 78B3     		cbz	r0, .L639
1512:Middlewares/Third_Party/FreeRTOS/Source/CMSIS_RTOS_V2/cmsis_os2.c ****   SemaphoreHandle_t hSemaphore = (SemaphoreHandle_t)semaphore_id;
ARM GAS  /tmp/ccjsdB5h.s 			page 158


 6222              		.loc 1 1512 0
 6223 0002 00B5     		push	{lr}
 6224              	.LCFI109:
 6225              		.cfi_def_cfa_offset 4
 6226              		.cfi_offset 14, -4
 6227 0004 83B0     		sub	sp, sp, #12
 6228              	.LCFI110:
 6229              		.cfi_def_cfa_offset 16
 6230              	.LBB602:
 6231              	.LBB603:
 209:Drivers/CMSIS/Include/cmsis_gcc.h ****   return(result);
 6232              		.loc 2 209 0
 6233              		.syntax unified
 6234              	@ 209 "Drivers/CMSIS/Include/cmsis_gcc.h" 1
 6235 0006 EFF30583 		MRS r3, ipsr
 6236              	@ 0 "" 2
 6237              		.thumb
 6238              		.syntax unified
 6239              	.LBE603:
 6240              	.LBE602:
1520:Middlewares/Third_Party/FreeRTOS/Source/CMSIS_RTOS_V2/cmsis_os2.c ****     stat = osErrorParameter;
1521:Middlewares/Third_Party/FreeRTOS/Source/CMSIS_RTOS_V2/cmsis_os2.c ****   }
1522:Middlewares/Third_Party/FreeRTOS/Source/CMSIS_RTOS_V2/cmsis_os2.c ****   else if (IS_IRQ()) {
 6241              		.loc 1 1522 0
 6242 000a 4BB9     		cbnz	r3, .L637
 6243              	.LBB604:
 6244              	.LBB605:
 386:Drivers/CMSIS/Include/cmsis_gcc.h ****   return(result);
 6245              		.loc 2 386 0
 6246              		.syntax unified
 6247              	@ 386 "Drivers/CMSIS/Include/cmsis_gcc.h" 1
 6248 000c EFF31083 		MRS r3, primask
 6249              	@ 0 "" 2
 6250              		.thumb
 6251              		.syntax unified
 6252              	.LBE605:
 6253              	.LBE604:
 6254              		.loc 1 1522 0
 6255 0010 33B9     		cbnz	r3, .L637
 6256              		.loc 1 1522 0 is_stmt 0 discriminator 2
 6257 0012 184B     		ldr	r3, .L647
 6258 0014 1B68     		ldr	r3, [r3]
 6259 0016 022B     		cmp	r3, #2
 6260 0018 18D1     		bne	.L638
 6261              	.LBB606:
 6262              	.LBB607:
 6263              		.loc 2 465 0 is_stmt 1
 6264              		.syntax unified
 6265              	@ 465 "Drivers/CMSIS/Include/cmsis_gcc.h" 1
 6266 001a EFF31183 		MRS r3, basepri
 6267              	@ 0 "" 2
 6268              		.thumb
 6269              		.syntax unified
 6270              	.LBE607:
 6271              	.LBE606:
 6272              		.loc 1 1522 0
 6273 001e ABB1     		cbz	r3, .L638
ARM GAS  /tmp/ccjsdB5h.s 			page 159


 6274              	.L637:
1523:Middlewares/Third_Party/FreeRTOS/Source/CMSIS_RTOS_V2/cmsis_os2.c ****     yield = pdFALSE;
 6275              		.loc 1 1523 0
 6276 0020 02A9     		add	r1, sp, #8
 6277 0022 0023     		movs	r3, #0
 6278 0024 41F8043D 		str	r3, [r1, #-4]!
1524:Middlewares/Third_Party/FreeRTOS/Source/CMSIS_RTOS_V2/cmsis_os2.c **** 
1525:Middlewares/Third_Party/FreeRTOS/Source/CMSIS_RTOS_V2/cmsis_os2.c ****     if (xSemaphoreGiveFromISR (hSemaphore, &yield) != pdTRUE) {
 6279              		.loc 1 1525 0
 6280 0028 FFF7FEFF 		bl	xQueueGiveFromISR
 6281              	.LVL566:
 6282 002c 0128     		cmp	r0, #1
 6283 002e 1BD1     		bne	.L640
1526:Middlewares/Third_Party/FreeRTOS/Source/CMSIS_RTOS_V2/cmsis_os2.c ****       stat = osErrorResource;
1527:Middlewares/Third_Party/FreeRTOS/Source/CMSIS_RTOS_V2/cmsis_os2.c ****     } else {
1528:Middlewares/Third_Party/FreeRTOS/Source/CMSIS_RTOS_V2/cmsis_os2.c ****       portYIELD_FROM_ISR (yield);
 6284              		.loc 1 1528 0
 6285 0030 019B     		ldr	r3, [sp, #4]
 6286 0032 E3B1     		cbz	r3, .L641
 6287              		.loc 1 1528 0 is_stmt 0 discriminator 1
 6288 0034 104B     		ldr	r3, .L647+4
 6289 0036 4FF08052 		mov	r2, #268435456
 6290 003a 1A60     		str	r2, [r3]
 6291              		.syntax unified
 6292              	@ 1528 "Middlewares/Third_Party/FreeRTOS/Source/CMSIS_RTOS_V2/cmsis_os2.c" 1
 6293 003c BFF34F8F 		dsb
 6294              	@ 0 "" 2
 6295              	@ 1528 "Middlewares/Third_Party/FreeRTOS/Source/CMSIS_RTOS_V2/cmsis_os2.c" 1
 6296 0040 BFF36F8F 		isb
 6297              	@ 0 "" 2
1517:Middlewares/Third_Party/FreeRTOS/Source/CMSIS_RTOS_V2/cmsis_os2.c **** 
 6298              		.loc 1 1517 0 is_stmt 1 discriminator 1
 6299              		.thumb
 6300              		.syntax unified
 6301 0044 0020     		movs	r0, #0
 6302              	.L635:
1529:Middlewares/Third_Party/FreeRTOS/Source/CMSIS_RTOS_V2/cmsis_os2.c ****     }
1530:Middlewares/Third_Party/FreeRTOS/Source/CMSIS_RTOS_V2/cmsis_os2.c ****   }
1531:Middlewares/Third_Party/FreeRTOS/Source/CMSIS_RTOS_V2/cmsis_os2.c ****   else {
1532:Middlewares/Third_Party/FreeRTOS/Source/CMSIS_RTOS_V2/cmsis_os2.c ****     if (xSemaphoreGive (hSemaphore) != pdPASS) {
1533:Middlewares/Third_Party/FreeRTOS/Source/CMSIS_RTOS_V2/cmsis_os2.c ****       stat = osErrorResource;
1534:Middlewares/Third_Party/FreeRTOS/Source/CMSIS_RTOS_V2/cmsis_os2.c ****     }
1535:Middlewares/Third_Party/FreeRTOS/Source/CMSIS_RTOS_V2/cmsis_os2.c ****   }
1536:Middlewares/Third_Party/FreeRTOS/Source/CMSIS_RTOS_V2/cmsis_os2.c **** 
1537:Middlewares/Third_Party/FreeRTOS/Source/CMSIS_RTOS_V2/cmsis_os2.c ****   return (stat);
1538:Middlewares/Third_Party/FreeRTOS/Source/CMSIS_RTOS_V2/cmsis_os2.c **** }
 6303              		.loc 1 1538 0
 6304 0046 03B0     		add	sp, sp, #12
 6305              	.LCFI111:
 6306              		.cfi_remember_state
 6307              		.cfi_def_cfa_offset 4
 6308              		@ sp needed
 6309 0048 5DF804FB 		ldr	pc, [sp], #4
 6310              	.LVL567:
 6311              	.L638:
 6312              	.LCFI112:
 6313              		.cfi_restore_state
ARM GAS  /tmp/ccjsdB5h.s 			page 160


1532:Middlewares/Third_Party/FreeRTOS/Source/CMSIS_RTOS_V2/cmsis_os2.c ****       stat = osErrorResource;
 6314              		.loc 1 1532 0
 6315 004c 0023     		movs	r3, #0
 6316 004e 1A46     		mov	r2, r3
 6317 0050 1946     		mov	r1, r3
 6318 0052 FFF7FEFF 		bl	xQueueGenericSend
 6319              	.LVL568:
1533:Middlewares/Third_Party/FreeRTOS/Source/CMSIS_RTOS_V2/cmsis_os2.c ****     }
 6320              		.loc 1 1533 0
 6321 0056 0128     		cmp	r0, #1
 6322 0058 0CBF     		ite	eq
 6323 005a 0020     		moveq	r0, #0
 6324 005c 6FF00200 		mvnne	r0, #2
 6325 0060 F1E7     		b	.L635
 6326              	.LVL569:
 6327              	.L639:
 6328              	.LCFI113:
 6329              		.cfi_def_cfa_offset 0
 6330              		.cfi_restore 14
1520:Middlewares/Third_Party/FreeRTOS/Source/CMSIS_RTOS_V2/cmsis_os2.c ****   }
 6331              		.loc 1 1520 0
 6332 0062 6FF00300 		mvn	r0, #3
 6333              	.LVL570:
 6334              		.loc 1 1538 0
 6335 0066 7047     		bx	lr
 6336              	.L640:
 6337              	.LCFI114:
 6338              		.cfi_def_cfa_offset 16
 6339              		.cfi_offset 14, -4
1526:Middlewares/Third_Party/FreeRTOS/Source/CMSIS_RTOS_V2/cmsis_os2.c ****     } else {
 6340              		.loc 1 1526 0
 6341 0068 6FF00200 		mvn	r0, #2
 6342 006c EBE7     		b	.L635
 6343              	.L641:
1517:Middlewares/Third_Party/FreeRTOS/Source/CMSIS_RTOS_V2/cmsis_os2.c **** 
 6344              		.loc 1 1517 0
 6345 006e 0020     		movs	r0, #0
 6346 0070 E9E7     		b	.L635
 6347              	.L648:
 6348 0072 00BF     		.align	2
 6349              	.L647:
 6350 0074 00000000 		.word	.LANCHOR0
 6351 0078 04ED00E0 		.word	-536810236
 6352              		.cfi_endproc
 6353              	.LFE158:
 6355              		.section	.text.osSemaphoreGetCount,"ax",%progbits
 6356              		.align	1
 6357              		.global	osSemaphoreGetCount
 6358              		.syntax unified
 6359              		.thumb
 6360              		.thumb_func
 6361              		.fpu fpv4-sp-d16
 6363              	osSemaphoreGetCount:
 6364              	.LFB159:
1539:Middlewares/Third_Party/FreeRTOS/Source/CMSIS_RTOS_V2/cmsis_os2.c **** 
1540:Middlewares/Third_Party/FreeRTOS/Source/CMSIS_RTOS_V2/cmsis_os2.c **** uint32_t osSemaphoreGetCount (osSemaphoreId_t semaphore_id) {
 6365              		.loc 1 1540 0
ARM GAS  /tmp/ccjsdB5h.s 			page 161


 6366              		.cfi_startproc
 6367              		@ args = 0, pretend = 0, frame = 0
 6368              		@ frame_needed = 0, uses_anonymous_args = 0
 6369              	.LVL571:
1541:Middlewares/Third_Party/FreeRTOS/Source/CMSIS_RTOS_V2/cmsis_os2.c ****   SemaphoreHandle_t hSemaphore = (SemaphoreHandle_t)semaphore_id;
1542:Middlewares/Third_Party/FreeRTOS/Source/CMSIS_RTOS_V2/cmsis_os2.c ****   uint32_t count;
1543:Middlewares/Third_Party/FreeRTOS/Source/CMSIS_RTOS_V2/cmsis_os2.c **** 
1544:Middlewares/Third_Party/FreeRTOS/Source/CMSIS_RTOS_V2/cmsis_os2.c ****   if (hSemaphore == NULL) {
 6370              		.loc 1 1544 0
 6371 0000 98B1     		cbz	r0, .L653
1540:Middlewares/Third_Party/FreeRTOS/Source/CMSIS_RTOS_V2/cmsis_os2.c ****   SemaphoreHandle_t hSemaphore = (SemaphoreHandle_t)semaphore_id;
 6372              		.loc 1 1540 0
 6373 0002 08B5     		push	{r3, lr}
 6374              	.LCFI115:
 6375              		.cfi_def_cfa_offset 8
 6376              		.cfi_offset 3, -8
 6377              		.cfi_offset 14, -4
 6378              	.LBB608:
 6379              	.LBB609:
 209:Drivers/CMSIS/Include/cmsis_gcc.h ****   return(result);
 6380              		.loc 2 209 0
 6381              		.syntax unified
 6382              	@ 209 "Drivers/CMSIS/Include/cmsis_gcc.h" 1
 6383 0004 EFF30583 		MRS r3, ipsr
 6384              	@ 0 "" 2
 6385              		.thumb
 6386              		.syntax unified
 6387              	.LBE609:
 6388              	.LBE608:
1545:Middlewares/Third_Party/FreeRTOS/Source/CMSIS_RTOS_V2/cmsis_os2.c ****     count = 0U;
1546:Middlewares/Third_Party/FreeRTOS/Source/CMSIS_RTOS_V2/cmsis_os2.c ****   }
1547:Middlewares/Third_Party/FreeRTOS/Source/CMSIS_RTOS_V2/cmsis_os2.c ****   else if (IS_IRQ()) {
 6389              		.loc 1 1547 0
 6390 0008 63B9     		cbnz	r3, .L651
 6391              	.LBB610:
 6392              	.LBB611:
 386:Drivers/CMSIS/Include/cmsis_gcc.h ****   return(result);
 6393              		.loc 2 386 0
 6394              		.syntax unified
 6395              	@ 386 "Drivers/CMSIS/Include/cmsis_gcc.h" 1
 6396 000a EFF31083 		MRS r3, primask
 6397              	@ 0 "" 2
 6398              		.thumb
 6399              		.syntax unified
 6400              	.LBE611:
 6401              	.LBE610:
 6402              		.loc 1 1547 0
 6403 000e 4BB9     		cbnz	r3, .L651
 6404              		.loc 1 1547 0 is_stmt 0 discriminator 2
 6405 0010 074B     		ldr	r3, .L658
 6406 0012 1B68     		ldr	r3, [r3]
 6407 0014 022B     		cmp	r3, #2
 6408 0016 02D1     		bne	.L652
 6409              	.LBB612:
 6410              	.LBB613:
 6411              		.loc 2 465 0 is_stmt 1
 6412              		.syntax unified
ARM GAS  /tmp/ccjsdB5h.s 			page 162


 6413              	@ 465 "Drivers/CMSIS/Include/cmsis_gcc.h" 1
 6414 0018 EFF31183 		MRS r3, basepri
 6415              	@ 0 "" 2
 6416              		.thumb
 6417              		.syntax unified
 6418              	.LBE613:
 6419              	.LBE612:
 6420              		.loc 1 1547 0
 6421 001c 13B9     		cbnz	r3, .L651
 6422              	.L652:
1548:Middlewares/Third_Party/FreeRTOS/Source/CMSIS_RTOS_V2/cmsis_os2.c ****     count = uxQueueMessagesWaitingFromISR (hSemaphore);
1549:Middlewares/Third_Party/FreeRTOS/Source/CMSIS_RTOS_V2/cmsis_os2.c ****   } else {
1550:Middlewares/Third_Party/FreeRTOS/Source/CMSIS_RTOS_V2/cmsis_os2.c ****     count = (uint32_t)uxSemaphoreGetCount (hSemaphore);
 6423              		.loc 1 1550 0
 6424 001e FFF7FEFF 		bl	uxQueueMessagesWaiting
 6425              	.LVL572:
 6426 0022 01E0     		b	.L649
 6427              	.LVL573:
 6428              	.L651:
1548:Middlewares/Third_Party/FreeRTOS/Source/CMSIS_RTOS_V2/cmsis_os2.c ****     count = uxQueueMessagesWaitingFromISR (hSemaphore);
 6429              		.loc 1 1548 0
 6430 0024 FFF7FEFF 		bl	uxQueueMessagesWaitingFromISR
 6431              	.LVL574:
 6432              	.L649:
1551:Middlewares/Third_Party/FreeRTOS/Source/CMSIS_RTOS_V2/cmsis_os2.c ****   }
1552:Middlewares/Third_Party/FreeRTOS/Source/CMSIS_RTOS_V2/cmsis_os2.c **** 
1553:Middlewares/Third_Party/FreeRTOS/Source/CMSIS_RTOS_V2/cmsis_os2.c ****   return (count);
1554:Middlewares/Third_Party/FreeRTOS/Source/CMSIS_RTOS_V2/cmsis_os2.c **** }
 6433              		.loc 1 1554 0
 6434 0028 08BD     		pop	{r3, pc}
 6435              	.LVL575:
 6436              	.L653:
 6437              	.LCFI116:
 6438              		.cfi_def_cfa_offset 0
 6439              		.cfi_restore 3
 6440              		.cfi_restore 14
1545:Middlewares/Third_Party/FreeRTOS/Source/CMSIS_RTOS_V2/cmsis_os2.c ****   }
 6441              		.loc 1 1545 0
 6442 002a 0020     		movs	r0, #0
 6443              	.LVL576:
 6444              		.loc 1 1554 0
 6445 002c 7047     		bx	lr
 6446              	.L659:
 6447 002e 00BF     		.align	2
 6448              	.L658:
 6449 0030 00000000 		.word	.LANCHOR0
 6450              		.cfi_endproc
 6451              	.LFE159:
 6453              		.section	.text.osSemaphoreDelete,"ax",%progbits
 6454              		.align	1
 6455              		.global	osSemaphoreDelete
 6456              		.syntax unified
 6457              		.thumb
 6458              		.thumb_func
 6459              		.fpu fpv4-sp-d16
 6461              	osSemaphoreDelete:
 6462              	.LFB160:
ARM GAS  /tmp/ccjsdB5h.s 			page 163


1555:Middlewares/Third_Party/FreeRTOS/Source/CMSIS_RTOS_V2/cmsis_os2.c **** 
1556:Middlewares/Third_Party/FreeRTOS/Source/CMSIS_RTOS_V2/cmsis_os2.c **** osStatus_t osSemaphoreDelete (osSemaphoreId_t semaphore_id) {
 6463              		.loc 1 1556 0
 6464              		.cfi_startproc
 6465              		@ args = 0, pretend = 0, frame = 0
 6466              		@ frame_needed = 0, uses_anonymous_args = 0
 6467              	.LVL577:
 6468              	.LBB614:
 6469              	.LBB615:
 209:Drivers/CMSIS/Include/cmsis_gcc.h ****   return(result);
 6470              		.loc 2 209 0
 6471              		.syntax unified
 6472              	@ 209 "Drivers/CMSIS/Include/cmsis_gcc.h" 1
 6473 0000 EFF30583 		MRS r3, ipsr
 6474              	@ 0 "" 2
 6475              		.thumb
 6476              		.syntax unified
 6477              	.LBE615:
 6478              	.LBE614:
1557:Middlewares/Third_Party/FreeRTOS/Source/CMSIS_RTOS_V2/cmsis_os2.c ****   SemaphoreHandle_t hSemaphore = (SemaphoreHandle_t)semaphore_id;
1558:Middlewares/Third_Party/FreeRTOS/Source/CMSIS_RTOS_V2/cmsis_os2.c ****   osStatus_t stat;
1559:Middlewares/Third_Party/FreeRTOS/Source/CMSIS_RTOS_V2/cmsis_os2.c **** 
1560:Middlewares/Third_Party/FreeRTOS/Source/CMSIS_RTOS_V2/cmsis_os2.c **** #ifndef USE_FreeRTOS_HEAP_1
1561:Middlewares/Third_Party/FreeRTOS/Source/CMSIS_RTOS_V2/cmsis_os2.c ****   if (IS_IRQ()) {
 6479              		.loc 1 1561 0
 6480 0004 BBB9     		cbnz	r3, .L663
 6481              	.LBB616:
 6482              	.LBB617:
 386:Drivers/CMSIS/Include/cmsis_gcc.h ****   return(result);
 6483              		.loc 2 386 0
 6484              		.syntax unified
 6485              	@ 386 "Drivers/CMSIS/Include/cmsis_gcc.h" 1
 6486 0006 EFF31083 		MRS r3, primask
 6487              	@ 0 "" 2
 6488              		.thumb
 6489              		.syntax unified
 6490              	.LBE617:
 6491              	.LBE616:
 6492              		.loc 1 1561 0
 6493 000a BBB9     		cbnz	r3, .L664
 6494              		.loc 1 1561 0 is_stmt 0 discriminator 2
 6495 000c 0E4B     		ldr	r3, .L672
 6496 000e 1B68     		ldr	r3, [r3]
 6497 0010 022B     		cmp	r3, #2
 6498 0012 09D0     		beq	.L671
 6499              	.L662:
1562:Middlewares/Third_Party/FreeRTOS/Source/CMSIS_RTOS_V2/cmsis_os2.c ****     stat = osErrorISR;
1563:Middlewares/Third_Party/FreeRTOS/Source/CMSIS_RTOS_V2/cmsis_os2.c ****   }
1564:Middlewares/Third_Party/FreeRTOS/Source/CMSIS_RTOS_V2/cmsis_os2.c ****   else if (hSemaphore == NULL) {
 6500              		.loc 1 1564 0 is_stmt 1
 6501 0014 A8B1     		cbz	r0, .L666
1556:Middlewares/Third_Party/FreeRTOS/Source/CMSIS_RTOS_V2/cmsis_os2.c ****   SemaphoreHandle_t hSemaphore = (SemaphoreHandle_t)semaphore_id;
 6502              		.loc 1 1556 0
 6503 0016 10B5     		push	{r4, lr}
 6504              	.LCFI117:
 6505              		.cfi_def_cfa_offset 8
 6506              		.cfi_offset 4, -8
ARM GAS  /tmp/ccjsdB5h.s 			page 164


 6507              		.cfi_offset 14, -4
 6508 0018 0446     		mov	r4, r0
1565:Middlewares/Third_Party/FreeRTOS/Source/CMSIS_RTOS_V2/cmsis_os2.c ****     stat = osErrorParameter;
1566:Middlewares/Third_Party/FreeRTOS/Source/CMSIS_RTOS_V2/cmsis_os2.c ****   }
1567:Middlewares/Third_Party/FreeRTOS/Source/CMSIS_RTOS_V2/cmsis_os2.c ****   else {
1568:Middlewares/Third_Party/FreeRTOS/Source/CMSIS_RTOS_V2/cmsis_os2.c ****     #if (configQUEUE_REGISTRY_SIZE > 0)
1569:Middlewares/Third_Party/FreeRTOS/Source/CMSIS_RTOS_V2/cmsis_os2.c ****     vQueueUnregisterQueue (hSemaphore);
 6509              		.loc 1 1569 0
 6510 001a FFF7FEFF 		bl	vQueueUnregisterQueue
 6511              	.LVL578:
1570:Middlewares/Third_Party/FreeRTOS/Source/CMSIS_RTOS_V2/cmsis_os2.c ****     #endif
1571:Middlewares/Third_Party/FreeRTOS/Source/CMSIS_RTOS_V2/cmsis_os2.c **** 
1572:Middlewares/Third_Party/FreeRTOS/Source/CMSIS_RTOS_V2/cmsis_os2.c ****     stat = osOK;
1573:Middlewares/Third_Party/FreeRTOS/Source/CMSIS_RTOS_V2/cmsis_os2.c ****     vSemaphoreDelete (hSemaphore);
 6512              		.loc 1 1573 0
 6513 001e 2046     		mov	r0, r4
 6514 0020 FFF7FEFF 		bl	vQueueDelete
 6515              	.LVL579:
1572:Middlewares/Third_Party/FreeRTOS/Source/CMSIS_RTOS_V2/cmsis_os2.c ****     vSemaphoreDelete (hSemaphore);
 6516              		.loc 1 1572 0
 6517 0024 0020     		movs	r0, #0
1574:Middlewares/Third_Party/FreeRTOS/Source/CMSIS_RTOS_V2/cmsis_os2.c ****   }
1575:Middlewares/Third_Party/FreeRTOS/Source/CMSIS_RTOS_V2/cmsis_os2.c **** #else
1576:Middlewares/Third_Party/FreeRTOS/Source/CMSIS_RTOS_V2/cmsis_os2.c ****   stat = osError;
1577:Middlewares/Third_Party/FreeRTOS/Source/CMSIS_RTOS_V2/cmsis_os2.c **** #endif
1578:Middlewares/Third_Party/FreeRTOS/Source/CMSIS_RTOS_V2/cmsis_os2.c **** 
1579:Middlewares/Third_Party/FreeRTOS/Source/CMSIS_RTOS_V2/cmsis_os2.c ****   return (stat);
1580:Middlewares/Third_Party/FreeRTOS/Source/CMSIS_RTOS_V2/cmsis_os2.c **** }
 6518              		.loc 1 1580 0
 6519 0026 10BD     		pop	{r4, pc}
 6520              	.LVL580:
 6521              	.L671:
 6522              	.LCFI118:
 6523              		.cfi_def_cfa_offset 0
 6524              		.cfi_restore 4
 6525              		.cfi_restore 14
 6526              	.LBB618:
 6527              	.LBB619:
 6528              		.loc 2 465 0
 6529              		.syntax unified
 6530              	@ 465 "Drivers/CMSIS/Include/cmsis_gcc.h" 1
 6531 0028 EFF31183 		MRS r3, basepri
 6532              	@ 0 "" 2
 6533              		.thumb
 6534              		.syntax unified
 6535              	.LBE619:
 6536              	.LBE618:
1561:Middlewares/Third_Party/FreeRTOS/Source/CMSIS_RTOS_V2/cmsis_os2.c ****     stat = osErrorISR;
 6537              		.loc 1 1561 0
 6538 002c 002B     		cmp	r3, #0
 6539 002e F1D0     		beq	.L662
1562:Middlewares/Third_Party/FreeRTOS/Source/CMSIS_RTOS_V2/cmsis_os2.c ****   }
 6540              		.loc 1 1562 0
 6541 0030 6FF00500 		mvn	r0, #5
 6542              	.LVL581:
 6543 0034 7047     		bx	lr
 6544              	.LVL582:
ARM GAS  /tmp/ccjsdB5h.s 			page 165


 6545              	.L663:
 6546 0036 6FF00500 		mvn	r0, #5
 6547              	.LVL583:
 6548 003a 7047     		bx	lr
 6549              	.LVL584:
 6550              	.L664:
 6551 003c 6FF00500 		mvn	r0, #5
 6552              	.LVL585:
 6553 0040 7047     		bx	lr
 6554              	.LVL586:
 6555              	.L666:
1565:Middlewares/Third_Party/FreeRTOS/Source/CMSIS_RTOS_V2/cmsis_os2.c ****   }
 6556              		.loc 1 1565 0
 6557 0042 6FF00300 		mvn	r0, #3
 6558              	.LVL587:
 6559              		.loc 1 1580 0
 6560 0046 7047     		bx	lr
 6561              	.L673:
 6562              		.align	2
 6563              	.L672:
 6564 0048 00000000 		.word	.LANCHOR0
 6565              		.cfi_endproc
 6566              	.LFE160:
 6568              		.section	.text.osMessageQueueNew,"ax",%progbits
 6569              		.align	1
 6570              		.global	osMessageQueueNew
 6571              		.syntax unified
 6572              		.thumb
 6573              		.thumb_func
 6574              		.fpu fpv4-sp-d16
 6576              	osMessageQueueNew:
 6577              	.LFB161:
1581:Middlewares/Third_Party/FreeRTOS/Source/CMSIS_RTOS_V2/cmsis_os2.c **** 
1582:Middlewares/Third_Party/FreeRTOS/Source/CMSIS_RTOS_V2/cmsis_os2.c **** /*---------------------------------------------------------------------------*/
1583:Middlewares/Third_Party/FreeRTOS/Source/CMSIS_RTOS_V2/cmsis_os2.c **** 
1584:Middlewares/Third_Party/FreeRTOS/Source/CMSIS_RTOS_V2/cmsis_os2.c **** osMessageQueueId_t osMessageQueueNew (uint32_t msg_count, uint32_t msg_size, const osMessageQueueAt
 6578              		.loc 1 1584 0
 6579              		.cfi_startproc
 6580              		@ args = 0, pretend = 0, frame = 0
 6581              		@ frame_needed = 0, uses_anonymous_args = 0
 6582              	.LVL588:
 6583 0000 70B5     		push	{r4, r5, r6, lr}
 6584              	.LCFI119:
 6585              		.cfi_def_cfa_offset 16
 6586              		.cfi_offset 4, -16
 6587              		.cfi_offset 5, -12
 6588              		.cfi_offset 6, -8
 6589              		.cfi_offset 14, -4
 6590 0002 82B0     		sub	sp, sp, #8
 6591              	.LCFI120:
 6592              		.cfi_def_cfa_offset 24
 6593              	.LVL589:
 6594              	.LBB620:
 6595              	.LBB621:
 209:Drivers/CMSIS/Include/cmsis_gcc.h ****   return(result);
 6596              		.loc 2 209 0
 6597              		.syntax unified
ARM GAS  /tmp/ccjsdB5h.s 			page 166


 6598              	@ 209 "Drivers/CMSIS/Include/cmsis_gcc.h" 1
 6599 0004 EFF30583 		MRS r3, ipsr
 6600              	@ 0 "" 2
 6601              		.thumb
 6602              		.syntax unified
 6603              	.LBE621:
 6604              	.LBE620:
1585:Middlewares/Third_Party/FreeRTOS/Source/CMSIS_RTOS_V2/cmsis_os2.c ****   QueueHandle_t hQueue;
1586:Middlewares/Third_Party/FreeRTOS/Source/CMSIS_RTOS_V2/cmsis_os2.c ****   int32_t mem;
1587:Middlewares/Third_Party/FreeRTOS/Source/CMSIS_RTOS_V2/cmsis_os2.c ****   #if (configQUEUE_REGISTRY_SIZE > 0)
1588:Middlewares/Third_Party/FreeRTOS/Source/CMSIS_RTOS_V2/cmsis_os2.c ****   const char *name;
1589:Middlewares/Third_Party/FreeRTOS/Source/CMSIS_RTOS_V2/cmsis_os2.c ****   #endif
1590:Middlewares/Third_Party/FreeRTOS/Source/CMSIS_RTOS_V2/cmsis_os2.c **** 
1591:Middlewares/Third_Party/FreeRTOS/Source/CMSIS_RTOS_V2/cmsis_os2.c ****   hQueue = NULL;
1592:Middlewares/Third_Party/FreeRTOS/Source/CMSIS_RTOS_V2/cmsis_os2.c **** 
1593:Middlewares/Third_Party/FreeRTOS/Source/CMSIS_RTOS_V2/cmsis_os2.c ****   if (!IS_IRQ() && (msg_count > 0U) && (msg_size > 0U)) {
 6605              		.loc 1 1593 0
 6606 0008 002B     		cmp	r3, #0
 6607 000a 40D1     		bne	.L683
 6608              	.LBB622:
 6609              	.LBB623:
 386:Drivers/CMSIS/Include/cmsis_gcc.h ****   return(result);
 6610              		.loc 2 386 0
 6611              		.syntax unified
 6612              	@ 386 "Drivers/CMSIS/Include/cmsis_gcc.h" 1
 6613 000c EFF31083 		MRS r3, primask
 6614              	@ 0 "" 2
 6615              		.thumb
 6616              		.syntax unified
 6617              	.LBE623:
 6618              	.LBE622:
 6619              		.loc 1 1593 0
 6620 0010 002B     		cmp	r3, #0
 6621 0012 3ED1     		bne	.L684
 6622              		.loc 1 1593 0 is_stmt 0 discriminator 2
 6623 0014 294B     		ldr	r3, .L697
 6624 0016 1B68     		ldr	r3, [r3]
 6625 0018 022B     		cmp	r3, #2
 6626 001a 14D0     		beq	.L694
 6627              	.L676:
 6628              		.loc 1 1593 0 discriminator 5
 6629 001c 0028     		cmp	r0, #0
 6630 001e 3AD0     		beq	.L686
 6631              		.loc 1 1593 0 discriminator 6
 6632 0020 0029     		cmp	r1, #0
 6633 0022 3AD0     		beq	.L687
 6634 0024 1446     		mov	r4, r2
 6635              	.LVL590:
1594:Middlewares/Third_Party/FreeRTOS/Source/CMSIS_RTOS_V2/cmsis_os2.c ****     mem = -1;
1595:Middlewares/Third_Party/FreeRTOS/Source/CMSIS_RTOS_V2/cmsis_os2.c **** 
1596:Middlewares/Third_Party/FreeRTOS/Source/CMSIS_RTOS_V2/cmsis_os2.c ****     if (attr != NULL) {
 6636              		.loc 1 1596 0 is_stmt 1
 6637 0026 002A     		cmp	r2, #0
 6638 0028 3FD0     		beq	.L677
1597:Middlewares/Third_Party/FreeRTOS/Source/CMSIS_RTOS_V2/cmsis_os2.c ****       if ((attr->cb_mem != NULL) && (attr->cb_size >= sizeof(StaticQueue_t)) &&
 6639              		.loc 1 1597 0
 6640 002a 9368     		ldr	r3, [r2, #8]
ARM GAS  /tmp/ccjsdB5h.s 			page 167


 6641 002c 8BB1     		cbz	r3, .L678
 6642              		.loc 1 1597 0 is_stmt 0 discriminator 1
 6643 002e D268     		ldr	r2, [r2, #12]
 6644              	.LVL591:
 6645 0030 4F2A     		cmp	r2, #79
 6646 0032 34D9     		bls	.L688
1598:Middlewares/Third_Party/FreeRTOS/Source/CMSIS_RTOS_V2/cmsis_os2.c ****           (attr->mq_mem != NULL) && (attr->mq_size >= (msg_count * msg_size))) {
 6647              		.loc 1 1598 0 is_stmt 1 discriminator 2
 6648 0034 2269     		ldr	r2, [r4, #16]
1597:Middlewares/Third_Party/FreeRTOS/Source/CMSIS_RTOS_V2/cmsis_os2.c ****       if ((attr->cb_mem != NULL) && (attr->cb_size >= sizeof(StaticQueue_t)) &&
 6649              		.loc 1 1597 0 discriminator 2
 6650 0036 A2B3     		cbz	r2, .L689
 6651              		.loc 1 1598 0
 6652 0038 01FB00F5 		mul	r5, r1, r0
 6653 003c 6669     		ldr	r6, [r4, #20]
 6654 003e AE42     		cmp	r6, r5
 6655 0040 1DD2     		bcs	.L679
1591:Middlewares/Third_Party/FreeRTOS/Source/CMSIS_RTOS_V2/cmsis_os2.c **** 
 6656              		.loc 1 1591 0
 6657 0042 0025     		movs	r5, #0
 6658 0044 16E0     		b	.L674
 6659              	.LVL592:
 6660              	.L694:
 6661              	.LBB624:
 6662              	.LBB625:
 6663              		.loc 2 465 0
 6664              		.syntax unified
 6665              	@ 465 "Drivers/CMSIS/Include/cmsis_gcc.h" 1
 6666 0046 EFF31183 		MRS r3, basepri
 6667              	@ 0 "" 2
 6668              		.thumb
 6669              		.syntax unified
 6670              	.LBE625:
 6671              	.LBE624:
1593:Middlewares/Third_Party/FreeRTOS/Source/CMSIS_RTOS_V2/cmsis_os2.c ****     mem = -1;
 6672              		.loc 1 1593 0
 6673 004a 002B     		cmp	r3, #0
 6674 004c E6D0     		beq	.L676
1591:Middlewares/Third_Party/FreeRTOS/Source/CMSIS_RTOS_V2/cmsis_os2.c **** 
 6675              		.loc 1 1591 0
 6676 004e 0025     		movs	r5, #0
 6677 0050 10E0     		b	.L674
 6678              	.LVL593:
 6679              	.L678:
1599:Middlewares/Third_Party/FreeRTOS/Source/CMSIS_RTOS_V2/cmsis_os2.c ****         mem = 1;
1600:Middlewares/Third_Party/FreeRTOS/Source/CMSIS_RTOS_V2/cmsis_os2.c ****       }
1601:Middlewares/Third_Party/FreeRTOS/Source/CMSIS_RTOS_V2/cmsis_os2.c ****       else {
1602:Middlewares/Third_Party/FreeRTOS/Source/CMSIS_RTOS_V2/cmsis_os2.c ****         if ((attr->cb_mem == NULL) && (attr->cb_size == 0U) &&
 6680              		.loc 1 1602 0 discriminator 1
 6681 0052 D368     		ldr	r3, [r2, #12]
 6682 0054 3BBB     		cbnz	r3, .L690
 6683              		.loc 1 1602 0 is_stmt 0 discriminator 2
 6684 0056 1369     		ldr	r3, [r2, #16]
 6685 0058 0BB1     		cbz	r3, .L695
1591:Middlewares/Third_Party/FreeRTOS/Source/CMSIS_RTOS_V2/cmsis_os2.c **** 
 6686              		.loc 1 1591 0 is_stmt 1
 6687 005a 0025     		movs	r5, #0
ARM GAS  /tmp/ccjsdB5h.s 			page 168


1603:Middlewares/Third_Party/FreeRTOS/Source/CMSIS_RTOS_V2/cmsis_os2.c ****             (attr->mq_mem == NULL) && (attr->mq_size == 0U)) {
1604:Middlewares/Third_Party/FreeRTOS/Source/CMSIS_RTOS_V2/cmsis_os2.c ****           mem = 0;
1605:Middlewares/Third_Party/FreeRTOS/Source/CMSIS_RTOS_V2/cmsis_os2.c ****         }
1606:Middlewares/Third_Party/FreeRTOS/Source/CMSIS_RTOS_V2/cmsis_os2.c ****       }
1607:Middlewares/Third_Party/FreeRTOS/Source/CMSIS_RTOS_V2/cmsis_os2.c ****     }
1608:Middlewares/Third_Party/FreeRTOS/Source/CMSIS_RTOS_V2/cmsis_os2.c ****     else {
1609:Middlewares/Third_Party/FreeRTOS/Source/CMSIS_RTOS_V2/cmsis_os2.c ****       mem = 0;
1610:Middlewares/Third_Party/FreeRTOS/Source/CMSIS_RTOS_V2/cmsis_os2.c ****     }
1611:Middlewares/Third_Party/FreeRTOS/Source/CMSIS_RTOS_V2/cmsis_os2.c **** 
1612:Middlewares/Third_Party/FreeRTOS/Source/CMSIS_RTOS_V2/cmsis_os2.c ****     if (mem == 1) {
1613:Middlewares/Third_Party/FreeRTOS/Source/CMSIS_RTOS_V2/cmsis_os2.c ****       hQueue = xQueueCreateStatic (msg_count, msg_size, attr->mq_mem, attr->cb_mem);
1614:Middlewares/Third_Party/FreeRTOS/Source/CMSIS_RTOS_V2/cmsis_os2.c ****     }
1615:Middlewares/Third_Party/FreeRTOS/Source/CMSIS_RTOS_V2/cmsis_os2.c ****     else {
1616:Middlewares/Third_Party/FreeRTOS/Source/CMSIS_RTOS_V2/cmsis_os2.c ****       if (mem == 0) {
1617:Middlewares/Third_Party/FreeRTOS/Source/CMSIS_RTOS_V2/cmsis_os2.c ****         hQueue = xQueueCreate (msg_count, msg_size);
1618:Middlewares/Third_Party/FreeRTOS/Source/CMSIS_RTOS_V2/cmsis_os2.c ****       }
1619:Middlewares/Third_Party/FreeRTOS/Source/CMSIS_RTOS_V2/cmsis_os2.c ****     }
1620:Middlewares/Third_Party/FreeRTOS/Source/CMSIS_RTOS_V2/cmsis_os2.c **** 
1621:Middlewares/Third_Party/FreeRTOS/Source/CMSIS_RTOS_V2/cmsis_os2.c ****     #if (configQUEUE_REGISTRY_SIZE > 0)
1622:Middlewares/Third_Party/FreeRTOS/Source/CMSIS_RTOS_V2/cmsis_os2.c ****     if (hQueue != NULL) {
1623:Middlewares/Third_Party/FreeRTOS/Source/CMSIS_RTOS_V2/cmsis_os2.c ****       if (attr != NULL) {
1624:Middlewares/Third_Party/FreeRTOS/Source/CMSIS_RTOS_V2/cmsis_os2.c ****         name = attr->name;
1625:Middlewares/Third_Party/FreeRTOS/Source/CMSIS_RTOS_V2/cmsis_os2.c ****       } else {
1626:Middlewares/Third_Party/FreeRTOS/Source/CMSIS_RTOS_V2/cmsis_os2.c ****         name = NULL;
1627:Middlewares/Third_Party/FreeRTOS/Source/CMSIS_RTOS_V2/cmsis_os2.c ****       }
1628:Middlewares/Third_Party/FreeRTOS/Source/CMSIS_RTOS_V2/cmsis_os2.c ****       vQueueAddToRegistry (hQueue, name);
1629:Middlewares/Third_Party/FreeRTOS/Source/CMSIS_RTOS_V2/cmsis_os2.c ****     }
1630:Middlewares/Third_Party/FreeRTOS/Source/CMSIS_RTOS_V2/cmsis_os2.c ****     #endif
1631:Middlewares/Third_Party/FreeRTOS/Source/CMSIS_RTOS_V2/cmsis_os2.c **** 
1632:Middlewares/Third_Party/FreeRTOS/Source/CMSIS_RTOS_V2/cmsis_os2.c ****   }
1633:Middlewares/Third_Party/FreeRTOS/Source/CMSIS_RTOS_V2/cmsis_os2.c **** 
1634:Middlewares/Third_Party/FreeRTOS/Source/CMSIS_RTOS_V2/cmsis_os2.c ****   return ((osMessageQueueId_t)hQueue);
 6688              		.loc 1 1634 0
 6689 005c 0AE0     		b	.L674
 6690              	.L695:
1603:Middlewares/Third_Party/FreeRTOS/Source/CMSIS_RTOS_V2/cmsis_os2.c ****             (attr->mq_mem == NULL) && (attr->mq_size == 0U)) {
 6691              		.loc 1 1603 0
 6692 005e 5369     		ldr	r3, [r2, #20]
1616:Middlewares/Third_Party/FreeRTOS/Source/CMSIS_RTOS_V2/cmsis_os2.c ****         hQueue = xQueueCreate (msg_count, msg_size);
 6693              		.loc 1 1616 0
 6694 0060 5BB9     		cbnz	r3, .L696
1617:Middlewares/Third_Party/FreeRTOS/Source/CMSIS_RTOS_V2/cmsis_os2.c ****       }
 6695              		.loc 1 1617 0
 6696 0062 0022     		movs	r2, #0
 6697              	.LVL594:
 6698 0064 FFF7FEFF 		bl	xQueueGenericCreate
 6699              	.LVL595:
1622:Middlewares/Third_Party/FreeRTOS/Source/CMSIS_RTOS_V2/cmsis_os2.c ****       if (attr != NULL) {
 6700              		.loc 1 1622 0
 6701 0068 0546     		mov	r5, r0
 6702 006a 18B1     		cbz	r0, .L674
 6703              	.LVL596:
 6704              	.L682:
1624:Middlewares/Third_Party/FreeRTOS/Source/CMSIS_RTOS_V2/cmsis_os2.c ****       } else {
 6705              		.loc 1 1624 0
 6706 006c 2168     		ldr	r1, [r4]
 6707              	.LVL597:
ARM GAS  /tmp/ccjsdB5h.s 			page 169


 6708              	.L681:
1628:Middlewares/Third_Party/FreeRTOS/Source/CMSIS_RTOS_V2/cmsis_os2.c ****     }
 6709              		.loc 1 1628 0
 6710 006e 2846     		mov	r0, r5
 6711              	.LVL598:
 6712 0070 FFF7FEFF 		bl	vQueueAddToRegistry
 6713              	.LVL599:
 6714              	.L674:
1635:Middlewares/Third_Party/FreeRTOS/Source/CMSIS_RTOS_V2/cmsis_os2.c **** }
 6715              		.loc 1 1635 0
 6716 0074 2846     		mov	r0, r5
 6717 0076 02B0     		add	sp, sp, #8
 6718              	.LCFI121:
 6719              		.cfi_remember_state
 6720              		.cfi_def_cfa_offset 16
 6721              		@ sp needed
 6722 0078 70BD     		pop	{r4, r5, r6, pc}
 6723              	.LVL600:
 6724              	.L696:
 6725              	.LCFI122:
 6726              		.cfi_restore_state
1591:Middlewares/Third_Party/FreeRTOS/Source/CMSIS_RTOS_V2/cmsis_os2.c **** 
 6727              		.loc 1 1591 0
 6728 007a 0025     		movs	r5, #0
 6729 007c FAE7     		b	.L674
 6730              	.LVL601:
 6731              	.L679:
1613:Middlewares/Third_Party/FreeRTOS/Source/CMSIS_RTOS_V2/cmsis_os2.c ****     }
 6732              		.loc 1 1613 0
 6733 007e 0025     		movs	r5, #0
 6734 0080 0095     		str	r5, [sp]
 6735 0082 FFF7FEFF 		bl	xQueueGenericCreateStatic
 6736              	.LVL602:
1622:Middlewares/Third_Party/FreeRTOS/Source/CMSIS_RTOS_V2/cmsis_os2.c ****       if (attr != NULL) {
 6737              		.loc 1 1622 0
 6738 0086 0546     		mov	r5, r0
 6739 0088 0028     		cmp	r0, #0
 6740 008a EFD1     		bne	.L682
 6741 008c F2E7     		b	.L674
 6742              	.LVL603:
 6743              	.L683:
1591:Middlewares/Third_Party/FreeRTOS/Source/CMSIS_RTOS_V2/cmsis_os2.c **** 
 6744              		.loc 1 1591 0
 6745 008e 0025     		movs	r5, #0
 6746 0090 F0E7     		b	.L674
 6747              	.L684:
 6748 0092 0025     		movs	r5, #0
 6749 0094 EEE7     		b	.L674
 6750              	.L686:
 6751 0096 0025     		movs	r5, #0
 6752 0098 ECE7     		b	.L674
 6753              	.L687:
 6754 009a 0025     		movs	r5, #0
 6755 009c EAE7     		b	.L674
 6756              	.LVL604:
 6757              	.L688:
 6758 009e 0025     		movs	r5, #0
ARM GAS  /tmp/ccjsdB5h.s 			page 170


 6759 00a0 E8E7     		b	.L674
 6760              	.L689:
 6761 00a2 0025     		movs	r5, #0
 6762 00a4 E6E7     		b	.L674
 6763              	.LVL605:
 6764              	.L690:
 6765 00a6 0025     		movs	r5, #0
 6766 00a8 E4E7     		b	.L674
 6767              	.L677:
1617:Middlewares/Third_Party/FreeRTOS/Source/CMSIS_RTOS_V2/cmsis_os2.c ****       }
 6768              		.loc 1 1617 0
 6769 00aa 0022     		movs	r2, #0
 6770              	.LVL606:
 6771 00ac FFF7FEFF 		bl	xQueueGenericCreate
 6772              	.LVL607:
1622:Middlewares/Third_Party/FreeRTOS/Source/CMSIS_RTOS_V2/cmsis_os2.c ****       if (attr != NULL) {
 6773              		.loc 1 1622 0
 6774 00b0 0546     		mov	r5, r0
 6775 00b2 0028     		cmp	r0, #0
 6776 00b4 DED0     		beq	.L674
1626:Middlewares/Third_Party/FreeRTOS/Source/CMSIS_RTOS_V2/cmsis_os2.c ****       }
 6777              		.loc 1 1626 0
 6778 00b6 0021     		movs	r1, #0
 6779 00b8 D9E7     		b	.L681
 6780              	.L698:
 6781 00ba 00BF     		.align	2
 6782              	.L697:
 6783 00bc 00000000 		.word	.LANCHOR0
 6784              		.cfi_endproc
 6785              	.LFE161:
 6787              		.section	.text.osMessageQueuePut,"ax",%progbits
 6788              		.align	1
 6789              		.global	osMessageQueuePut
 6790              		.syntax unified
 6791              		.thumb
 6792              		.thumb_func
 6793              		.fpu fpv4-sp-d16
 6795              	osMessageQueuePut:
 6796              	.LFB162:
1636:Middlewares/Third_Party/FreeRTOS/Source/CMSIS_RTOS_V2/cmsis_os2.c **** 
1637:Middlewares/Third_Party/FreeRTOS/Source/CMSIS_RTOS_V2/cmsis_os2.c **** osStatus_t osMessageQueuePut (osMessageQueueId_t mq_id, const void *msg_ptr, uint8_t msg_prio, uint
 6797              		.loc 1 1637 0
 6798              		.cfi_startproc
 6799              		@ args = 0, pretend = 0, frame = 8
 6800              		@ frame_needed = 0, uses_anonymous_args = 0
 6801              	.LVL608:
 6802 0000 10B5     		push	{r4, lr}
 6803              	.LCFI123:
 6804              		.cfi_def_cfa_offset 8
 6805              		.cfi_offset 4, -8
 6806              		.cfi_offset 14, -4
 6807 0002 82B0     		sub	sp, sp, #8
 6808              	.LCFI124:
 6809              		.cfi_def_cfa_offset 16
 6810 0004 1C46     		mov	r4, r3
 6811              	.LVL609:
 6812              	.LBB626:
ARM GAS  /tmp/ccjsdB5h.s 			page 171


 6813              	.LBB627:
 209:Drivers/CMSIS/Include/cmsis_gcc.h ****   return(result);
 6814              		.loc 2 209 0
 6815              		.syntax unified
 6816              	@ 209 "Drivers/CMSIS/Include/cmsis_gcc.h" 1
 6817 0006 EFF30583 		MRS r3, ipsr
 6818              	@ 0 "" 2
 6819              	.LVL610:
 6820              		.thumb
 6821              		.syntax unified
 6822              	.LBE627:
 6823              	.LBE626:
1638:Middlewares/Third_Party/FreeRTOS/Source/CMSIS_RTOS_V2/cmsis_os2.c ****   QueueHandle_t hQueue = (QueueHandle_t)mq_id;
1639:Middlewares/Third_Party/FreeRTOS/Source/CMSIS_RTOS_V2/cmsis_os2.c ****   osStatus_t stat;
1640:Middlewares/Third_Party/FreeRTOS/Source/CMSIS_RTOS_V2/cmsis_os2.c ****   BaseType_t yield;
1641:Middlewares/Third_Party/FreeRTOS/Source/CMSIS_RTOS_V2/cmsis_os2.c **** 
1642:Middlewares/Third_Party/FreeRTOS/Source/CMSIS_RTOS_V2/cmsis_os2.c ****   (void)msg_prio; /* Message priority is ignored */
1643:Middlewares/Third_Party/FreeRTOS/Source/CMSIS_RTOS_V2/cmsis_os2.c **** 
1644:Middlewares/Third_Party/FreeRTOS/Source/CMSIS_RTOS_V2/cmsis_os2.c ****   stat = osOK;
1645:Middlewares/Third_Party/FreeRTOS/Source/CMSIS_RTOS_V2/cmsis_os2.c **** 
1646:Middlewares/Third_Party/FreeRTOS/Source/CMSIS_RTOS_V2/cmsis_os2.c ****   if (IS_IRQ()) {
 6824              		.loc 1 1646 0
 6825 000a DBB9     		cbnz	r3, .L700
 6826              	.LBB628:
 6827              	.LBB629:
 386:Drivers/CMSIS/Include/cmsis_gcc.h ****   return(result);
 6828              		.loc 2 386 0
 6829              		.syntax unified
 6830              	@ 386 "Drivers/CMSIS/Include/cmsis_gcc.h" 1
 6831 000c EFF31083 		MRS r3, primask
 6832              	@ 0 "" 2
 6833              		.thumb
 6834              		.syntax unified
 6835              	.LBE629:
 6836              	.LBE628:
 6837              		.loc 1 1646 0
 6838 0010 C3B9     		cbnz	r3, .L700
 6839              		.loc 1 1646 0 is_stmt 0 discriminator 2
 6840 0012 234B     		ldr	r3, .L714
 6841 0014 1B68     		ldr	r3, [r3]
 6842 0016 022B     		cmp	r3, #2
 6843 0018 10D0     		beq	.L713
 6844              	.L701:
1647:Middlewares/Third_Party/FreeRTOS/Source/CMSIS_RTOS_V2/cmsis_os2.c ****     if ((hQueue == NULL) || (msg_ptr == NULL) || (timeout != 0U)) {
1648:Middlewares/Third_Party/FreeRTOS/Source/CMSIS_RTOS_V2/cmsis_os2.c ****       stat = osErrorParameter;
1649:Middlewares/Third_Party/FreeRTOS/Source/CMSIS_RTOS_V2/cmsis_os2.c ****     }
1650:Middlewares/Third_Party/FreeRTOS/Source/CMSIS_RTOS_V2/cmsis_os2.c ****     else {
1651:Middlewares/Third_Party/FreeRTOS/Source/CMSIS_RTOS_V2/cmsis_os2.c ****       yield = pdFALSE;
1652:Middlewares/Third_Party/FreeRTOS/Source/CMSIS_RTOS_V2/cmsis_os2.c **** 
1653:Middlewares/Third_Party/FreeRTOS/Source/CMSIS_RTOS_V2/cmsis_os2.c ****       if (xQueueSendToBackFromISR (hQueue, msg_ptr, &yield) != pdTRUE) {
1654:Middlewares/Third_Party/FreeRTOS/Source/CMSIS_RTOS_V2/cmsis_os2.c ****         stat = osErrorResource;
1655:Middlewares/Third_Party/FreeRTOS/Source/CMSIS_RTOS_V2/cmsis_os2.c ****       } else {
1656:Middlewares/Third_Party/FreeRTOS/Source/CMSIS_RTOS_V2/cmsis_os2.c ****         portYIELD_FROM_ISR (yield);
1657:Middlewares/Third_Party/FreeRTOS/Source/CMSIS_RTOS_V2/cmsis_os2.c ****       }
1658:Middlewares/Third_Party/FreeRTOS/Source/CMSIS_RTOS_V2/cmsis_os2.c ****     }
1659:Middlewares/Third_Party/FreeRTOS/Source/CMSIS_RTOS_V2/cmsis_os2.c ****   }
1660:Middlewares/Third_Party/FreeRTOS/Source/CMSIS_RTOS_V2/cmsis_os2.c ****   else {
ARM GAS  /tmp/ccjsdB5h.s 			page 172


1661:Middlewares/Third_Party/FreeRTOS/Source/CMSIS_RTOS_V2/cmsis_os2.c ****     if ((hQueue == NULL) || (msg_ptr == NULL)) {
 6845              		.loc 1 1661 0 is_stmt 1
 6846 001a 0028     		cmp	r0, #0
 6847 001c 38D0     		beq	.L708
 6848              		.loc 1 1661 0 is_stmt 0 discriminator 1
 6849 001e 0029     		cmp	r1, #0
 6850 0020 39D0     		beq	.L709
1662:Middlewares/Third_Party/FreeRTOS/Source/CMSIS_RTOS_V2/cmsis_os2.c ****       stat = osErrorParameter;
1663:Middlewares/Third_Party/FreeRTOS/Source/CMSIS_RTOS_V2/cmsis_os2.c ****     }
1664:Middlewares/Third_Party/FreeRTOS/Source/CMSIS_RTOS_V2/cmsis_os2.c ****     else {
1665:Middlewares/Third_Party/FreeRTOS/Source/CMSIS_RTOS_V2/cmsis_os2.c ****       if (xQueueSendToBack (hQueue, msg_ptr, (TickType_t)timeout) != pdPASS) {
 6851              		.loc 1 1665 0 is_stmt 1
 6852 0022 0023     		movs	r3, #0
 6853 0024 2246     		mov	r2, r4
 6854              	.LVL611:
 6855 0026 FFF7FEFF 		bl	xQueueGenericSend
 6856              	.LVL612:
 6857 002a 0128     		cmp	r0, #1
 6858 002c 36D0     		beq	.L710
1666:Middlewares/Third_Party/FreeRTOS/Source/CMSIS_RTOS_V2/cmsis_os2.c ****         if (timeout != 0U) {
1667:Middlewares/Third_Party/FreeRTOS/Source/CMSIS_RTOS_V2/cmsis_os2.c ****           stat = osErrorTimeout;
1668:Middlewares/Third_Party/FreeRTOS/Source/CMSIS_RTOS_V2/cmsis_os2.c ****         } else {
1669:Middlewares/Third_Party/FreeRTOS/Source/CMSIS_RTOS_V2/cmsis_os2.c ****           stat = osErrorResource;
 6859              		.loc 1 1669 0
 6860 002e 002C     		cmp	r4, #0
 6861 0030 14BF     		ite	ne
 6862 0032 6FF00100 		mvnne	r0, #1
 6863 0036 6FF00200 		mvneq	r0, #2
 6864 003a 27E0     		b	.L699
 6865              	.LVL613:
 6866              	.L713:
 6867              	.LBB630:
 6868              	.LBB631:
 6869              		.loc 2 465 0
 6870              		.syntax unified
 6871              	@ 465 "Drivers/CMSIS/Include/cmsis_gcc.h" 1
 6872 003c EFF31183 		MRS r3, basepri
 6873              	@ 0 "" 2
 6874              		.thumb
 6875              		.syntax unified
 6876              	.LBE631:
 6877              	.LBE630:
1646:Middlewares/Third_Party/FreeRTOS/Source/CMSIS_RTOS_V2/cmsis_os2.c ****     if ((hQueue == NULL) || (msg_ptr == NULL) || (timeout != 0U)) {
 6878              		.loc 1 1646 0
 6879 0040 002B     		cmp	r3, #0
 6880 0042 EAD0     		beq	.L701
 6881              	.L700:
1647:Middlewares/Third_Party/FreeRTOS/Source/CMSIS_RTOS_V2/cmsis_os2.c ****       stat = osErrorParameter;
 6882              		.loc 1 1647 0
 6883 0044 A8B1     		cbz	r0, .L703
1647:Middlewares/Third_Party/FreeRTOS/Source/CMSIS_RTOS_V2/cmsis_os2.c ****       stat = osErrorParameter;
 6884              		.loc 1 1647 0 is_stmt 0 discriminator 1
 6885 0046 B9B1     		cbz	r1, .L704
1647:Middlewares/Third_Party/FreeRTOS/Source/CMSIS_RTOS_V2/cmsis_os2.c ****       stat = osErrorParameter;
 6886              		.loc 1 1647 0 discriminator 2
 6887 0048 CCB9     		cbnz	r4, .L705
1651:Middlewares/Third_Party/FreeRTOS/Source/CMSIS_RTOS_V2/cmsis_os2.c **** 
ARM GAS  /tmp/ccjsdB5h.s 			page 173


 6888              		.loc 1 1651 0 is_stmt 1
 6889 004a 0023     		movs	r3, #0
 6890 004c 02AA     		add	r2, sp, #8
 6891              	.LVL614:
 6892 004e 42F8043D 		str	r3, [r2, #-4]!
1653:Middlewares/Third_Party/FreeRTOS/Source/CMSIS_RTOS_V2/cmsis_os2.c ****         stat = osErrorResource;
 6893              		.loc 1 1653 0
 6894 0052 FFF7FEFF 		bl	xQueueGenericSendFromISR
 6895              	.LVL615:
 6896 0056 0128     		cmp	r0, #1
 6897 0058 14D1     		bne	.L706
1656:Middlewares/Third_Party/FreeRTOS/Source/CMSIS_RTOS_V2/cmsis_os2.c ****       }
 6898              		.loc 1 1656 0
 6899 005a 019B     		ldr	r3, [sp, #4]
 6900 005c ABB1     		cbz	r3, .L707
1656:Middlewares/Third_Party/FreeRTOS/Source/CMSIS_RTOS_V2/cmsis_os2.c ****       }
 6901              		.loc 1 1656 0 is_stmt 0 discriminator 1
 6902 005e 114B     		ldr	r3, .L714+4
 6903 0060 4FF08052 		mov	r2, #268435456
 6904 0064 1A60     		str	r2, [r3]
 6905              		.syntax unified
 6906              	@ 1656 "Middlewares/Third_Party/FreeRTOS/Source/CMSIS_RTOS_V2/cmsis_os2.c" 1
 6907 0066 BFF34F8F 		dsb
 6908              	@ 0 "" 2
 6909              	@ 1656 "Middlewares/Third_Party/FreeRTOS/Source/CMSIS_RTOS_V2/cmsis_os2.c" 1
 6910 006a BFF36F8F 		isb
 6911              	@ 0 "" 2
1644:Middlewares/Third_Party/FreeRTOS/Source/CMSIS_RTOS_V2/cmsis_os2.c **** 
 6912              		.loc 1 1644 0 is_stmt 1 discriminator 1
 6913              		.thumb
 6914              		.syntax unified
 6915 006e 0020     		movs	r0, #0
 6916 0070 0CE0     		b	.L699
 6917              	.LVL616:
 6918              	.L703:
1648:Middlewares/Third_Party/FreeRTOS/Source/CMSIS_RTOS_V2/cmsis_os2.c ****     }
 6919              		.loc 1 1648 0
 6920 0072 6FF00300 		mvn	r0, #3
 6921              	.LVL617:
 6922 0076 09E0     		b	.L699
 6923              	.LVL618:
 6924              	.L704:
 6925 0078 6FF00300 		mvn	r0, #3
 6926              	.LVL619:
 6927 007c 06E0     		b	.L699
 6928              	.LVL620:
 6929              	.L705:
 6930 007e 6FF00300 		mvn	r0, #3
 6931              	.LVL621:
 6932 0082 03E0     		b	.L699
 6933              	.LVL622:
 6934              	.L706:
1654:Middlewares/Third_Party/FreeRTOS/Source/CMSIS_RTOS_V2/cmsis_os2.c ****       } else {
 6935              		.loc 1 1654 0
 6936 0084 6FF00200 		mvn	r0, #2
 6937 0088 00E0     		b	.L699
 6938              	.L707:
ARM GAS  /tmp/ccjsdB5h.s 			page 174


1644:Middlewares/Third_Party/FreeRTOS/Source/CMSIS_RTOS_V2/cmsis_os2.c **** 
 6939              		.loc 1 1644 0
 6940 008a 0020     		movs	r0, #0
 6941              	.L699:
1670:Middlewares/Third_Party/FreeRTOS/Source/CMSIS_RTOS_V2/cmsis_os2.c ****         }
1671:Middlewares/Third_Party/FreeRTOS/Source/CMSIS_RTOS_V2/cmsis_os2.c ****       }
1672:Middlewares/Third_Party/FreeRTOS/Source/CMSIS_RTOS_V2/cmsis_os2.c ****     }
1673:Middlewares/Third_Party/FreeRTOS/Source/CMSIS_RTOS_V2/cmsis_os2.c ****   }
1674:Middlewares/Third_Party/FreeRTOS/Source/CMSIS_RTOS_V2/cmsis_os2.c **** 
1675:Middlewares/Third_Party/FreeRTOS/Source/CMSIS_RTOS_V2/cmsis_os2.c ****   return (stat);
1676:Middlewares/Third_Party/FreeRTOS/Source/CMSIS_RTOS_V2/cmsis_os2.c **** }
 6942              		.loc 1 1676 0
 6943 008c 02B0     		add	sp, sp, #8
 6944              	.LCFI125:
 6945              		.cfi_remember_state
 6946              		.cfi_def_cfa_offset 8
 6947              		@ sp needed
 6948 008e 10BD     		pop	{r4, pc}
 6949              	.LVL623:
 6950              	.L708:
 6951              	.LCFI126:
 6952              		.cfi_restore_state
1662:Middlewares/Third_Party/FreeRTOS/Source/CMSIS_RTOS_V2/cmsis_os2.c ****     }
 6953              		.loc 1 1662 0
 6954 0090 6FF00300 		mvn	r0, #3
 6955              	.LVL624:
 6956 0094 FAE7     		b	.L699
 6957              	.LVL625:
 6958              	.L709:
 6959 0096 6FF00300 		mvn	r0, #3
 6960              	.LVL626:
 6961 009a F7E7     		b	.L699
 6962              	.LVL627:
 6963              	.L710:
1644:Middlewares/Third_Party/FreeRTOS/Source/CMSIS_RTOS_V2/cmsis_os2.c **** 
 6964              		.loc 1 1644 0
 6965 009c 0020     		movs	r0, #0
 6966 009e F5E7     		b	.L699
 6967              	.L715:
 6968              		.align	2
 6969              	.L714:
 6970 00a0 00000000 		.word	.LANCHOR0
 6971 00a4 04ED00E0 		.word	-536810236
 6972              		.cfi_endproc
 6973              	.LFE162:
 6975              		.section	.text.osMessageQueueGet,"ax",%progbits
 6976              		.align	1
 6977              		.global	osMessageQueueGet
 6978              		.syntax unified
 6979              		.thumb
 6980              		.thumb_func
 6981              		.fpu fpv4-sp-d16
 6983              	osMessageQueueGet:
 6984              	.LFB163:
1677:Middlewares/Third_Party/FreeRTOS/Source/CMSIS_RTOS_V2/cmsis_os2.c **** 
1678:Middlewares/Third_Party/FreeRTOS/Source/CMSIS_RTOS_V2/cmsis_os2.c **** osStatus_t osMessageQueueGet (osMessageQueueId_t mq_id, void *msg_ptr, uint8_t *msg_prio, uint32_t 
 6985              		.loc 1 1678 0
ARM GAS  /tmp/ccjsdB5h.s 			page 175


 6986              		.cfi_startproc
 6987              		@ args = 0, pretend = 0, frame = 8
 6988              		@ frame_needed = 0, uses_anonymous_args = 0
 6989              	.LVL628:
 6990 0000 10B5     		push	{r4, lr}
 6991              	.LCFI127:
 6992              		.cfi_def_cfa_offset 8
 6993              		.cfi_offset 4, -8
 6994              		.cfi_offset 14, -4
 6995 0002 82B0     		sub	sp, sp, #8
 6996              	.LCFI128:
 6997              		.cfi_def_cfa_offset 16
 6998 0004 1C46     		mov	r4, r3
 6999              	.LVL629:
 7000              	.LBB632:
 7001              	.LBB633:
 209:Drivers/CMSIS/Include/cmsis_gcc.h ****   return(result);
 7002              		.loc 2 209 0
 7003              		.syntax unified
 7004              	@ 209 "Drivers/CMSIS/Include/cmsis_gcc.h" 1
 7005 0006 EFF30583 		MRS r3, ipsr
 7006              	@ 0 "" 2
 7007              	.LVL630:
 7008              		.thumb
 7009              		.syntax unified
 7010              	.LBE633:
 7011              	.LBE632:
1679:Middlewares/Third_Party/FreeRTOS/Source/CMSIS_RTOS_V2/cmsis_os2.c ****   QueueHandle_t hQueue = (QueueHandle_t)mq_id;
1680:Middlewares/Third_Party/FreeRTOS/Source/CMSIS_RTOS_V2/cmsis_os2.c ****   osStatus_t stat;
1681:Middlewares/Third_Party/FreeRTOS/Source/CMSIS_RTOS_V2/cmsis_os2.c ****   BaseType_t yield;
1682:Middlewares/Third_Party/FreeRTOS/Source/CMSIS_RTOS_V2/cmsis_os2.c **** 
1683:Middlewares/Third_Party/FreeRTOS/Source/CMSIS_RTOS_V2/cmsis_os2.c ****   (void)msg_prio; /* Message priority is ignored */
1684:Middlewares/Third_Party/FreeRTOS/Source/CMSIS_RTOS_V2/cmsis_os2.c **** 
1685:Middlewares/Third_Party/FreeRTOS/Source/CMSIS_RTOS_V2/cmsis_os2.c ****   stat = osOK;
1686:Middlewares/Third_Party/FreeRTOS/Source/CMSIS_RTOS_V2/cmsis_os2.c **** 
1687:Middlewares/Third_Party/FreeRTOS/Source/CMSIS_RTOS_V2/cmsis_os2.c ****   if (IS_IRQ()) {
 7012              		.loc 1 1687 0
 7013 000a D3B9     		cbnz	r3, .L717
 7014              	.LBB634:
 7015              	.LBB635:
 386:Drivers/CMSIS/Include/cmsis_gcc.h ****   return(result);
 7016              		.loc 2 386 0
 7017              		.syntax unified
 7018              	@ 386 "Drivers/CMSIS/Include/cmsis_gcc.h" 1
 7019 000c EFF31083 		MRS r3, primask
 7020              	@ 0 "" 2
 7021              		.thumb
 7022              		.syntax unified
 7023              	.LBE635:
 7024              	.LBE634:
 7025              		.loc 1 1687 0
 7026 0010 BBB9     		cbnz	r3, .L717
 7027              		.loc 1 1687 0 is_stmt 0 discriminator 2
 7028 0012 234B     		ldr	r3, .L731
 7029 0014 1B68     		ldr	r3, [r3]
 7030 0016 022B     		cmp	r3, #2
 7031 0018 0FD0     		beq	.L730
ARM GAS  /tmp/ccjsdB5h.s 			page 176


 7032              	.L718:
1688:Middlewares/Third_Party/FreeRTOS/Source/CMSIS_RTOS_V2/cmsis_os2.c ****     if ((hQueue == NULL) || (msg_ptr == NULL) || (timeout != 0U)) {
1689:Middlewares/Third_Party/FreeRTOS/Source/CMSIS_RTOS_V2/cmsis_os2.c ****       stat = osErrorParameter;
1690:Middlewares/Third_Party/FreeRTOS/Source/CMSIS_RTOS_V2/cmsis_os2.c ****     }
1691:Middlewares/Third_Party/FreeRTOS/Source/CMSIS_RTOS_V2/cmsis_os2.c ****     else {
1692:Middlewares/Third_Party/FreeRTOS/Source/CMSIS_RTOS_V2/cmsis_os2.c ****       yield = pdFALSE;
1693:Middlewares/Third_Party/FreeRTOS/Source/CMSIS_RTOS_V2/cmsis_os2.c **** 
1694:Middlewares/Third_Party/FreeRTOS/Source/CMSIS_RTOS_V2/cmsis_os2.c ****       if (xQueueReceiveFromISR (hQueue, msg_ptr, &yield) != pdPASS) {
1695:Middlewares/Third_Party/FreeRTOS/Source/CMSIS_RTOS_V2/cmsis_os2.c ****         stat = osErrorResource;
1696:Middlewares/Third_Party/FreeRTOS/Source/CMSIS_RTOS_V2/cmsis_os2.c ****       } else {
1697:Middlewares/Third_Party/FreeRTOS/Source/CMSIS_RTOS_V2/cmsis_os2.c ****         portYIELD_FROM_ISR (yield);
1698:Middlewares/Third_Party/FreeRTOS/Source/CMSIS_RTOS_V2/cmsis_os2.c ****       }
1699:Middlewares/Third_Party/FreeRTOS/Source/CMSIS_RTOS_V2/cmsis_os2.c ****     }
1700:Middlewares/Third_Party/FreeRTOS/Source/CMSIS_RTOS_V2/cmsis_os2.c ****   }
1701:Middlewares/Third_Party/FreeRTOS/Source/CMSIS_RTOS_V2/cmsis_os2.c ****   else {
1702:Middlewares/Third_Party/FreeRTOS/Source/CMSIS_RTOS_V2/cmsis_os2.c ****     if ((hQueue == NULL) || (msg_ptr == NULL)) {
 7033              		.loc 1 1702 0 is_stmt 1
 7034 001a 0028     		cmp	r0, #0
 7035 001c 37D0     		beq	.L725
 7036              		.loc 1 1702 0 is_stmt 0 discriminator 1
 7037 001e 0029     		cmp	r1, #0
 7038 0020 38D0     		beq	.L726
1703:Middlewares/Third_Party/FreeRTOS/Source/CMSIS_RTOS_V2/cmsis_os2.c ****       stat = osErrorParameter;
1704:Middlewares/Third_Party/FreeRTOS/Source/CMSIS_RTOS_V2/cmsis_os2.c ****     }
1705:Middlewares/Third_Party/FreeRTOS/Source/CMSIS_RTOS_V2/cmsis_os2.c ****     else {
1706:Middlewares/Third_Party/FreeRTOS/Source/CMSIS_RTOS_V2/cmsis_os2.c ****       if (xQueueReceive (hQueue, msg_ptr, (TickType_t)timeout) != pdPASS) {
 7039              		.loc 1 1706 0 is_stmt 1
 7040 0022 2246     		mov	r2, r4
 7041              	.LVL631:
 7042 0024 FFF7FEFF 		bl	xQueueReceive
 7043              	.LVL632:
 7044 0028 0128     		cmp	r0, #1
 7045 002a 36D0     		beq	.L727
1707:Middlewares/Third_Party/FreeRTOS/Source/CMSIS_RTOS_V2/cmsis_os2.c ****         if (timeout != 0U) {
1708:Middlewares/Third_Party/FreeRTOS/Source/CMSIS_RTOS_V2/cmsis_os2.c ****           stat = osErrorTimeout;
1709:Middlewares/Third_Party/FreeRTOS/Source/CMSIS_RTOS_V2/cmsis_os2.c ****         } else {
1710:Middlewares/Third_Party/FreeRTOS/Source/CMSIS_RTOS_V2/cmsis_os2.c ****           stat = osErrorResource;
 7046              		.loc 1 1710 0
 7047 002c 002C     		cmp	r4, #0
 7048 002e 14BF     		ite	ne
 7049 0030 6FF00100 		mvnne	r0, #1
 7050 0034 6FF00200 		mvneq	r0, #2
 7051 0038 27E0     		b	.L716
 7052              	.LVL633:
 7053              	.L730:
 7054              	.LBB636:
 7055              	.LBB637:
 7056              		.loc 2 465 0
 7057              		.syntax unified
 7058              	@ 465 "Drivers/CMSIS/Include/cmsis_gcc.h" 1
 7059 003a EFF31183 		MRS r3, basepri
 7060              	@ 0 "" 2
 7061              		.thumb
 7062              		.syntax unified
 7063              	.LBE637:
 7064              	.LBE636:
1687:Middlewares/Third_Party/FreeRTOS/Source/CMSIS_RTOS_V2/cmsis_os2.c ****     if ((hQueue == NULL) || (msg_ptr == NULL) || (timeout != 0U)) {
ARM GAS  /tmp/ccjsdB5h.s 			page 177


 7065              		.loc 1 1687 0
 7066 003e 002B     		cmp	r3, #0
 7067 0040 EBD0     		beq	.L718
 7068              	.L717:
1688:Middlewares/Third_Party/FreeRTOS/Source/CMSIS_RTOS_V2/cmsis_os2.c ****       stat = osErrorParameter;
 7069              		.loc 1 1688 0
 7070 0042 A8B1     		cbz	r0, .L720
1688:Middlewares/Third_Party/FreeRTOS/Source/CMSIS_RTOS_V2/cmsis_os2.c ****       stat = osErrorParameter;
 7071              		.loc 1 1688 0 is_stmt 0 discriminator 1
 7072 0044 B9B1     		cbz	r1, .L721
1688:Middlewares/Third_Party/FreeRTOS/Source/CMSIS_RTOS_V2/cmsis_os2.c ****       stat = osErrorParameter;
 7073              		.loc 1 1688 0 discriminator 2
 7074 0046 CCB9     		cbnz	r4, .L722
1692:Middlewares/Third_Party/FreeRTOS/Source/CMSIS_RTOS_V2/cmsis_os2.c **** 
 7075              		.loc 1 1692 0 is_stmt 1
 7076 0048 02AA     		add	r2, sp, #8
 7077              	.LVL634:
 7078 004a 0023     		movs	r3, #0
 7079 004c 42F8043D 		str	r3, [r2, #-4]!
1694:Middlewares/Third_Party/FreeRTOS/Source/CMSIS_RTOS_V2/cmsis_os2.c ****         stat = osErrorResource;
 7080              		.loc 1 1694 0
 7081 0050 FFF7FEFF 		bl	xQueueReceiveFromISR
 7082              	.LVL635:
 7083 0054 0128     		cmp	r0, #1
 7084 0056 14D1     		bne	.L723
1697:Middlewares/Third_Party/FreeRTOS/Source/CMSIS_RTOS_V2/cmsis_os2.c ****       }
 7085              		.loc 1 1697 0
 7086 0058 019B     		ldr	r3, [sp, #4]
 7087 005a ABB1     		cbz	r3, .L724
1697:Middlewares/Third_Party/FreeRTOS/Source/CMSIS_RTOS_V2/cmsis_os2.c ****       }
 7088              		.loc 1 1697 0 is_stmt 0 discriminator 1
 7089 005c 114B     		ldr	r3, .L731+4
 7090 005e 4FF08052 		mov	r2, #268435456
 7091 0062 1A60     		str	r2, [r3]
 7092              		.syntax unified
 7093              	@ 1697 "Middlewares/Third_Party/FreeRTOS/Source/CMSIS_RTOS_V2/cmsis_os2.c" 1
 7094 0064 BFF34F8F 		dsb
 7095              	@ 0 "" 2
 7096              	@ 1697 "Middlewares/Third_Party/FreeRTOS/Source/CMSIS_RTOS_V2/cmsis_os2.c" 1
 7097 0068 BFF36F8F 		isb
 7098              	@ 0 "" 2
1685:Middlewares/Third_Party/FreeRTOS/Source/CMSIS_RTOS_V2/cmsis_os2.c **** 
 7099              		.loc 1 1685 0 is_stmt 1 discriminator 1
 7100              		.thumb
 7101              		.syntax unified
 7102 006c 0020     		movs	r0, #0
 7103 006e 0CE0     		b	.L716
 7104              	.LVL636:
 7105              	.L720:
1689:Middlewares/Third_Party/FreeRTOS/Source/CMSIS_RTOS_V2/cmsis_os2.c ****     }
 7106              		.loc 1 1689 0
 7107 0070 6FF00300 		mvn	r0, #3
 7108              	.LVL637:
 7109 0074 09E0     		b	.L716
 7110              	.LVL638:
 7111              	.L721:
 7112 0076 6FF00300 		mvn	r0, #3
ARM GAS  /tmp/ccjsdB5h.s 			page 178


 7113              	.LVL639:
 7114 007a 06E0     		b	.L716
 7115              	.LVL640:
 7116              	.L722:
 7117 007c 6FF00300 		mvn	r0, #3
 7118              	.LVL641:
 7119 0080 03E0     		b	.L716
 7120              	.LVL642:
 7121              	.L723:
1695:Middlewares/Third_Party/FreeRTOS/Source/CMSIS_RTOS_V2/cmsis_os2.c ****       } else {
 7122              		.loc 1 1695 0
 7123 0082 6FF00200 		mvn	r0, #2
 7124 0086 00E0     		b	.L716
 7125              	.L724:
1685:Middlewares/Third_Party/FreeRTOS/Source/CMSIS_RTOS_V2/cmsis_os2.c **** 
 7126              		.loc 1 1685 0
 7127 0088 0020     		movs	r0, #0
 7128              	.L716:
1711:Middlewares/Third_Party/FreeRTOS/Source/CMSIS_RTOS_V2/cmsis_os2.c ****         }
1712:Middlewares/Third_Party/FreeRTOS/Source/CMSIS_RTOS_V2/cmsis_os2.c ****       }
1713:Middlewares/Third_Party/FreeRTOS/Source/CMSIS_RTOS_V2/cmsis_os2.c ****     }
1714:Middlewares/Third_Party/FreeRTOS/Source/CMSIS_RTOS_V2/cmsis_os2.c ****   }
1715:Middlewares/Third_Party/FreeRTOS/Source/CMSIS_RTOS_V2/cmsis_os2.c **** 
1716:Middlewares/Third_Party/FreeRTOS/Source/CMSIS_RTOS_V2/cmsis_os2.c ****   return (stat);
1717:Middlewares/Third_Party/FreeRTOS/Source/CMSIS_RTOS_V2/cmsis_os2.c **** }
 7129              		.loc 1 1717 0
 7130 008a 02B0     		add	sp, sp, #8
 7131              	.LCFI129:
 7132              		.cfi_remember_state
 7133              		.cfi_def_cfa_offset 8
 7134              		@ sp needed
 7135 008c 10BD     		pop	{r4, pc}
 7136              	.LVL643:
 7137              	.L725:
 7138              	.LCFI130:
 7139              		.cfi_restore_state
1703:Middlewares/Third_Party/FreeRTOS/Source/CMSIS_RTOS_V2/cmsis_os2.c ****     }
 7140              		.loc 1 1703 0
 7141 008e 6FF00300 		mvn	r0, #3
 7142              	.LVL644:
 7143 0092 FAE7     		b	.L716
 7144              	.LVL645:
 7145              	.L726:
 7146 0094 6FF00300 		mvn	r0, #3
 7147              	.LVL646:
 7148 0098 F7E7     		b	.L716
 7149              	.LVL647:
 7150              	.L727:
1685:Middlewares/Third_Party/FreeRTOS/Source/CMSIS_RTOS_V2/cmsis_os2.c **** 
 7151              		.loc 1 1685 0
 7152 009a 0020     		movs	r0, #0
 7153 009c F5E7     		b	.L716
 7154              	.L732:
 7155 009e 00BF     		.align	2
 7156              	.L731:
 7157 00a0 00000000 		.word	.LANCHOR0
 7158 00a4 04ED00E0 		.word	-536810236
ARM GAS  /tmp/ccjsdB5h.s 			page 179


 7159              		.cfi_endproc
 7160              	.LFE163:
 7162              		.section	.text.osMessageQueueGetCapacity,"ax",%progbits
 7163              		.align	1
 7164              		.global	osMessageQueueGetCapacity
 7165              		.syntax unified
 7166              		.thumb
 7167              		.thumb_func
 7168              		.fpu fpv4-sp-d16
 7170              	osMessageQueueGetCapacity:
 7171              	.LFB164:
1718:Middlewares/Third_Party/FreeRTOS/Source/CMSIS_RTOS_V2/cmsis_os2.c **** 
1719:Middlewares/Third_Party/FreeRTOS/Source/CMSIS_RTOS_V2/cmsis_os2.c **** uint32_t osMessageQueueGetCapacity (osMessageQueueId_t mq_id) {
 7172              		.loc 1 1719 0
 7173              		.cfi_startproc
 7174              		@ args = 0, pretend = 0, frame = 0
 7175              		@ frame_needed = 0, uses_anonymous_args = 0
 7176              		@ link register save eliminated.
 7177              	.LVL648:
1720:Middlewares/Third_Party/FreeRTOS/Source/CMSIS_RTOS_V2/cmsis_os2.c ****   StaticQueue_t *mq = (StaticQueue_t *)mq_id;
1721:Middlewares/Third_Party/FreeRTOS/Source/CMSIS_RTOS_V2/cmsis_os2.c ****   uint32_t capacity;
1722:Middlewares/Third_Party/FreeRTOS/Source/CMSIS_RTOS_V2/cmsis_os2.c **** 
1723:Middlewares/Third_Party/FreeRTOS/Source/CMSIS_RTOS_V2/cmsis_os2.c ****   if (mq == NULL) {
 7178              		.loc 1 1723 0
 7179 0000 08B1     		cbz	r0, .L735
1724:Middlewares/Third_Party/FreeRTOS/Source/CMSIS_RTOS_V2/cmsis_os2.c ****     capacity = 0U;
1725:Middlewares/Third_Party/FreeRTOS/Source/CMSIS_RTOS_V2/cmsis_os2.c ****   } else {
1726:Middlewares/Third_Party/FreeRTOS/Source/CMSIS_RTOS_V2/cmsis_os2.c ****     /* capacity = pxQueue->uxLength */
1727:Middlewares/Third_Party/FreeRTOS/Source/CMSIS_RTOS_V2/cmsis_os2.c ****     capacity = mq->uxDummy4[1];
 7180              		.loc 1 1727 0
 7181 0002 C06B     		ldr	r0, [r0, #60]
 7182              	.LVL649:
 7183 0004 7047     		bx	lr
 7184              	.LVL650:
 7185              	.L735:
1724:Middlewares/Third_Party/FreeRTOS/Source/CMSIS_RTOS_V2/cmsis_os2.c ****     capacity = 0U;
 7186              		.loc 1 1724 0
 7187 0006 0020     		movs	r0, #0
 7188              	.LVL651:
1728:Middlewares/Third_Party/FreeRTOS/Source/CMSIS_RTOS_V2/cmsis_os2.c ****   }
1729:Middlewares/Third_Party/FreeRTOS/Source/CMSIS_RTOS_V2/cmsis_os2.c **** 
1730:Middlewares/Third_Party/FreeRTOS/Source/CMSIS_RTOS_V2/cmsis_os2.c ****   return (capacity);
1731:Middlewares/Third_Party/FreeRTOS/Source/CMSIS_RTOS_V2/cmsis_os2.c **** }
 7189              		.loc 1 1731 0
 7190 0008 7047     		bx	lr
 7191              		.cfi_endproc
 7192              	.LFE164:
 7194              		.section	.text.osMessageQueueGetMsgSize,"ax",%progbits
 7195              		.align	1
 7196              		.global	osMessageQueueGetMsgSize
 7197              		.syntax unified
 7198              		.thumb
 7199              		.thumb_func
 7200              		.fpu fpv4-sp-d16
 7202              	osMessageQueueGetMsgSize:
 7203              	.LFB165:
1732:Middlewares/Third_Party/FreeRTOS/Source/CMSIS_RTOS_V2/cmsis_os2.c **** 
ARM GAS  /tmp/ccjsdB5h.s 			page 180


1733:Middlewares/Third_Party/FreeRTOS/Source/CMSIS_RTOS_V2/cmsis_os2.c **** uint32_t osMessageQueueGetMsgSize (osMessageQueueId_t mq_id) {
 7204              		.loc 1 1733 0
 7205              		.cfi_startproc
 7206              		@ args = 0, pretend = 0, frame = 0
 7207              		@ frame_needed = 0, uses_anonymous_args = 0
 7208              		@ link register save eliminated.
 7209              	.LVL652:
1734:Middlewares/Third_Party/FreeRTOS/Source/CMSIS_RTOS_V2/cmsis_os2.c ****   StaticQueue_t *mq = (StaticQueue_t *)mq_id;
1735:Middlewares/Third_Party/FreeRTOS/Source/CMSIS_RTOS_V2/cmsis_os2.c ****   uint32_t size;
1736:Middlewares/Third_Party/FreeRTOS/Source/CMSIS_RTOS_V2/cmsis_os2.c **** 
1737:Middlewares/Third_Party/FreeRTOS/Source/CMSIS_RTOS_V2/cmsis_os2.c ****   if (mq == NULL) {
 7210              		.loc 1 1737 0
 7211 0000 08B1     		cbz	r0, .L738
1738:Middlewares/Third_Party/FreeRTOS/Source/CMSIS_RTOS_V2/cmsis_os2.c ****     size = 0U;
1739:Middlewares/Third_Party/FreeRTOS/Source/CMSIS_RTOS_V2/cmsis_os2.c ****   } else {
1740:Middlewares/Third_Party/FreeRTOS/Source/CMSIS_RTOS_V2/cmsis_os2.c ****     /* size = pxQueue->uxItemSize */
1741:Middlewares/Third_Party/FreeRTOS/Source/CMSIS_RTOS_V2/cmsis_os2.c ****     size = mq->uxDummy4[2];
 7212              		.loc 1 1741 0
 7213 0002 006C     		ldr	r0, [r0, #64]
 7214              	.LVL653:
 7215 0004 7047     		bx	lr
 7216              	.LVL654:
 7217              	.L738:
1738:Middlewares/Third_Party/FreeRTOS/Source/CMSIS_RTOS_V2/cmsis_os2.c ****     size = 0U;
 7218              		.loc 1 1738 0
 7219 0006 0020     		movs	r0, #0
 7220              	.LVL655:
1742:Middlewares/Third_Party/FreeRTOS/Source/CMSIS_RTOS_V2/cmsis_os2.c ****   }
1743:Middlewares/Third_Party/FreeRTOS/Source/CMSIS_RTOS_V2/cmsis_os2.c **** 
1744:Middlewares/Third_Party/FreeRTOS/Source/CMSIS_RTOS_V2/cmsis_os2.c ****   return (size);
1745:Middlewares/Third_Party/FreeRTOS/Source/CMSIS_RTOS_V2/cmsis_os2.c **** }
 7221              		.loc 1 1745 0
 7222 0008 7047     		bx	lr
 7223              		.cfi_endproc
 7224              	.LFE165:
 7226              		.section	.text.osMessageQueueGetCount,"ax",%progbits
 7227              		.align	1
 7228              		.global	osMessageQueueGetCount
 7229              		.syntax unified
 7230              		.thumb
 7231              		.thumb_func
 7232              		.fpu fpv4-sp-d16
 7234              	osMessageQueueGetCount:
 7235              	.LFB166:
1746:Middlewares/Third_Party/FreeRTOS/Source/CMSIS_RTOS_V2/cmsis_os2.c **** 
1747:Middlewares/Third_Party/FreeRTOS/Source/CMSIS_RTOS_V2/cmsis_os2.c **** uint32_t osMessageQueueGetCount (osMessageQueueId_t mq_id) {
 7236              		.loc 1 1747 0
 7237              		.cfi_startproc
 7238              		@ args = 0, pretend = 0, frame = 0
 7239              		@ frame_needed = 0, uses_anonymous_args = 0
 7240              	.LVL656:
1748:Middlewares/Third_Party/FreeRTOS/Source/CMSIS_RTOS_V2/cmsis_os2.c ****   QueueHandle_t hQueue = (QueueHandle_t)mq_id;
1749:Middlewares/Third_Party/FreeRTOS/Source/CMSIS_RTOS_V2/cmsis_os2.c ****   UBaseType_t count;
1750:Middlewares/Third_Party/FreeRTOS/Source/CMSIS_RTOS_V2/cmsis_os2.c **** 
1751:Middlewares/Third_Party/FreeRTOS/Source/CMSIS_RTOS_V2/cmsis_os2.c ****   if (hQueue == NULL) {
 7241              		.loc 1 1751 0
 7242 0000 98B1     		cbz	r0, .L743
ARM GAS  /tmp/ccjsdB5h.s 			page 181


1747:Middlewares/Third_Party/FreeRTOS/Source/CMSIS_RTOS_V2/cmsis_os2.c ****   QueueHandle_t hQueue = (QueueHandle_t)mq_id;
 7243              		.loc 1 1747 0
 7244 0002 08B5     		push	{r3, lr}
 7245              	.LCFI131:
 7246              		.cfi_def_cfa_offset 8
 7247              		.cfi_offset 3, -8
 7248              		.cfi_offset 14, -4
 7249              	.LBB638:
 7250              	.LBB639:
 209:Drivers/CMSIS/Include/cmsis_gcc.h ****   return(result);
 7251              		.loc 2 209 0
 7252              		.syntax unified
 7253              	@ 209 "Drivers/CMSIS/Include/cmsis_gcc.h" 1
 7254 0004 EFF30583 		MRS r3, ipsr
 7255              	@ 0 "" 2
 7256              		.thumb
 7257              		.syntax unified
 7258              	.LBE639:
 7259              	.LBE638:
1752:Middlewares/Third_Party/FreeRTOS/Source/CMSIS_RTOS_V2/cmsis_os2.c ****     count = 0U;
1753:Middlewares/Third_Party/FreeRTOS/Source/CMSIS_RTOS_V2/cmsis_os2.c ****   }
1754:Middlewares/Third_Party/FreeRTOS/Source/CMSIS_RTOS_V2/cmsis_os2.c ****   else if (IS_IRQ()) {
 7260              		.loc 1 1754 0
 7261 0008 63B9     		cbnz	r3, .L741
 7262              	.LBB640:
 7263              	.LBB641:
 386:Drivers/CMSIS/Include/cmsis_gcc.h ****   return(result);
 7264              		.loc 2 386 0
 7265              		.syntax unified
 7266              	@ 386 "Drivers/CMSIS/Include/cmsis_gcc.h" 1
 7267 000a EFF31083 		MRS r3, primask
 7268              	@ 0 "" 2
 7269              		.thumb
 7270              		.syntax unified
 7271              	.LBE641:
 7272              	.LBE640:
 7273              		.loc 1 1754 0
 7274 000e 4BB9     		cbnz	r3, .L741
 7275              		.loc 1 1754 0 is_stmt 0 discriminator 2
 7276 0010 074B     		ldr	r3, .L748
 7277 0012 1B68     		ldr	r3, [r3]
 7278 0014 022B     		cmp	r3, #2
 7279 0016 02D1     		bne	.L742
 7280              	.LBB642:
 7281              	.LBB643:
 7282              		.loc 2 465 0 is_stmt 1
 7283              		.syntax unified
 7284              	@ 465 "Drivers/CMSIS/Include/cmsis_gcc.h" 1
 7285 0018 EFF31183 		MRS r3, basepri
 7286              	@ 0 "" 2
 7287              		.thumb
 7288              		.syntax unified
 7289              	.LBE643:
 7290              	.LBE642:
 7291              		.loc 1 1754 0
 7292 001c 13B9     		cbnz	r3, .L741
 7293              	.L742:
ARM GAS  /tmp/ccjsdB5h.s 			page 182


1755:Middlewares/Third_Party/FreeRTOS/Source/CMSIS_RTOS_V2/cmsis_os2.c ****     count = uxQueueMessagesWaitingFromISR (hQueue);
1756:Middlewares/Third_Party/FreeRTOS/Source/CMSIS_RTOS_V2/cmsis_os2.c ****   }
1757:Middlewares/Third_Party/FreeRTOS/Source/CMSIS_RTOS_V2/cmsis_os2.c ****   else {
1758:Middlewares/Third_Party/FreeRTOS/Source/CMSIS_RTOS_V2/cmsis_os2.c ****     count = uxQueueMessagesWaiting (hQueue);
 7294              		.loc 1 1758 0
 7295 001e FFF7FEFF 		bl	uxQueueMessagesWaiting
 7296              	.LVL657:
 7297 0022 01E0     		b	.L739
 7298              	.LVL658:
 7299              	.L741:
1755:Middlewares/Third_Party/FreeRTOS/Source/CMSIS_RTOS_V2/cmsis_os2.c ****     count = uxQueueMessagesWaitingFromISR (hQueue);
 7300              		.loc 1 1755 0
 7301 0024 FFF7FEFF 		bl	uxQueueMessagesWaitingFromISR
 7302              	.LVL659:
 7303              	.L739:
1759:Middlewares/Third_Party/FreeRTOS/Source/CMSIS_RTOS_V2/cmsis_os2.c ****   }
1760:Middlewares/Third_Party/FreeRTOS/Source/CMSIS_RTOS_V2/cmsis_os2.c **** 
1761:Middlewares/Third_Party/FreeRTOS/Source/CMSIS_RTOS_V2/cmsis_os2.c ****   return ((uint32_t)count);
1762:Middlewares/Third_Party/FreeRTOS/Source/CMSIS_RTOS_V2/cmsis_os2.c **** }
 7304              		.loc 1 1762 0
 7305 0028 08BD     		pop	{r3, pc}
 7306              	.LVL660:
 7307              	.L743:
 7308              	.LCFI132:
 7309              		.cfi_def_cfa_offset 0
 7310              		.cfi_restore 3
 7311              		.cfi_restore 14
1752:Middlewares/Third_Party/FreeRTOS/Source/CMSIS_RTOS_V2/cmsis_os2.c ****   }
 7312              		.loc 1 1752 0
 7313 002a 0020     		movs	r0, #0
 7314              	.LVL661:
 7315              		.loc 1 1762 0
 7316 002c 7047     		bx	lr
 7317              	.L749:
 7318 002e 00BF     		.align	2
 7319              	.L748:
 7320 0030 00000000 		.word	.LANCHOR0
 7321              		.cfi_endproc
 7322              	.LFE166:
 7324              		.section	.text.osMessageQueueGetSpace,"ax",%progbits
 7325              		.align	1
 7326              		.global	osMessageQueueGetSpace
 7327              		.syntax unified
 7328              		.thumb
 7329              		.thumb_func
 7330              		.fpu fpv4-sp-d16
 7332              	osMessageQueueGetSpace:
 7333              	.LFB167:
1763:Middlewares/Third_Party/FreeRTOS/Source/CMSIS_RTOS_V2/cmsis_os2.c **** 
1764:Middlewares/Third_Party/FreeRTOS/Source/CMSIS_RTOS_V2/cmsis_os2.c **** uint32_t osMessageQueueGetSpace (osMessageQueueId_t mq_id) {
 7334              		.loc 1 1764 0
 7335              		.cfi_startproc
 7336              		@ args = 0, pretend = 0, frame = 0
 7337              		@ frame_needed = 0, uses_anonymous_args = 0
 7338              	.LVL662:
1765:Middlewares/Third_Party/FreeRTOS/Source/CMSIS_RTOS_V2/cmsis_os2.c ****   StaticQueue_t *mq = (StaticQueue_t *)mq_id;
1766:Middlewares/Third_Party/FreeRTOS/Source/CMSIS_RTOS_V2/cmsis_os2.c ****   uint32_t space;
ARM GAS  /tmp/ccjsdB5h.s 			page 183


1767:Middlewares/Third_Party/FreeRTOS/Source/CMSIS_RTOS_V2/cmsis_os2.c ****   uint32_t isrm;
1768:Middlewares/Third_Party/FreeRTOS/Source/CMSIS_RTOS_V2/cmsis_os2.c **** 
1769:Middlewares/Third_Party/FreeRTOS/Source/CMSIS_RTOS_V2/cmsis_os2.c ****   if (mq == NULL) {
 7339              		.loc 1 1769 0
 7340 0000 10B3     		cbz	r0, .L754
1764:Middlewares/Third_Party/FreeRTOS/Source/CMSIS_RTOS_V2/cmsis_os2.c ****   StaticQueue_t *mq = (StaticQueue_t *)mq_id;
 7341              		.loc 1 1764 0
 7342 0002 08B5     		push	{r3, lr}
 7343              	.LCFI133:
 7344              		.cfi_def_cfa_offset 8
 7345              		.cfi_offset 3, -8
 7346              		.cfi_offset 14, -4
 7347 0004 0346     		mov	r3, r0
 7348              	.LBB644:
 7349              	.LBB645:
 209:Drivers/CMSIS/Include/cmsis_gcc.h ****   return(result);
 7350              		.loc 2 209 0
 7351              		.syntax unified
 7352              	@ 209 "Drivers/CMSIS/Include/cmsis_gcc.h" 1
 7353 0006 EFF30582 		MRS r2, ipsr
 7354              	@ 0 "" 2
 7355              		.thumb
 7356              		.syntax unified
 7357              	.LBE645:
 7358              	.LBE644:
1770:Middlewares/Third_Party/FreeRTOS/Source/CMSIS_RTOS_V2/cmsis_os2.c ****     space = 0U;
1771:Middlewares/Third_Party/FreeRTOS/Source/CMSIS_RTOS_V2/cmsis_os2.c ****   }
1772:Middlewares/Third_Party/FreeRTOS/Source/CMSIS_RTOS_V2/cmsis_os2.c ****   else if (IS_IRQ()) {
 7359              		.loc 1 1772 0
 7360 000a 6AB9     		cbnz	r2, .L752
 7361              	.LBB646:
 7362              	.LBB647:
 386:Drivers/CMSIS/Include/cmsis_gcc.h ****   return(result);
 7363              		.loc 2 386 0
 7364              		.syntax unified
 7365              	@ 386 "Drivers/CMSIS/Include/cmsis_gcc.h" 1
 7366 000c EFF31082 		MRS r2, primask
 7367              	@ 0 "" 2
 7368              		.thumb
 7369              		.syntax unified
 7370              	.LBE647:
 7371              	.LBE646:
 7372              		.loc 1 1772 0
 7373 0010 52B9     		cbnz	r2, .L752
 7374              		.loc 1 1772 0 is_stmt 0 discriminator 2
 7375 0012 0E4A     		ldr	r2, .L759
 7376 0014 1268     		ldr	r2, [r2]
 7377 0016 022A     		cmp	r2, #2
 7378 0018 02D1     		bne	.L753
 7379              	.LBB648:
 7380              	.LBB649:
 7381              		.loc 2 465 0 is_stmt 1
 7382              		.syntax unified
 7383              	@ 465 "Drivers/CMSIS/Include/cmsis_gcc.h" 1
 7384 001a EFF31182 		MRS r2, basepri
 7385              	@ 0 "" 2
 7386              		.thumb
ARM GAS  /tmp/ccjsdB5h.s 			page 184


 7387              		.syntax unified
 7388              	.LBE649:
 7389              	.LBE648:
 7390              		.loc 1 1772 0
 7391 001e 1AB9     		cbnz	r2, .L752
 7392              	.L753:
 7393 0020 1846     		mov	r0, r3
 7394              	.LVL663:
1773:Middlewares/Third_Party/FreeRTOS/Source/CMSIS_RTOS_V2/cmsis_os2.c ****     isrm = taskENTER_CRITICAL_FROM_ISR();
1774:Middlewares/Third_Party/FreeRTOS/Source/CMSIS_RTOS_V2/cmsis_os2.c **** 
1775:Middlewares/Third_Party/FreeRTOS/Source/CMSIS_RTOS_V2/cmsis_os2.c ****     /* space = pxQueue->uxLength - pxQueue->uxMessagesWaiting; */
1776:Middlewares/Third_Party/FreeRTOS/Source/CMSIS_RTOS_V2/cmsis_os2.c ****     space = mq->uxDummy4[1] - mq->uxDummy4[0];
1777:Middlewares/Third_Party/FreeRTOS/Source/CMSIS_RTOS_V2/cmsis_os2.c **** 
1778:Middlewares/Third_Party/FreeRTOS/Source/CMSIS_RTOS_V2/cmsis_os2.c ****     taskEXIT_CRITICAL_FROM_ISR(isrm);
1779:Middlewares/Third_Party/FreeRTOS/Source/CMSIS_RTOS_V2/cmsis_os2.c ****   }
1780:Middlewares/Third_Party/FreeRTOS/Source/CMSIS_RTOS_V2/cmsis_os2.c ****   else {
1781:Middlewares/Third_Party/FreeRTOS/Source/CMSIS_RTOS_V2/cmsis_os2.c ****     space = (uint32_t)uxQueueSpacesAvailable ((QueueHandle_t)mq);
 7395              		.loc 1 1781 0
 7396 0022 FFF7FEFF 		bl	uxQueueSpacesAvailable
 7397              	.LVL664:
 7398 0026 0EE0     		b	.L750
 7399              	.LVL665:
 7400              	.L752:
 7401              	.LBB650:
 7402              	.LBB651:
 211:Middlewares/Third_Party/FreeRTOS/Source/portable/GCC/ARM_CM4F/portmacro.h **** 	(
 7403              		.loc 3 211 0
 7404              		.syntax unified
 7405              	@ 211 "Middlewares/Third_Party/FreeRTOS/Source/portable/GCC/ARM_CM4F/portmacro.h" 1
 7406 0028 EFF31182 			mrs r2, basepri											
 7407 002c 4FF05001 		mov r1, #80												
 7408 0030 81F31188 		msr basepri, r1											
 7409 0034 BFF36F8F 		isb														
 7410 0038 BFF34F8F 		dsb														
 7411              	
 7412              	@ 0 "" 2
 7413              		.thumb
 7414              		.syntax unified
 7415              	.LBE651:
 7416              	.LBE650:
1776:Middlewares/Third_Party/FreeRTOS/Source/CMSIS_RTOS_V2/cmsis_os2.c **** 
 7417              		.loc 1 1776 0
 7418 003c D86B     		ldr	r0, [r3, #60]
 7419              	.LVL666:
 7420 003e 9B6B     		ldr	r3, [r3, #56]
 7421              	.LVL667:
 7422 0040 C01A     		subs	r0, r0, r3
 7423              	.LVL668:
 7424              	.LBB652:
 7425              	.LBB653:
 7426              		.loc 3 229 0
 7427              		.syntax unified
 7428              	@ 229 "Middlewares/Third_Party/FreeRTOS/Source/portable/GCC/ARM_CM4F/portmacro.h" 1
 7429 0042 82F31188 			msr basepri, r2	
 7430              	@ 0 "" 2
 7431              		.thumb
 7432              		.syntax unified
ARM GAS  /tmp/ccjsdB5h.s 			page 185


 7433              	.L750:
 7434              	.LBE653:
 7435              	.LBE652:
1782:Middlewares/Third_Party/FreeRTOS/Source/CMSIS_RTOS_V2/cmsis_os2.c ****   }
1783:Middlewares/Third_Party/FreeRTOS/Source/CMSIS_RTOS_V2/cmsis_os2.c **** 
1784:Middlewares/Third_Party/FreeRTOS/Source/CMSIS_RTOS_V2/cmsis_os2.c ****   return (space);
1785:Middlewares/Third_Party/FreeRTOS/Source/CMSIS_RTOS_V2/cmsis_os2.c **** }
 7436              		.loc 1 1785 0
 7437 0046 08BD     		pop	{r3, pc}
 7438              	.LVL669:
 7439              	.L754:
 7440              	.LCFI134:
 7441              		.cfi_def_cfa_offset 0
 7442              		.cfi_restore 3
 7443              		.cfi_restore 14
1770:Middlewares/Third_Party/FreeRTOS/Source/CMSIS_RTOS_V2/cmsis_os2.c ****   }
 7444              		.loc 1 1770 0
 7445 0048 0020     		movs	r0, #0
 7446              	.LVL670:
 7447              		.loc 1 1785 0
 7448 004a 7047     		bx	lr
 7449              	.L760:
 7450              		.align	2
 7451              	.L759:
 7452 004c 00000000 		.word	.LANCHOR0
 7453              		.cfi_endproc
 7454              	.LFE167:
 7456              		.section	.text.osMessageQueueReset,"ax",%progbits
 7457              		.align	1
 7458              		.global	osMessageQueueReset
 7459              		.syntax unified
 7460              		.thumb
 7461              		.thumb_func
 7462              		.fpu fpv4-sp-d16
 7464              	osMessageQueueReset:
 7465              	.LFB168:
1786:Middlewares/Third_Party/FreeRTOS/Source/CMSIS_RTOS_V2/cmsis_os2.c **** 
1787:Middlewares/Third_Party/FreeRTOS/Source/CMSIS_RTOS_V2/cmsis_os2.c **** osStatus_t osMessageQueueReset (osMessageQueueId_t mq_id) {
 7466              		.loc 1 1787 0
 7467              		.cfi_startproc
 7468              		@ args = 0, pretend = 0, frame = 0
 7469              		@ frame_needed = 0, uses_anonymous_args = 0
 7470              	.LVL671:
 7471 0000 08B5     		push	{r3, lr}
 7472              	.LCFI135:
 7473              		.cfi_def_cfa_offset 8
 7474              		.cfi_offset 3, -8
 7475              		.cfi_offset 14, -4
 7476              	.LVL672:
 7477              	.LBB654:
 7478              	.LBB655:
 209:Drivers/CMSIS/Include/cmsis_gcc.h ****   return(result);
 7479              		.loc 2 209 0
 7480              		.syntax unified
 7481              	@ 209 "Drivers/CMSIS/Include/cmsis_gcc.h" 1
 7482 0002 EFF30583 		MRS r3, ipsr
 7483              	@ 0 "" 2
ARM GAS  /tmp/ccjsdB5h.s 			page 186


 7484              		.thumb
 7485              		.syntax unified
 7486              	.LBE655:
 7487              	.LBE654:
1788:Middlewares/Third_Party/FreeRTOS/Source/CMSIS_RTOS_V2/cmsis_os2.c ****   QueueHandle_t hQueue = (QueueHandle_t)mq_id;
1789:Middlewares/Third_Party/FreeRTOS/Source/CMSIS_RTOS_V2/cmsis_os2.c ****   osStatus_t stat;
1790:Middlewares/Third_Party/FreeRTOS/Source/CMSIS_RTOS_V2/cmsis_os2.c **** 
1791:Middlewares/Third_Party/FreeRTOS/Source/CMSIS_RTOS_V2/cmsis_os2.c ****   if (IS_IRQ()) {
 7488              		.loc 1 1791 0
 7489 0006 9BB9     		cbnz	r3, .L764
 7490              	.LBB656:
 7491              	.LBB657:
 386:Drivers/CMSIS/Include/cmsis_gcc.h ****   return(result);
 7492              		.loc 2 386 0
 7493              		.syntax unified
 7494              	@ 386 "Drivers/CMSIS/Include/cmsis_gcc.h" 1
 7495 0008 EFF31083 		MRS r3, primask
 7496              	@ 0 "" 2
 7497              		.thumb
 7498              		.syntax unified
 7499              	.LBE657:
 7500              	.LBE656:
 7501              		.loc 1 1791 0
 7502 000c 9BB9     		cbnz	r3, .L765
 7503              		.loc 1 1791 0 is_stmt 0 discriminator 2
 7504 000e 0D4B     		ldr	r3, .L770
 7505 0010 1B68     		ldr	r3, [r3]
 7506 0012 022B     		cmp	r3, #2
 7507 0014 05D0     		beq	.L769
 7508              	.L763:
1792:Middlewares/Third_Party/FreeRTOS/Source/CMSIS_RTOS_V2/cmsis_os2.c ****     stat = osErrorISR;
1793:Middlewares/Third_Party/FreeRTOS/Source/CMSIS_RTOS_V2/cmsis_os2.c ****   }
1794:Middlewares/Third_Party/FreeRTOS/Source/CMSIS_RTOS_V2/cmsis_os2.c ****   else if (hQueue == NULL) {
 7509              		.loc 1 1794 0 is_stmt 1
 7510 0016 88B1     		cbz	r0, .L767
 7511              	.LVL673:
1795:Middlewares/Third_Party/FreeRTOS/Source/CMSIS_RTOS_V2/cmsis_os2.c ****     stat = osErrorParameter;
1796:Middlewares/Third_Party/FreeRTOS/Source/CMSIS_RTOS_V2/cmsis_os2.c ****   }
1797:Middlewares/Third_Party/FreeRTOS/Source/CMSIS_RTOS_V2/cmsis_os2.c ****   else {
1798:Middlewares/Third_Party/FreeRTOS/Source/CMSIS_RTOS_V2/cmsis_os2.c ****     stat = osOK;
1799:Middlewares/Third_Party/FreeRTOS/Source/CMSIS_RTOS_V2/cmsis_os2.c ****     (void)xQueueReset (hQueue);
 7512              		.loc 1 1799 0
 7513 0018 0021     		movs	r1, #0
 7514 001a FFF7FEFF 		bl	xQueueGenericReset
 7515              	.LVL674:
1798:Middlewares/Third_Party/FreeRTOS/Source/CMSIS_RTOS_V2/cmsis_os2.c ****     (void)xQueueReset (hQueue);
 7516              		.loc 1 1798 0
 7517 001e 0020     		movs	r0, #0
 7518              	.LVL675:
 7519              	.L761:
1800:Middlewares/Third_Party/FreeRTOS/Source/CMSIS_RTOS_V2/cmsis_os2.c ****   }
1801:Middlewares/Third_Party/FreeRTOS/Source/CMSIS_RTOS_V2/cmsis_os2.c **** 
1802:Middlewares/Third_Party/FreeRTOS/Source/CMSIS_RTOS_V2/cmsis_os2.c ****   return (stat);
1803:Middlewares/Third_Party/FreeRTOS/Source/CMSIS_RTOS_V2/cmsis_os2.c **** }
 7520              		.loc 1 1803 0
 7521 0020 08BD     		pop	{r3, pc}
 7522              	.LVL676:
ARM GAS  /tmp/ccjsdB5h.s 			page 187


 7523              	.L769:
 7524              	.LBB658:
 7525              	.LBB659:
 7526              		.loc 2 465 0
 7527              		.syntax unified
 7528              	@ 465 "Drivers/CMSIS/Include/cmsis_gcc.h" 1
 7529 0022 EFF31183 		MRS r3, basepri
 7530              	@ 0 "" 2
 7531              		.thumb
 7532              		.syntax unified
 7533              	.LBE659:
 7534              	.LBE658:
1791:Middlewares/Third_Party/FreeRTOS/Source/CMSIS_RTOS_V2/cmsis_os2.c ****     stat = osErrorISR;
 7535              		.loc 1 1791 0
 7536 0026 002B     		cmp	r3, #0
 7537 0028 F5D0     		beq	.L763
1792:Middlewares/Third_Party/FreeRTOS/Source/CMSIS_RTOS_V2/cmsis_os2.c ****   }
 7538              		.loc 1 1792 0
 7539 002a 6FF00500 		mvn	r0, #5
 7540              	.LVL677:
 7541 002e F7E7     		b	.L761
 7542              	.LVL678:
 7543              	.L764:
 7544 0030 6FF00500 		mvn	r0, #5
 7545              	.LVL679:
 7546 0034 F4E7     		b	.L761
 7547              	.LVL680:
 7548              	.L765:
 7549 0036 6FF00500 		mvn	r0, #5
 7550              	.LVL681:
 7551 003a F1E7     		b	.L761
 7552              	.LVL682:
 7553              	.L767:
1795:Middlewares/Third_Party/FreeRTOS/Source/CMSIS_RTOS_V2/cmsis_os2.c ****   }
 7554              		.loc 1 1795 0
 7555 003c 6FF00300 		mvn	r0, #3
 7556              	.LVL683:
1802:Middlewares/Third_Party/FreeRTOS/Source/CMSIS_RTOS_V2/cmsis_os2.c **** }
 7557              		.loc 1 1802 0
 7558 0040 EEE7     		b	.L761
 7559              	.L771:
 7560 0042 00BF     		.align	2
 7561              	.L770:
 7562 0044 00000000 		.word	.LANCHOR0
 7563              		.cfi_endproc
 7564              	.LFE168:
 7566              		.section	.text.osMessageQueueDelete,"ax",%progbits
 7567              		.align	1
 7568              		.global	osMessageQueueDelete
 7569              		.syntax unified
 7570              		.thumb
 7571              		.thumb_func
 7572              		.fpu fpv4-sp-d16
 7574              	osMessageQueueDelete:
 7575              	.LFB169:
1804:Middlewares/Third_Party/FreeRTOS/Source/CMSIS_RTOS_V2/cmsis_os2.c **** 
1805:Middlewares/Third_Party/FreeRTOS/Source/CMSIS_RTOS_V2/cmsis_os2.c **** osStatus_t osMessageQueueDelete (osMessageQueueId_t mq_id) {
ARM GAS  /tmp/ccjsdB5h.s 			page 188


 7576              		.loc 1 1805 0
 7577              		.cfi_startproc
 7578              		@ args = 0, pretend = 0, frame = 0
 7579              		@ frame_needed = 0, uses_anonymous_args = 0
 7580              	.LVL684:
 7581              	.LBB660:
 7582              	.LBB661:
 209:Drivers/CMSIS/Include/cmsis_gcc.h ****   return(result);
 7583              		.loc 2 209 0
 7584              		.syntax unified
 7585              	@ 209 "Drivers/CMSIS/Include/cmsis_gcc.h" 1
 7586 0000 EFF30583 		MRS r3, ipsr
 7587              	@ 0 "" 2
 7588              		.thumb
 7589              		.syntax unified
 7590              	.LBE661:
 7591              	.LBE660:
1806:Middlewares/Third_Party/FreeRTOS/Source/CMSIS_RTOS_V2/cmsis_os2.c ****   QueueHandle_t hQueue = (QueueHandle_t)mq_id;
1807:Middlewares/Third_Party/FreeRTOS/Source/CMSIS_RTOS_V2/cmsis_os2.c ****   osStatus_t stat;
1808:Middlewares/Third_Party/FreeRTOS/Source/CMSIS_RTOS_V2/cmsis_os2.c **** 
1809:Middlewares/Third_Party/FreeRTOS/Source/CMSIS_RTOS_V2/cmsis_os2.c **** #ifndef USE_FreeRTOS_HEAP_1
1810:Middlewares/Third_Party/FreeRTOS/Source/CMSIS_RTOS_V2/cmsis_os2.c ****   if (IS_IRQ()) {
 7592              		.loc 1 1810 0
 7593 0004 BBB9     		cbnz	r3, .L775
 7594              	.LBB662:
 7595              	.LBB663:
 386:Drivers/CMSIS/Include/cmsis_gcc.h ****   return(result);
 7596              		.loc 2 386 0
 7597              		.syntax unified
 7598              	@ 386 "Drivers/CMSIS/Include/cmsis_gcc.h" 1
 7599 0006 EFF31083 		MRS r3, primask
 7600              	@ 0 "" 2
 7601              		.thumb
 7602              		.syntax unified
 7603              	.LBE663:
 7604              	.LBE662:
 7605              		.loc 1 1810 0
 7606 000a BBB9     		cbnz	r3, .L776
 7607              		.loc 1 1810 0 is_stmt 0 discriminator 2
 7608 000c 0E4B     		ldr	r3, .L784
 7609 000e 1B68     		ldr	r3, [r3]
 7610 0010 022B     		cmp	r3, #2
 7611 0012 09D0     		beq	.L783
 7612              	.L774:
1811:Middlewares/Third_Party/FreeRTOS/Source/CMSIS_RTOS_V2/cmsis_os2.c ****     stat = osErrorISR;
1812:Middlewares/Third_Party/FreeRTOS/Source/CMSIS_RTOS_V2/cmsis_os2.c ****   }
1813:Middlewares/Third_Party/FreeRTOS/Source/CMSIS_RTOS_V2/cmsis_os2.c ****   else if (hQueue == NULL) {
 7613              		.loc 1 1813 0 is_stmt 1
 7614 0014 A8B1     		cbz	r0, .L778
1805:Middlewares/Third_Party/FreeRTOS/Source/CMSIS_RTOS_V2/cmsis_os2.c ****   QueueHandle_t hQueue = (QueueHandle_t)mq_id;
 7615              		.loc 1 1805 0
 7616 0016 10B5     		push	{r4, lr}
 7617              	.LCFI136:
 7618              		.cfi_def_cfa_offset 8
 7619              		.cfi_offset 4, -8
 7620              		.cfi_offset 14, -4
 7621 0018 0446     		mov	r4, r0
ARM GAS  /tmp/ccjsdB5h.s 			page 189


1814:Middlewares/Third_Party/FreeRTOS/Source/CMSIS_RTOS_V2/cmsis_os2.c ****     stat = osErrorParameter;
1815:Middlewares/Third_Party/FreeRTOS/Source/CMSIS_RTOS_V2/cmsis_os2.c ****   }
1816:Middlewares/Third_Party/FreeRTOS/Source/CMSIS_RTOS_V2/cmsis_os2.c ****   else {
1817:Middlewares/Third_Party/FreeRTOS/Source/CMSIS_RTOS_V2/cmsis_os2.c ****     #if (configQUEUE_REGISTRY_SIZE > 0)
1818:Middlewares/Third_Party/FreeRTOS/Source/CMSIS_RTOS_V2/cmsis_os2.c ****     vQueueUnregisterQueue (hQueue);
 7622              		.loc 1 1818 0
 7623 001a FFF7FEFF 		bl	vQueueUnregisterQueue
 7624              	.LVL685:
1819:Middlewares/Third_Party/FreeRTOS/Source/CMSIS_RTOS_V2/cmsis_os2.c ****     #endif
1820:Middlewares/Third_Party/FreeRTOS/Source/CMSIS_RTOS_V2/cmsis_os2.c **** 
1821:Middlewares/Third_Party/FreeRTOS/Source/CMSIS_RTOS_V2/cmsis_os2.c ****     stat = osOK;
1822:Middlewares/Third_Party/FreeRTOS/Source/CMSIS_RTOS_V2/cmsis_os2.c ****     vQueueDelete (hQueue);
 7625              		.loc 1 1822 0
 7626 001e 2046     		mov	r0, r4
 7627 0020 FFF7FEFF 		bl	vQueueDelete
 7628              	.LVL686:
1821:Middlewares/Third_Party/FreeRTOS/Source/CMSIS_RTOS_V2/cmsis_os2.c ****     vQueueDelete (hQueue);
 7629              		.loc 1 1821 0
 7630 0024 0020     		movs	r0, #0
1823:Middlewares/Third_Party/FreeRTOS/Source/CMSIS_RTOS_V2/cmsis_os2.c ****   }
1824:Middlewares/Third_Party/FreeRTOS/Source/CMSIS_RTOS_V2/cmsis_os2.c **** #else
1825:Middlewares/Third_Party/FreeRTOS/Source/CMSIS_RTOS_V2/cmsis_os2.c ****   stat = osError;
1826:Middlewares/Third_Party/FreeRTOS/Source/CMSIS_RTOS_V2/cmsis_os2.c **** #endif
1827:Middlewares/Third_Party/FreeRTOS/Source/CMSIS_RTOS_V2/cmsis_os2.c **** 
1828:Middlewares/Third_Party/FreeRTOS/Source/CMSIS_RTOS_V2/cmsis_os2.c ****   return (stat);
1829:Middlewares/Third_Party/FreeRTOS/Source/CMSIS_RTOS_V2/cmsis_os2.c **** }
 7631              		.loc 1 1829 0
 7632 0026 10BD     		pop	{r4, pc}
 7633              	.LVL687:
 7634              	.L783:
 7635              	.LCFI137:
 7636              		.cfi_def_cfa_offset 0
 7637              		.cfi_restore 4
 7638              		.cfi_restore 14
 7639              	.LBB664:
 7640              	.LBB665:
 7641              		.loc 2 465 0
 7642              		.syntax unified
 7643              	@ 465 "Drivers/CMSIS/Include/cmsis_gcc.h" 1
 7644 0028 EFF31183 		MRS r3, basepri
 7645              	@ 0 "" 2
 7646              		.thumb
 7647              		.syntax unified
 7648              	.LBE665:
 7649              	.LBE664:
1810:Middlewares/Third_Party/FreeRTOS/Source/CMSIS_RTOS_V2/cmsis_os2.c ****     stat = osErrorISR;
 7650              		.loc 1 1810 0
 7651 002c 002B     		cmp	r3, #0
 7652 002e F1D0     		beq	.L774
1811:Middlewares/Third_Party/FreeRTOS/Source/CMSIS_RTOS_V2/cmsis_os2.c ****   }
 7653              		.loc 1 1811 0
 7654 0030 6FF00500 		mvn	r0, #5
 7655              	.LVL688:
 7656 0034 7047     		bx	lr
 7657              	.LVL689:
 7658              	.L775:
 7659 0036 6FF00500 		mvn	r0, #5
ARM GAS  /tmp/ccjsdB5h.s 			page 190


 7660              	.LVL690:
 7661 003a 7047     		bx	lr
 7662              	.LVL691:
 7663              	.L776:
 7664 003c 6FF00500 		mvn	r0, #5
 7665              	.LVL692:
 7666 0040 7047     		bx	lr
 7667              	.LVL693:
 7668              	.L778:
1814:Middlewares/Third_Party/FreeRTOS/Source/CMSIS_RTOS_V2/cmsis_os2.c ****   }
 7669              		.loc 1 1814 0
 7670 0042 6FF00300 		mvn	r0, #3
 7671              	.LVL694:
 7672              		.loc 1 1829 0
 7673 0046 7047     		bx	lr
 7674              	.L785:
 7675              		.align	2
 7676              	.L784:
 7677 0048 00000000 		.word	.LANCHOR0
 7678              		.cfi_endproc
 7679              	.LFE169:
 7681              		.section	.text.vApplicationGetIdleTaskMemory,"ax",%progbits
 7682              		.align	1
 7683              		.global	vApplicationGetIdleTaskMemory
 7684              		.syntax unified
 7685              		.thumb
 7686              		.thumb_func
 7687              		.fpu fpv4-sp-d16
 7689              	vApplicationGetIdleTaskMemory:
 7690              	.LFB170:
1830:Middlewares/Third_Party/FreeRTOS/Source/CMSIS_RTOS_V2/cmsis_os2.c **** 
1831:Middlewares/Third_Party/FreeRTOS/Source/CMSIS_RTOS_V2/cmsis_os2.c **** /*---------------------------------------------------------------------------*/
1832:Middlewares/Third_Party/FreeRTOS/Source/CMSIS_RTOS_V2/cmsis_os2.c **** 
1833:Middlewares/Third_Party/FreeRTOS/Source/CMSIS_RTOS_V2/cmsis_os2.c **** /* Callback function prototypes */
1834:Middlewares/Third_Party/FreeRTOS/Source/CMSIS_RTOS_V2/cmsis_os2.c **** extern void vApplicationIdleHook (void);
1835:Middlewares/Third_Party/FreeRTOS/Source/CMSIS_RTOS_V2/cmsis_os2.c **** extern void vApplicationTickHook (void);
1836:Middlewares/Third_Party/FreeRTOS/Source/CMSIS_RTOS_V2/cmsis_os2.c **** extern void vApplicationMallocFailedHook (void);
1837:Middlewares/Third_Party/FreeRTOS/Source/CMSIS_RTOS_V2/cmsis_os2.c **** extern void vApplicationDaemonTaskStartupHook (void);
1838:Middlewares/Third_Party/FreeRTOS/Source/CMSIS_RTOS_V2/cmsis_os2.c **** extern void vApplicationStackOverflowHook (TaskHandle_t xTask, signed char *pcTaskName);
1839:Middlewares/Third_Party/FreeRTOS/Source/CMSIS_RTOS_V2/cmsis_os2.c **** 
1840:Middlewares/Third_Party/FreeRTOS/Source/CMSIS_RTOS_V2/cmsis_os2.c **** /**
1841:Middlewares/Third_Party/FreeRTOS/Source/CMSIS_RTOS_V2/cmsis_os2.c ****   Dummy implementation of the callback function vApplicationIdleHook().
1842:Middlewares/Third_Party/FreeRTOS/Source/CMSIS_RTOS_V2/cmsis_os2.c **** */
1843:Middlewares/Third_Party/FreeRTOS/Source/CMSIS_RTOS_V2/cmsis_os2.c **** #if (configUSE_IDLE_HOOK == 1)
1844:Middlewares/Third_Party/FreeRTOS/Source/CMSIS_RTOS_V2/cmsis_os2.c **** __WEAK void vApplicationIdleHook (void){}
1845:Middlewares/Third_Party/FreeRTOS/Source/CMSIS_RTOS_V2/cmsis_os2.c **** #endif
1846:Middlewares/Third_Party/FreeRTOS/Source/CMSIS_RTOS_V2/cmsis_os2.c **** 
1847:Middlewares/Third_Party/FreeRTOS/Source/CMSIS_RTOS_V2/cmsis_os2.c **** /**
1848:Middlewares/Third_Party/FreeRTOS/Source/CMSIS_RTOS_V2/cmsis_os2.c ****   Dummy implementation of the callback function vApplicationTickHook().
1849:Middlewares/Third_Party/FreeRTOS/Source/CMSIS_RTOS_V2/cmsis_os2.c **** */
1850:Middlewares/Third_Party/FreeRTOS/Source/CMSIS_RTOS_V2/cmsis_os2.c **** #if (configUSE_TICK_HOOK == 1)
1851:Middlewares/Third_Party/FreeRTOS/Source/CMSIS_RTOS_V2/cmsis_os2.c ****  __WEAK void vApplicationTickHook (void){}
1852:Middlewares/Third_Party/FreeRTOS/Source/CMSIS_RTOS_V2/cmsis_os2.c **** #endif
1853:Middlewares/Third_Party/FreeRTOS/Source/CMSIS_RTOS_V2/cmsis_os2.c **** 
1854:Middlewares/Third_Party/FreeRTOS/Source/CMSIS_RTOS_V2/cmsis_os2.c **** /**
1855:Middlewares/Third_Party/FreeRTOS/Source/CMSIS_RTOS_V2/cmsis_os2.c ****   Dummy implementation of the callback function vApplicationMallocFailedHook().
1856:Middlewares/Third_Party/FreeRTOS/Source/CMSIS_RTOS_V2/cmsis_os2.c **** */
ARM GAS  /tmp/ccjsdB5h.s 			page 191


1857:Middlewares/Third_Party/FreeRTOS/Source/CMSIS_RTOS_V2/cmsis_os2.c **** #if (configUSE_MALLOC_FAILED_HOOK == 1)
1858:Middlewares/Third_Party/FreeRTOS/Source/CMSIS_RTOS_V2/cmsis_os2.c **** __WEAK void vApplicationMallocFailedHook (void){}
1859:Middlewares/Third_Party/FreeRTOS/Source/CMSIS_RTOS_V2/cmsis_os2.c **** #endif
1860:Middlewares/Third_Party/FreeRTOS/Source/CMSIS_RTOS_V2/cmsis_os2.c **** 
1861:Middlewares/Third_Party/FreeRTOS/Source/CMSIS_RTOS_V2/cmsis_os2.c **** /**
1862:Middlewares/Third_Party/FreeRTOS/Source/CMSIS_RTOS_V2/cmsis_os2.c ****   Dummy implementation of the callback function vApplicationDaemonTaskStartupHook().
1863:Middlewares/Third_Party/FreeRTOS/Source/CMSIS_RTOS_V2/cmsis_os2.c **** */
1864:Middlewares/Third_Party/FreeRTOS/Source/CMSIS_RTOS_V2/cmsis_os2.c **** #if (configUSE_DAEMON_TASK_STARTUP_HOOK == 1)
1865:Middlewares/Third_Party/FreeRTOS/Source/CMSIS_RTOS_V2/cmsis_os2.c **** __WEAK void vApplicationDaemonTaskStartupHook (void){}
1866:Middlewares/Third_Party/FreeRTOS/Source/CMSIS_RTOS_V2/cmsis_os2.c **** #endif
1867:Middlewares/Third_Party/FreeRTOS/Source/CMSIS_RTOS_V2/cmsis_os2.c **** 
1868:Middlewares/Third_Party/FreeRTOS/Source/CMSIS_RTOS_V2/cmsis_os2.c **** /**
1869:Middlewares/Third_Party/FreeRTOS/Source/CMSIS_RTOS_V2/cmsis_os2.c ****   Dummy implementation of the callback function vApplicationStackOverflowHook().
1870:Middlewares/Third_Party/FreeRTOS/Source/CMSIS_RTOS_V2/cmsis_os2.c **** */
1871:Middlewares/Third_Party/FreeRTOS/Source/CMSIS_RTOS_V2/cmsis_os2.c **** #if (configCHECK_FOR_STACK_OVERFLOW > 0)
1872:Middlewares/Third_Party/FreeRTOS/Source/CMSIS_RTOS_V2/cmsis_os2.c **** __WEAK void vApplicationStackOverflowHook (TaskHandle_t xTask, signed char *pcTaskName) {
1873:Middlewares/Third_Party/FreeRTOS/Source/CMSIS_RTOS_V2/cmsis_os2.c ****   (void)xTask;
1874:Middlewares/Third_Party/FreeRTOS/Source/CMSIS_RTOS_V2/cmsis_os2.c ****   (void)pcTaskName;
1875:Middlewares/Third_Party/FreeRTOS/Source/CMSIS_RTOS_V2/cmsis_os2.c **** }
1876:Middlewares/Third_Party/FreeRTOS/Source/CMSIS_RTOS_V2/cmsis_os2.c **** #endif
1877:Middlewares/Third_Party/FreeRTOS/Source/CMSIS_RTOS_V2/cmsis_os2.c **** 
1878:Middlewares/Third_Party/FreeRTOS/Source/CMSIS_RTOS_V2/cmsis_os2.c **** /*---------------------------------------------------------------------------*/
1879:Middlewares/Third_Party/FreeRTOS/Source/CMSIS_RTOS_V2/cmsis_os2.c **** 
1880:Middlewares/Third_Party/FreeRTOS/Source/CMSIS_RTOS_V2/cmsis_os2.c **** /* External Idle and Timer task static memory allocation functions */
1881:Middlewares/Third_Party/FreeRTOS/Source/CMSIS_RTOS_V2/cmsis_os2.c **** extern void vApplicationGetIdleTaskMemory  (StaticTask_t **ppxIdleTaskTCBBuffer,  StackType_t **ppx
1882:Middlewares/Third_Party/FreeRTOS/Source/CMSIS_RTOS_V2/cmsis_os2.c **** extern void vApplicationGetTimerTaskMemory (StaticTask_t **ppxTimerTaskTCBBuffer, StackType_t **ppx
1883:Middlewares/Third_Party/FreeRTOS/Source/CMSIS_RTOS_V2/cmsis_os2.c **** 
1884:Middlewares/Third_Party/FreeRTOS/Source/CMSIS_RTOS_V2/cmsis_os2.c **** /* Idle task control block and stack */
1885:Middlewares/Third_Party/FreeRTOS/Source/CMSIS_RTOS_V2/cmsis_os2.c **** static StaticTask_t Idle_TCB;
1886:Middlewares/Third_Party/FreeRTOS/Source/CMSIS_RTOS_V2/cmsis_os2.c **** static StackType_t  Idle_Stack[configMINIMAL_STACK_SIZE];
1887:Middlewares/Third_Party/FreeRTOS/Source/CMSIS_RTOS_V2/cmsis_os2.c **** 
1888:Middlewares/Third_Party/FreeRTOS/Source/CMSIS_RTOS_V2/cmsis_os2.c **** /* Timer task control block and stack */
1889:Middlewares/Third_Party/FreeRTOS/Source/CMSIS_RTOS_V2/cmsis_os2.c **** static StaticTask_t Timer_TCB;
1890:Middlewares/Third_Party/FreeRTOS/Source/CMSIS_RTOS_V2/cmsis_os2.c **** static StackType_t  Timer_Stack[configTIMER_TASK_STACK_DEPTH];
1891:Middlewares/Third_Party/FreeRTOS/Source/CMSIS_RTOS_V2/cmsis_os2.c **** 
1892:Middlewares/Third_Party/FreeRTOS/Source/CMSIS_RTOS_V2/cmsis_os2.c **** /*
1893:Middlewares/Third_Party/FreeRTOS/Source/CMSIS_RTOS_V2/cmsis_os2.c ****   vApplicationGetIdleTaskMemory gets called when configSUPPORT_STATIC_ALLOCATION
1894:Middlewares/Third_Party/FreeRTOS/Source/CMSIS_RTOS_V2/cmsis_os2.c ****   equals to 1 and is required for static memory allocation support.
1895:Middlewares/Third_Party/FreeRTOS/Source/CMSIS_RTOS_V2/cmsis_os2.c **** */
1896:Middlewares/Third_Party/FreeRTOS/Source/CMSIS_RTOS_V2/cmsis_os2.c **** void vApplicationGetIdleTaskMemory (StaticTask_t **ppxIdleTaskTCBBuffer, StackType_t **ppxIdleTaskS
 7691              		.loc 1 1896 0
 7692              		.cfi_startproc
 7693              		@ args = 0, pretend = 0, frame = 0
 7694              		@ frame_needed = 0, uses_anonymous_args = 0
 7695              		@ link register save eliminated.
 7696              	.LVL695:
1897:Middlewares/Third_Party/FreeRTOS/Source/CMSIS_RTOS_V2/cmsis_os2.c ****   *ppxIdleTaskTCBBuffer   = &Idle_TCB;
 7697              		.loc 1 1897 0
 7698 0000 034B     		ldr	r3, .L787
 7699 0002 0360     		str	r3, [r0]
1898:Middlewares/Third_Party/FreeRTOS/Source/CMSIS_RTOS_V2/cmsis_os2.c ****   *ppxIdleTaskStackBuffer = &Idle_Stack[0];
 7700              		.loc 1 1898 0
 7701 0004 034B     		ldr	r3, .L787+4
 7702 0006 0B60     		str	r3, [r1]
1899:Middlewares/Third_Party/FreeRTOS/Source/CMSIS_RTOS_V2/cmsis_os2.c ****   *pulIdleTaskStackSize   = (uint32_t)configMINIMAL_STACK_SIZE;
 7703              		.loc 1 1899 0
 7704 0008 8023     		movs	r3, #128
ARM GAS  /tmp/ccjsdB5h.s 			page 192


 7705 000a 1360     		str	r3, [r2]
1900:Middlewares/Third_Party/FreeRTOS/Source/CMSIS_RTOS_V2/cmsis_os2.c **** }
 7706              		.loc 1 1900 0
 7707 000c 7047     		bx	lr
 7708              	.L788:
 7709 000e 00BF     		.align	2
 7710              	.L787:
 7711 0010 00000000 		.word	.LANCHOR1
 7712 0014 00000000 		.word	.LANCHOR2
 7713              		.cfi_endproc
 7714              	.LFE170:
 7716              		.section	.text.vApplicationGetTimerTaskMemory,"ax",%progbits
 7717              		.align	1
 7718              		.global	vApplicationGetTimerTaskMemory
 7719              		.syntax unified
 7720              		.thumb
 7721              		.thumb_func
 7722              		.fpu fpv4-sp-d16
 7724              	vApplicationGetTimerTaskMemory:
 7725              	.LFB171:
1901:Middlewares/Third_Party/FreeRTOS/Source/CMSIS_RTOS_V2/cmsis_os2.c **** 
1902:Middlewares/Third_Party/FreeRTOS/Source/CMSIS_RTOS_V2/cmsis_os2.c **** /*
1903:Middlewares/Third_Party/FreeRTOS/Source/CMSIS_RTOS_V2/cmsis_os2.c ****   vApplicationGetTimerTaskMemory gets called when configSUPPORT_STATIC_ALLOCATION
1904:Middlewares/Third_Party/FreeRTOS/Source/CMSIS_RTOS_V2/cmsis_os2.c ****   equals to 1 and is required for static memory allocation support.
1905:Middlewares/Third_Party/FreeRTOS/Source/CMSIS_RTOS_V2/cmsis_os2.c **** */
1906:Middlewares/Third_Party/FreeRTOS/Source/CMSIS_RTOS_V2/cmsis_os2.c **** void vApplicationGetTimerTaskMemory (StaticTask_t **ppxTimerTaskTCBBuffer, StackType_t **ppxTimerTa
 7726              		.loc 1 1906 0
 7727              		.cfi_startproc
 7728              		@ args = 0, pretend = 0, frame = 0
 7729              		@ frame_needed = 0, uses_anonymous_args = 0
 7730              		@ link register save eliminated.
 7731              	.LVL696:
1907:Middlewares/Third_Party/FreeRTOS/Source/CMSIS_RTOS_V2/cmsis_os2.c ****   *ppxTimerTaskTCBBuffer   = &Timer_TCB;
 7732              		.loc 1 1907 0
 7733 0000 034B     		ldr	r3, .L790
 7734 0002 0360     		str	r3, [r0]
1908:Middlewares/Third_Party/FreeRTOS/Source/CMSIS_RTOS_V2/cmsis_os2.c ****   *ppxTimerTaskStackBuffer = &Timer_Stack[0];
 7735              		.loc 1 1908 0
 7736 0004 034B     		ldr	r3, .L790+4
 7737 0006 0B60     		str	r3, [r1]
1909:Middlewares/Third_Party/FreeRTOS/Source/CMSIS_RTOS_V2/cmsis_os2.c ****   *pulTimerTaskStackSize   = (uint32_t)configTIMER_TASK_STACK_DEPTH;
 7738              		.loc 1 1909 0
 7739 0008 4FF48073 		mov	r3, #256
 7740 000c 1360     		str	r3, [r2]
1910:Middlewares/Third_Party/FreeRTOS/Source/CMSIS_RTOS_V2/cmsis_os2.c **** }
 7741              		.loc 1 1910 0
 7742 000e 7047     		bx	lr
 7743              	.L791:
 7744              		.align	2
 7745              	.L790:
 7746 0010 00000000 		.word	.LANCHOR3
 7747 0014 00000000 		.word	.LANCHOR4
 7748              		.cfi_endproc
 7749              	.LFE171:
 7751              		.section	.bss.Idle_Stack,"aw",%nobits
 7752              		.align	2
 7753              		.set	.LANCHOR2,. + 0
ARM GAS  /tmp/ccjsdB5h.s 			page 193


 7756              	Idle_Stack:
 7757 0000 00000000 		.space	512
 7757      00000000 
 7757      00000000 
 7757      00000000 
 7757      00000000 
 7758              		.section	.bss.Idle_TCB,"aw",%nobits
 7759              		.align	2
 7760              		.set	.LANCHOR1,. + 0
 7763              	Idle_TCB:
 7764 0000 00000000 		.space	92
 7764      00000000 
 7764      00000000 
 7764      00000000 
 7764      00000000 
 7765              		.section	.bss.KernelState,"aw",%nobits
 7766              		.align	2
 7767              		.set	.LANCHOR0,. + 0
 7770              	KernelState:
 7771 0000 00000000 		.space	4
 7772              		.section	.bss.Timer_Stack,"aw",%nobits
 7773              		.align	2
 7774              		.set	.LANCHOR4,. + 0
 7777              	Timer_Stack:
 7778 0000 00000000 		.space	1024
 7778      00000000 
 7778      00000000 
 7778      00000000 
 7778      00000000 
 7779              		.section	.bss.Timer_TCB,"aw",%nobits
 7780              		.align	2
 7781              		.set	.LANCHOR3,. + 0
 7784              	Timer_TCB:
 7785 0000 00000000 		.space	92
 7785      00000000 
 7785      00000000 
 7785      00000000 
 7785      00000000 
 7786              		.section	.rodata.osKernelGetInfo.str1.4,"aMS",%progbits,1
 7787              		.align	2
 7788              	.LC0:
 7789 0000 46726565 		.ascii	"FreeRTOS V10.0.1\000"
 7789      52544F53 
 7789      20563130 
 7789      2E302E31 
 7789      00
 7790              		.text
 7791              	.Letext0:
 7792              		.file 4 "/usr/include/newlib/machine/_default_types.h"
 7793              		.file 5 "/usr/include/newlib/sys/lock.h"
 7794              		.file 6 "/usr/include/newlib/sys/_types.h"
 7795              		.file 7 "/usr/lib/gcc/arm-none-eabi/7.3.1/include/stddef.h"
 7796              		.file 8 "/usr/include/newlib/sys/reent.h"
 7797              		.file 9 "/usr/include/newlib/sys/_stdint.h"
 7798              		.file 10 "Middlewares/Third_Party/FreeRTOS/Source/CMSIS_RTOS_V2/cmsis_os2.h"
 7799              		.file 11 "Inc/FreeRTOSConfig.h"
 7800              		.file 12 "Middlewares/Third_Party/FreeRTOS/Source/include/projdefs.h"
ARM GAS  /tmp/ccjsdB5h.s 			page 194


 7801              		.file 13 "Middlewares/Third_Party/FreeRTOS/Source/include/FreeRTOS.h"
 7802              		.file 14 "Middlewares/Third_Party/FreeRTOS/Source/include/task.h"
 7803              		.file 15 "Middlewares/Third_Party/FreeRTOS/Source/include/timers.h"
 7804              		.file 16 "Middlewares/Third_Party/FreeRTOS/Source/include/event_groups.h"
 7805              		.file 17 "Middlewares/Third_Party/FreeRTOS/Source/include/queue.h"
 7806              		.file 18 "Middlewares/Third_Party/FreeRTOS/Source/include/semphr.h"
 7807              		.file 19 "Middlewares/Third_Party/FreeRTOS/Source/include/portable.h"
 7808              		.file 20 "<built-in>"
ARM GAS  /tmp/ccjsdB5h.s 			page 195


DEFINED SYMBOLS
                            *ABS*:0000000000000000 cmsis_os2.c
     /tmp/ccjsdB5h.s:18     .text.TimerCallback:0000000000000000 $t
     /tmp/ccjsdB5h.s:24     .text.TimerCallback:0000000000000000 TimerCallback
     /tmp/ccjsdB5h.s:55     .text.osKernelInitialize:0000000000000000 $t
     /tmp/ccjsdB5h.s:62     .text.osKernelInitialize:0000000000000000 osKernelInitialize
     /tmp/ccjsdB5h.s:146    .text.osKernelInitialize:0000000000000044 $d
     /tmp/ccjsdB5h.s:151    .text.osKernelGetInfo:0000000000000000 $t
     /tmp/ccjsdB5h.s:158    .text.osKernelGetInfo:0000000000000000 osKernelGetInfo
     /tmp/ccjsdB5h.s:203    .text.osKernelGetInfo:0000000000000024 $d
     /tmp/ccjsdB5h.s:209    .text.osKernelGetState:0000000000000000 $t
     /tmp/ccjsdB5h.s:216    .text.osKernelGetState:0000000000000000 osKernelGetState
     /tmp/ccjsdB5h.s:256    .text.osKernelGetState:0000000000000024 $d
     /tmp/ccjsdB5h.s:261    .text.osKernelStart:0000000000000000 $t
     /tmp/ccjsdB5h.s:268    .text.osKernelStart:0000000000000000 osKernelStart
     /tmp/ccjsdB5h.s:360    .text.osKernelStart:000000000000004c $d
     /tmp/ccjsdB5h.s:365    .text.osKernelLock:0000000000000000 $t
     /tmp/ccjsdB5h.s:372    .text.osKernelLock:0000000000000000 osKernelLock
     /tmp/ccjsdB5h.s:467    .text.osKernelLock:000000000000004c $d
     /tmp/ccjsdB5h.s:472    .text.osKernelUnlock:0000000000000000 $t
     /tmp/ccjsdB5h.s:479    .text.osKernelUnlock:0000000000000000 osKernelUnlock
     /tmp/ccjsdB5h.s:582    .text.osKernelUnlock:000000000000005c $d
     /tmp/ccjsdB5h.s:587    .text.osKernelRestoreLock:0000000000000000 $t
     /tmp/ccjsdB5h.s:594    .text.osKernelRestoreLock:0000000000000000 osKernelRestoreLock
     /tmp/ccjsdB5h.s:728    .text.osKernelRestoreLock:0000000000000070 $d
     /tmp/ccjsdB5h.s:733    .text.osKernelGetTickCount:0000000000000000 $t
     /tmp/ccjsdB5h.s:740    .text.osKernelGetTickCount:0000000000000000 osKernelGetTickCount
     /tmp/ccjsdB5h.s:812    .text.osKernelGetTickCount:0000000000000028 $d
     /tmp/ccjsdB5h.s:817    .text.osKernelGetTickFreq:0000000000000000 $t
     /tmp/ccjsdB5h.s:824    .text.osKernelGetTickFreq:0000000000000000 osKernelGetTickFreq
     /tmp/ccjsdB5h.s:838    .text.osKernelGetSysTimerCount:0000000000000000 $t
     /tmp/ccjsdB5h.s:845    .text.osKernelGetSysTimerCount:0000000000000000 osKernelGetSysTimerCount
     /tmp/ccjsdB5h.s:901    .text.osKernelGetSysTimerCount:0000000000000030 $d
     /tmp/ccjsdB5h.s:907    .text.osKernelGetSysTimerFreq:0000000000000000 $t
     /tmp/ccjsdB5h.s:914    .text.osKernelGetSysTimerFreq:0000000000000000 osKernelGetSysTimerFreq
     /tmp/ccjsdB5h.s:928    .text.osKernelGetSysTimerFreq:0000000000000008 $d
     /tmp/ccjsdB5h.s:933    .text.osThreadNew:0000000000000000 $t
     /tmp/ccjsdB5h.s:940    .text.osThreadNew:0000000000000000 osThreadNew
     /tmp/ccjsdB5h.s:1156   .text.osThreadNew:00000000000000cc $d
     /tmp/ccjsdB5h.s:1161   .text.osThreadGetName:0000000000000000 $t
     /tmp/ccjsdB5h.s:1168   .text.osThreadGetName:0000000000000000 osThreadGetName
     /tmp/ccjsdB5h.s:1260   .text.osThreadGetName:0000000000000038 $d
     /tmp/ccjsdB5h.s:1265   .text.osThreadGetId:0000000000000000 $t
     /tmp/ccjsdB5h.s:1272   .text.osThreadGetId:0000000000000000 osThreadGetId
     /tmp/ccjsdB5h.s:1349   .text.osThreadGetId:0000000000000030 $d
     /tmp/ccjsdB5h.s:1354   .text.osThreadGetState:0000000000000000 $t
     /tmp/ccjsdB5h.s:1361   .text.osThreadGetState:0000000000000000 osThreadGetState
     /tmp/ccjsdB5h.s:1415   .text.osThreadGetState:0000000000000024 $d
     /tmp/ccjsdB5h.s:1486   .text.osThreadGetState:0000000000000060 $d
     /tmp/ccjsdB5h.s:1491   .text.osThreadGetStackSpace:0000000000000000 $t
     /tmp/ccjsdB5h.s:1498   .text.osThreadGetStackSpace:0000000000000000 osThreadGetStackSpace
     /tmp/ccjsdB5h.s:1586   .text.osThreadGetStackSpace:0000000000000038 $d
     /tmp/ccjsdB5h.s:1591   .text.osThreadGetStackSize:0000000000000000 $t
     /tmp/ccjsdB5h.s:1598   .text.osThreadGetStackSize:0000000000000000 osThreadGetStackSize
     /tmp/ccjsdB5h.s:1614   .text.osThreadSetPriority:0000000000000000 $t
     /tmp/ccjsdB5h.s:1621   .text.osThreadSetPriority:0000000000000000 osThreadSetPriority
     /tmp/ccjsdB5h.s:1727   .text.osThreadSetPriority:000000000000004c $d
ARM GAS  /tmp/ccjsdB5h.s 			page 196


     /tmp/ccjsdB5h.s:1732   .text.osThreadGetPriority:0000000000000000 $t
     /tmp/ccjsdB5h.s:1739   .text.osThreadGetPriority:0000000000000000 osThreadGetPriority
     /tmp/ccjsdB5h.s:1831   .text.osThreadGetPriority:0000000000000040 $d
     /tmp/ccjsdB5h.s:1836   .text.osThreadYield:0000000000000000 $t
     /tmp/ccjsdB5h.s:1843   .text.osThreadYield:0000000000000000 osThreadYield
     /tmp/ccjsdB5h.s:1931   .text.osThreadYield:0000000000000044 $d
     /tmp/ccjsdB5h.s:1937   .text.osThreadSuspend:0000000000000000 $t
     /tmp/ccjsdB5h.s:1944   .text.osThreadSuspend:0000000000000000 osThreadSuspend
     /tmp/ccjsdB5h.s:2041   .text.osThreadSuspend:0000000000000040 $d
     /tmp/ccjsdB5h.s:2046   .text.osThreadResume:0000000000000000 $t
     /tmp/ccjsdB5h.s:2053   .text.osThreadResume:0000000000000000 osThreadResume
     /tmp/ccjsdB5h.s:2150   .text.osThreadResume:0000000000000040 $d
     /tmp/ccjsdB5h.s:2155   .text.osThreadExit:0000000000000000 $t
     /tmp/ccjsdB5h.s:2162   .text.osThreadExit:0000000000000000 osThreadExit
     /tmp/ccjsdB5h.s:2184   .text.osThreadTerminate:0000000000000000 $t
     /tmp/ccjsdB5h.s:2191   .text.osThreadTerminate:0000000000000000 osThreadTerminate
     /tmp/ccjsdB5h.s:2312   .text.osThreadTerminate:0000000000000054 $d
     /tmp/ccjsdB5h.s:2317   .text.osThreadGetCount:0000000000000000 $t
     /tmp/ccjsdB5h.s:2324   .text.osThreadGetCount:0000000000000000 osThreadGetCount
     /tmp/ccjsdB5h.s:2408   .text.osThreadGetCount:000000000000002c $d
     /tmp/ccjsdB5h.s:2413   .text.osThreadEnumerate:0000000000000000 $t
     /tmp/ccjsdB5h.s:2420   .text.osThreadEnumerate:0000000000000000 osThreadEnumerate
     /tmp/ccjsdB5h.s:2574   .text.osThreadEnumerate:0000000000000088 $d
     /tmp/ccjsdB5h.s:2579   .text.osThreadFlagsSet:0000000000000000 $t
     /tmp/ccjsdB5h.s:2586   .text.osThreadFlagsSet:0000000000000000 osThreadFlagsSet
     /tmp/ccjsdB5h.s:2731   .text.osThreadFlagsSet:0000000000000088 $d
     /tmp/ccjsdB5h.s:2737   .text.osThreadFlagsClear:0000000000000000 $t
     /tmp/ccjsdB5h.s:2744   .text.osThreadFlagsClear:0000000000000000 osThreadFlagsClear
     /tmp/ccjsdB5h.s:2882   .text.osThreadFlagsClear:0000000000000078 $d
     /tmp/ccjsdB5h.s:2887   .text.osThreadFlagsGet:0000000000000000 $t
     /tmp/ccjsdB5h.s:2894   .text.osThreadFlagsGet:0000000000000000 osThreadFlagsGet
     /tmp/ccjsdB5h.s:2982   .text.osThreadFlagsGet:0000000000000048 $d
     /tmp/ccjsdB5h.s:2987   .text.osThreadFlagsWait:0000000000000000 $t
     /tmp/ccjsdB5h.s:2994   .text.osThreadFlagsWait:0000000000000000 osThreadFlagsWait
     /tmp/ccjsdB5h.s:3216   .text.osThreadFlagsWait:00000000000000ec $d
     /tmp/ccjsdB5h.s:3221   .text.osDelay:0000000000000000 $t
     /tmp/ccjsdB5h.s:3228   .text.osDelay:0000000000000000 osDelay
     /tmp/ccjsdB5h.s:3323   .text.osDelay:0000000000000040 $d
     /tmp/ccjsdB5h.s:3328   .text.osDelayUntil:0000000000000000 $t
     /tmp/ccjsdB5h.s:3335   .text.osDelayUntil:0000000000000000 osDelayUntil
     /tmp/ccjsdB5h.s:3440   .text.osDelayUntil:000000000000004c $d
     /tmp/ccjsdB5h.s:3445   .text.osTimerNew:0000000000000000 $t
     /tmp/ccjsdB5h.s:3452   .text.osTimerNew:0000000000000000 osTimerNew
     /tmp/ccjsdB5h.s:3633   .text.osTimerNew:0000000000000090 $d
     /tmp/ccjsdB5h.s:3639   .text.osTimerGetName:0000000000000000 $t
     /tmp/ccjsdB5h.s:3646   .text.osTimerGetName:0000000000000000 osTimerGetName
     /tmp/ccjsdB5h.s:3738   .text.osTimerGetName:0000000000000038 $d
     /tmp/ccjsdB5h.s:3743   .text.osTimerStart:0000000000000000 $t
     /tmp/ccjsdB5h.s:3750   .text.osTimerStart:0000000000000000 osTimerStart
     /tmp/ccjsdB5h.s:3861   .text.osTimerStart:0000000000000058 $d
     /tmp/ccjsdB5h.s:3866   .text.osTimerStop:0000000000000000 $t
     /tmp/ccjsdB5h.s:3873   .text.osTimerStop:0000000000000000 osTimerStop
     /tmp/ccjsdB5h.s:4001   .text.osTimerStop:0000000000000064 $d
     /tmp/ccjsdB5h.s:4006   .text.osTimerIsRunning:0000000000000000 $t
     /tmp/ccjsdB5h.s:4013   .text.osTimerIsRunning:0000000000000000 osTimerIsRunning
     /tmp/ccjsdB5h.s:4101   .text.osTimerIsRunning:0000000000000038 $d
     /tmp/ccjsdB5h.s:4106   .text.osTimerDelete:0000000000000000 $t
ARM GAS  /tmp/ccjsdB5h.s 			page 197


     /tmp/ccjsdB5h.s:4113   .text.osTimerDelete:0000000000000000 osTimerDelete
     /tmp/ccjsdB5h.s:4252   .text.osTimerDelete:0000000000000068 $d
     /tmp/ccjsdB5h.s:4257   .text.osEventFlagsNew:0000000000000000 $t
     /tmp/ccjsdB5h.s:4264   .text.osEventFlagsNew:0000000000000000 osEventFlagsNew
     /tmp/ccjsdB5h.s:4385   .text.osEventFlagsNew:0000000000000050 $d
     /tmp/ccjsdB5h.s:4390   .text.osEventFlagsSet:0000000000000000 $t
     /tmp/ccjsdB5h.s:4397   .text.osEventFlagsSet:0000000000000000 osEventFlagsSet
     /tmp/ccjsdB5h.s:4543   .text.osEventFlagsSet:0000000000000070 $d
     /tmp/ccjsdB5h.s:4549   .text.osEventFlagsClear:0000000000000000 $t
     /tmp/ccjsdB5h.s:4556   .text.osEventFlagsClear:0000000000000000 osEventFlagsClear
     /tmp/ccjsdB5h.s:4670   .text.osEventFlagsClear:000000000000005c $d
     /tmp/ccjsdB5h.s:4675   .text.osEventFlagsGet:0000000000000000 $t
     /tmp/ccjsdB5h.s:4682   .text.osEventFlagsGet:0000000000000000 osEventFlagsGet
     /tmp/ccjsdB5h.s:4769   .text.osEventFlagsGet:0000000000000030 $d
     /tmp/ccjsdB5h.s:4774   .text.osEventFlagsWait:0000000000000000 $t
     /tmp/ccjsdB5h.s:4781   .text.osEventFlagsWait:0000000000000000 osEventFlagsWait
     /tmp/ccjsdB5h.s:4944   .text.osEventFlagsWait:000000000000008c $d
     /tmp/ccjsdB5h.s:4949   .text.osEventFlagsDelete:0000000000000000 $t
     /tmp/ccjsdB5h.s:4956   .text.osEventFlagsDelete:0000000000000000 osEventFlagsDelete
     /tmp/ccjsdB5h.s:5053   .text.osEventFlagsDelete:0000000000000040 $d
     /tmp/ccjsdB5h.s:5058   .text.osMutexNew:0000000000000000 $t
     /tmp/ccjsdB5h.s:5065   .text.osMutexNew:0000000000000000 osMutexNew
     /tmp/ccjsdB5h.s:5264   .text.osMutexNew:00000000000000a8 $d
     /tmp/ccjsdB5h.s:5269   .text.osMutexAcquire:0000000000000000 $t
     /tmp/ccjsdB5h.s:5276   .text.osMutexAcquire:0000000000000000 osMutexAcquire
     /tmp/ccjsdB5h.s:5419   .text.osMutexAcquire:000000000000007c $d
     /tmp/ccjsdB5h.s:5424   .text.osMutexRelease:0000000000000000 $t
     /tmp/ccjsdB5h.s:5431   .text.osMutexRelease:0000000000000000 osMutexRelease
     /tmp/ccjsdB5h.s:5563   .text.osMutexRelease:000000000000006c $d
     /tmp/ccjsdB5h.s:5568   .text.osMutexGetOwner:0000000000000000 $t
     /tmp/ccjsdB5h.s:5575   .text.osMutexGetOwner:0000000000000000 osMutexGetOwner
     /tmp/ccjsdB5h.s:5669   .text.osMutexGetOwner:000000000000003c $d
     /tmp/ccjsdB5h.s:5674   .text.osMutexDelete:0000000000000000 $t
     /tmp/ccjsdB5h.s:5681   .text.osMutexDelete:0000000000000000 osMutexDelete
     /tmp/ccjsdB5h.s:5795   .text.osMutexDelete:000000000000004c $d
     /tmp/ccjsdB5h.s:5800   .text.osSemaphoreNew:0000000000000000 $t
     /tmp/ccjsdB5h.s:5807   .text.osSemaphoreNew:0000000000000000 osSemaphoreNew
     /tmp/ccjsdB5h.s:6033   .text.osSemaphoreNew:00000000000000d4 $d
     /tmp/ccjsdB5h.s:6038   .text.osSemaphoreAcquire:0000000000000000 $t
     /tmp/ccjsdB5h.s:6045   .text.osSemaphoreAcquire:0000000000000000 osSemaphoreAcquire
     /tmp/ccjsdB5h.s:6200   .text.osSemaphoreAcquire:0000000000000080 $d
     /tmp/ccjsdB5h.s:6206   .text.osSemaphoreRelease:0000000000000000 $t
     /tmp/ccjsdB5h.s:6213   .text.osSemaphoreRelease:0000000000000000 osSemaphoreRelease
     /tmp/ccjsdB5h.s:6350   .text.osSemaphoreRelease:0000000000000074 $d
     /tmp/ccjsdB5h.s:6356   .text.osSemaphoreGetCount:0000000000000000 $t
     /tmp/ccjsdB5h.s:6363   .text.osSemaphoreGetCount:0000000000000000 osSemaphoreGetCount
     /tmp/ccjsdB5h.s:6449   .text.osSemaphoreGetCount:0000000000000030 $d
     /tmp/ccjsdB5h.s:6454   .text.osSemaphoreDelete:0000000000000000 $t
     /tmp/ccjsdB5h.s:6461   .text.osSemaphoreDelete:0000000000000000 osSemaphoreDelete
     /tmp/ccjsdB5h.s:6564   .text.osSemaphoreDelete:0000000000000048 $d
     /tmp/ccjsdB5h.s:6569   .text.osMessageQueueNew:0000000000000000 $t
     /tmp/ccjsdB5h.s:6576   .text.osMessageQueueNew:0000000000000000 osMessageQueueNew
     /tmp/ccjsdB5h.s:6783   .text.osMessageQueueNew:00000000000000bc $d
     /tmp/ccjsdB5h.s:6788   .text.osMessageQueuePut:0000000000000000 $t
     /tmp/ccjsdB5h.s:6795   .text.osMessageQueuePut:0000000000000000 osMessageQueuePut
     /tmp/ccjsdB5h.s:6970   .text.osMessageQueuePut:00000000000000a0 $d
     /tmp/ccjsdB5h.s:6976   .text.osMessageQueueGet:0000000000000000 $t
ARM GAS  /tmp/ccjsdB5h.s 			page 198


     /tmp/ccjsdB5h.s:6983   .text.osMessageQueueGet:0000000000000000 osMessageQueueGet
     /tmp/ccjsdB5h.s:7157   .text.osMessageQueueGet:00000000000000a0 $d
     /tmp/ccjsdB5h.s:7163   .text.osMessageQueueGetCapacity:0000000000000000 $t
     /tmp/ccjsdB5h.s:7170   .text.osMessageQueueGetCapacity:0000000000000000 osMessageQueueGetCapacity
     /tmp/ccjsdB5h.s:7195   .text.osMessageQueueGetMsgSize:0000000000000000 $t
     /tmp/ccjsdB5h.s:7202   .text.osMessageQueueGetMsgSize:0000000000000000 osMessageQueueGetMsgSize
     /tmp/ccjsdB5h.s:7227   .text.osMessageQueueGetCount:0000000000000000 $t
     /tmp/ccjsdB5h.s:7234   .text.osMessageQueueGetCount:0000000000000000 osMessageQueueGetCount
     /tmp/ccjsdB5h.s:7320   .text.osMessageQueueGetCount:0000000000000030 $d
     /tmp/ccjsdB5h.s:7325   .text.osMessageQueueGetSpace:0000000000000000 $t
     /tmp/ccjsdB5h.s:7332   .text.osMessageQueueGetSpace:0000000000000000 osMessageQueueGetSpace
     /tmp/ccjsdB5h.s:7452   .text.osMessageQueueGetSpace:000000000000004c $d
     /tmp/ccjsdB5h.s:7457   .text.osMessageQueueReset:0000000000000000 $t
     /tmp/ccjsdB5h.s:7464   .text.osMessageQueueReset:0000000000000000 osMessageQueueReset
     /tmp/ccjsdB5h.s:7562   .text.osMessageQueueReset:0000000000000044 $d
     /tmp/ccjsdB5h.s:7567   .text.osMessageQueueDelete:0000000000000000 $t
     /tmp/ccjsdB5h.s:7574   .text.osMessageQueueDelete:0000000000000000 osMessageQueueDelete
     /tmp/ccjsdB5h.s:7677   .text.osMessageQueueDelete:0000000000000048 $d
     /tmp/ccjsdB5h.s:7682   .text.vApplicationGetIdleTaskMemory:0000000000000000 $t
     /tmp/ccjsdB5h.s:7689   .text.vApplicationGetIdleTaskMemory:0000000000000000 vApplicationGetIdleTaskMemory
     /tmp/ccjsdB5h.s:7711   .text.vApplicationGetIdleTaskMemory:0000000000000010 $d
     /tmp/ccjsdB5h.s:7717   .text.vApplicationGetTimerTaskMemory:0000000000000000 $t
     /tmp/ccjsdB5h.s:7724   .text.vApplicationGetTimerTaskMemory:0000000000000000 vApplicationGetTimerTaskMemory
     /tmp/ccjsdB5h.s:7746   .text.vApplicationGetTimerTaskMemory:0000000000000010 $d
     /tmp/ccjsdB5h.s:7752   .bss.Idle_Stack:0000000000000000 $d
     /tmp/ccjsdB5h.s:7756   .bss.Idle_Stack:0000000000000000 Idle_Stack
     /tmp/ccjsdB5h.s:7759   .bss.Idle_TCB:0000000000000000 $d
     /tmp/ccjsdB5h.s:7763   .bss.Idle_TCB:0000000000000000 Idle_TCB
     /tmp/ccjsdB5h.s:7766   .bss.KernelState:0000000000000000 $d
     /tmp/ccjsdB5h.s:7770   .bss.KernelState:0000000000000000 KernelState
     /tmp/ccjsdB5h.s:7773   .bss.Timer_Stack:0000000000000000 $d
     /tmp/ccjsdB5h.s:7777   .bss.Timer_Stack:0000000000000000 Timer_Stack
     /tmp/ccjsdB5h.s:7780   .bss.Timer_TCB:0000000000000000 $d
     /tmp/ccjsdB5h.s:7784   .bss.Timer_TCB:0000000000000000 Timer_TCB
     /tmp/ccjsdB5h.s:7787   .rodata.osKernelGetInfo.str1.4:0000000000000000 $d
     /tmp/ccjsdB5h.s:1421   .text.osThreadGetState:0000000000000029 $d
     /tmp/ccjsdB5h.s:1421   .text.osThreadGetState:000000000000002a $t

UNDEFINED SYMBOLS
pvTimerGetTimerID
memcpy
xTaskGetSchedulerState
vTaskStartScheduler
vTaskSuspendAll
xTaskResumeAll
xTaskGetTickCount
xTaskGetTickCountFromISR
SystemCoreClock
xTaskCreateStatic
xTaskCreate
pcTaskGetName
xTaskGetCurrentTaskHandle
eTaskGetState
uxTaskGetStackHighWaterMark
vTaskPrioritySet
uxTaskPriorityGet
vTaskSuspend
ARM GAS  /tmp/ccjsdB5h.s 			page 199


vTaskResume
vTaskDelete
uxTaskGetNumberOfTasks
pvPortMalloc
uxTaskGetSystemState
vPortFree
xTaskGenericNotifyFromISR
xTaskGenericNotify
xTaskNotifyWait
vTaskDelay
vTaskDelayUntil
xTimerCreateStatic
xTimerCreate
pcTimerGetName
xTimerGenericCommand
xTimerIsTimerActive
xEventGroupCreate
xEventGroupCreateStatic
xEventGroupSetBitsFromISR
xEventGroupSetBits
xEventGroupGetBitsFromISR
xEventGroupClearBitsFromISR
xEventGroupClearBits
xEventGroupWaitBits
vEventGroupDelete
xQueueCreateMutex
xQueueCreateMutexStatic
vQueueAddToRegistry
xQueueTakeMutexRecursive
xQueueSemaphoreTake
xQueueGiveMutexRecursive
xQueueGenericSend
xQueueGetMutexHolder
vQueueUnregisterQueue
vQueueDelete
xQueueGenericCreate
xQueueGenericCreateStatic
xQueueCreateCountingSemaphoreStatic
xQueueCreateCountingSemaphore
xQueueReceiveFromISR
xQueueGiveFromISR
uxQueueMessagesWaiting
uxQueueMessagesWaitingFromISR
xQueueGenericSendFromISR
xQueueReceive
uxQueueSpacesAvailable
xQueueGenericReset
