ARM GAS  /tmp/ccO8U11d.s 			page 1


   1              		.cpu cortex-m4
   2              		.eabi_attribute 27, 1
   3              		.eabi_attribute 28, 1
   4              		.eabi_attribute 20, 1
   5              		.eabi_attribute 21, 1
   6              		.eabi_attribute 23, 3
   7              		.eabi_attribute 24, 1
   8              		.eabi_attribute 25, 1
   9              		.eabi_attribute 26, 1
  10              		.eabi_attribute 30, 1
  11              		.eabi_attribute 34, 1
  12              		.eabi_attribute 18, 4
  13              		.file	"stm32f4xx_hal_dma_ex.c"
  14              		.text
  15              	.Ltext0:
  16              		.cfi_sections	.debug_frame
  17              		.section	.text.HAL_DMAEx_MultiBufferStart,"ax",%progbits
  18              		.align	1
  19              		.global	HAL_DMAEx_MultiBufferStart
  20              		.syntax unified
  21              		.thumb
  22              		.thumb_func
  23              		.fpu fpv4-sp-d16
  25              	HAL_DMAEx_MultiBufferStart:
  26              	.LFB130:
  27              		.file 1 "Drivers/STM32F4xx_HAL_Driver/Src/stm32f4xx_hal_dma_ex.c"
   1:Drivers/STM32F4xx_HAL_Driver/Src/stm32f4xx_hal_dma_ex.c **** /**
   2:Drivers/STM32F4xx_HAL_Driver/Src/stm32f4xx_hal_dma_ex.c ****   ******************************************************************************
   3:Drivers/STM32F4xx_HAL_Driver/Src/stm32f4xx_hal_dma_ex.c ****   * @file    stm32f4xx_hal_dma_ex.c
   4:Drivers/STM32F4xx_HAL_Driver/Src/stm32f4xx_hal_dma_ex.c ****   * @author  MCD Application Team
   5:Drivers/STM32F4xx_HAL_Driver/Src/stm32f4xx_hal_dma_ex.c ****   * @brief   DMA Extension HAL module driver
   6:Drivers/STM32F4xx_HAL_Driver/Src/stm32f4xx_hal_dma_ex.c ****   *         This file provides firmware functions to manage the following 
   7:Drivers/STM32F4xx_HAL_Driver/Src/stm32f4xx_hal_dma_ex.c ****   *         functionalities of the DMA Extension peripheral:
   8:Drivers/STM32F4xx_HAL_Driver/Src/stm32f4xx_hal_dma_ex.c ****   *           + Extended features functions
   9:Drivers/STM32F4xx_HAL_Driver/Src/stm32f4xx_hal_dma_ex.c ****   *
  10:Drivers/STM32F4xx_HAL_Driver/Src/stm32f4xx_hal_dma_ex.c ****   @verbatim
  11:Drivers/STM32F4xx_HAL_Driver/Src/stm32f4xx_hal_dma_ex.c ****   ==============================================================================
  12:Drivers/STM32F4xx_HAL_Driver/Src/stm32f4xx_hal_dma_ex.c ****                         ##### How to use this driver #####
  13:Drivers/STM32F4xx_HAL_Driver/Src/stm32f4xx_hal_dma_ex.c ****   ==============================================================================
  14:Drivers/STM32F4xx_HAL_Driver/Src/stm32f4xx_hal_dma_ex.c ****   [..]
  15:Drivers/STM32F4xx_HAL_Driver/Src/stm32f4xx_hal_dma_ex.c ****   The DMA Extension HAL driver can be used as follows:
  16:Drivers/STM32F4xx_HAL_Driver/Src/stm32f4xx_hal_dma_ex.c ****    (#) Start a multi buffer transfer using the HAL_DMA_MultiBufferStart() function
  17:Drivers/STM32F4xx_HAL_Driver/Src/stm32f4xx_hal_dma_ex.c ****        for polling mode or HAL_DMA_MultiBufferStart_IT() for interrupt mode.
  18:Drivers/STM32F4xx_HAL_Driver/Src/stm32f4xx_hal_dma_ex.c ****                    
  19:Drivers/STM32F4xx_HAL_Driver/Src/stm32f4xx_hal_dma_ex.c ****      -@-  In Memory-to-Memory transfer mode, Multi (Double) Buffer mode is not allowed.
  20:Drivers/STM32F4xx_HAL_Driver/Src/stm32f4xx_hal_dma_ex.c ****      -@-  When Multi (Double) Buffer mode is enabled the, transfer is circular by default.
  21:Drivers/STM32F4xx_HAL_Driver/Src/stm32f4xx_hal_dma_ex.c ****      -@-  In Multi (Double) buffer mode, it is possible to update the base address for 
  22:Drivers/STM32F4xx_HAL_Driver/Src/stm32f4xx_hal_dma_ex.c ****           the AHB memory port on the fly (DMA_SxM0AR or DMA_SxM1AR) when the stream is enabled. 
  23:Drivers/STM32F4xx_HAL_Driver/Src/stm32f4xx_hal_dma_ex.c ****   
  24:Drivers/STM32F4xx_HAL_Driver/Src/stm32f4xx_hal_dma_ex.c ****   @endverbatim
  25:Drivers/STM32F4xx_HAL_Driver/Src/stm32f4xx_hal_dma_ex.c ****   ******************************************************************************
  26:Drivers/STM32F4xx_HAL_Driver/Src/stm32f4xx_hal_dma_ex.c ****   * @attention
  27:Drivers/STM32F4xx_HAL_Driver/Src/stm32f4xx_hal_dma_ex.c ****   *
  28:Drivers/STM32F4xx_HAL_Driver/Src/stm32f4xx_hal_dma_ex.c ****   * <h2><center>&copy; Copyright (c) 2017 STMicroelectronics.
  29:Drivers/STM32F4xx_HAL_Driver/Src/stm32f4xx_hal_dma_ex.c ****   * All rights reserved.</center></h2>
  30:Drivers/STM32F4xx_HAL_Driver/Src/stm32f4xx_hal_dma_ex.c ****   *
  31:Drivers/STM32F4xx_HAL_Driver/Src/stm32f4xx_hal_dma_ex.c ****   * This software component is licensed by ST under BSD 3-Clause license,
ARM GAS  /tmp/ccO8U11d.s 			page 2


  32:Drivers/STM32F4xx_HAL_Driver/Src/stm32f4xx_hal_dma_ex.c ****   * the "License"; You may not use this file except in compliance with the
  33:Drivers/STM32F4xx_HAL_Driver/Src/stm32f4xx_hal_dma_ex.c ****   * License. You may obtain a copy of the License at:
  34:Drivers/STM32F4xx_HAL_Driver/Src/stm32f4xx_hal_dma_ex.c ****   *                        opensource.org/licenses/BSD-3-Clause
  35:Drivers/STM32F4xx_HAL_Driver/Src/stm32f4xx_hal_dma_ex.c ****   *
  36:Drivers/STM32F4xx_HAL_Driver/Src/stm32f4xx_hal_dma_ex.c ****   ******************************************************************************
  37:Drivers/STM32F4xx_HAL_Driver/Src/stm32f4xx_hal_dma_ex.c ****   */
  38:Drivers/STM32F4xx_HAL_Driver/Src/stm32f4xx_hal_dma_ex.c **** 
  39:Drivers/STM32F4xx_HAL_Driver/Src/stm32f4xx_hal_dma_ex.c **** /* Includes ------------------------------------------------------------------*/
  40:Drivers/STM32F4xx_HAL_Driver/Src/stm32f4xx_hal_dma_ex.c **** #include "stm32f4xx_hal.h"
  41:Drivers/STM32F4xx_HAL_Driver/Src/stm32f4xx_hal_dma_ex.c **** 
  42:Drivers/STM32F4xx_HAL_Driver/Src/stm32f4xx_hal_dma_ex.c **** /** @addtogroup STM32F4xx_HAL_Driver
  43:Drivers/STM32F4xx_HAL_Driver/Src/stm32f4xx_hal_dma_ex.c ****   * @{
  44:Drivers/STM32F4xx_HAL_Driver/Src/stm32f4xx_hal_dma_ex.c ****   */
  45:Drivers/STM32F4xx_HAL_Driver/Src/stm32f4xx_hal_dma_ex.c **** 
  46:Drivers/STM32F4xx_HAL_Driver/Src/stm32f4xx_hal_dma_ex.c **** /** @defgroup DMAEx DMAEx
  47:Drivers/STM32F4xx_HAL_Driver/Src/stm32f4xx_hal_dma_ex.c ****   * @brief DMA Extended HAL module driver
  48:Drivers/STM32F4xx_HAL_Driver/Src/stm32f4xx_hal_dma_ex.c ****   * @{
  49:Drivers/STM32F4xx_HAL_Driver/Src/stm32f4xx_hal_dma_ex.c ****   */
  50:Drivers/STM32F4xx_HAL_Driver/Src/stm32f4xx_hal_dma_ex.c **** 
  51:Drivers/STM32F4xx_HAL_Driver/Src/stm32f4xx_hal_dma_ex.c **** #ifdef HAL_DMA_MODULE_ENABLED
  52:Drivers/STM32F4xx_HAL_Driver/Src/stm32f4xx_hal_dma_ex.c **** 
  53:Drivers/STM32F4xx_HAL_Driver/Src/stm32f4xx_hal_dma_ex.c **** /* Private types -------------------------------------------------------------*/
  54:Drivers/STM32F4xx_HAL_Driver/Src/stm32f4xx_hal_dma_ex.c **** /* Private variables ---------------------------------------------------------*/
  55:Drivers/STM32F4xx_HAL_Driver/Src/stm32f4xx_hal_dma_ex.c **** /* Private Constants ---------------------------------------------------------*/
  56:Drivers/STM32F4xx_HAL_Driver/Src/stm32f4xx_hal_dma_ex.c **** /* Private macros ------------------------------------------------------------*/
  57:Drivers/STM32F4xx_HAL_Driver/Src/stm32f4xx_hal_dma_ex.c **** /* Private functions ---------------------------------------------------------*/
  58:Drivers/STM32F4xx_HAL_Driver/Src/stm32f4xx_hal_dma_ex.c **** /** @addtogroup DMAEx_Private_Functions
  59:Drivers/STM32F4xx_HAL_Driver/Src/stm32f4xx_hal_dma_ex.c ****   * @{
  60:Drivers/STM32F4xx_HAL_Driver/Src/stm32f4xx_hal_dma_ex.c ****   */
  61:Drivers/STM32F4xx_HAL_Driver/Src/stm32f4xx_hal_dma_ex.c **** static void DMA_MultiBufferSetConfig(DMA_HandleTypeDef *hdma, uint32_t SrcAddress, uint32_t DstAddr
  62:Drivers/STM32F4xx_HAL_Driver/Src/stm32f4xx_hal_dma_ex.c **** /**
  63:Drivers/STM32F4xx_HAL_Driver/Src/stm32f4xx_hal_dma_ex.c ****   * @}
  64:Drivers/STM32F4xx_HAL_Driver/Src/stm32f4xx_hal_dma_ex.c ****   */
  65:Drivers/STM32F4xx_HAL_Driver/Src/stm32f4xx_hal_dma_ex.c **** 
  66:Drivers/STM32F4xx_HAL_Driver/Src/stm32f4xx_hal_dma_ex.c **** /* Exported functions ---------------------------------------------------------*/
  67:Drivers/STM32F4xx_HAL_Driver/Src/stm32f4xx_hal_dma_ex.c **** 
  68:Drivers/STM32F4xx_HAL_Driver/Src/stm32f4xx_hal_dma_ex.c **** /** @addtogroup DMAEx_Exported_Functions
  69:Drivers/STM32F4xx_HAL_Driver/Src/stm32f4xx_hal_dma_ex.c ****   * @{
  70:Drivers/STM32F4xx_HAL_Driver/Src/stm32f4xx_hal_dma_ex.c ****   */
  71:Drivers/STM32F4xx_HAL_Driver/Src/stm32f4xx_hal_dma_ex.c **** 
  72:Drivers/STM32F4xx_HAL_Driver/Src/stm32f4xx_hal_dma_ex.c **** 
  73:Drivers/STM32F4xx_HAL_Driver/Src/stm32f4xx_hal_dma_ex.c **** /** @addtogroup DMAEx_Exported_Functions_Group1
  74:Drivers/STM32F4xx_HAL_Driver/Src/stm32f4xx_hal_dma_ex.c ****   *
  75:Drivers/STM32F4xx_HAL_Driver/Src/stm32f4xx_hal_dma_ex.c **** @verbatim   
  76:Drivers/STM32F4xx_HAL_Driver/Src/stm32f4xx_hal_dma_ex.c ****  ===============================================================================
  77:Drivers/STM32F4xx_HAL_Driver/Src/stm32f4xx_hal_dma_ex.c ****                 #####  Extended features functions  #####
  78:Drivers/STM32F4xx_HAL_Driver/Src/stm32f4xx_hal_dma_ex.c ****  ===============================================================================  
  79:Drivers/STM32F4xx_HAL_Driver/Src/stm32f4xx_hal_dma_ex.c ****     [..]  This section provides functions allowing to:
  80:Drivers/STM32F4xx_HAL_Driver/Src/stm32f4xx_hal_dma_ex.c ****       (+) Configure the source, destination address and data length and 
  81:Drivers/STM32F4xx_HAL_Driver/Src/stm32f4xx_hal_dma_ex.c ****           Start MultiBuffer DMA transfer
  82:Drivers/STM32F4xx_HAL_Driver/Src/stm32f4xx_hal_dma_ex.c ****       (+) Configure the source, destination address and data length and 
  83:Drivers/STM32F4xx_HAL_Driver/Src/stm32f4xx_hal_dma_ex.c ****           Start MultiBuffer DMA transfer with interrupt
  84:Drivers/STM32F4xx_HAL_Driver/Src/stm32f4xx_hal_dma_ex.c ****       (+) Change on the fly the memory0 or memory1 address.
  85:Drivers/STM32F4xx_HAL_Driver/Src/stm32f4xx_hal_dma_ex.c ****       
  86:Drivers/STM32F4xx_HAL_Driver/Src/stm32f4xx_hal_dma_ex.c **** @endverbatim
  87:Drivers/STM32F4xx_HAL_Driver/Src/stm32f4xx_hal_dma_ex.c ****   * @{
  88:Drivers/STM32F4xx_HAL_Driver/Src/stm32f4xx_hal_dma_ex.c ****   */
ARM GAS  /tmp/ccO8U11d.s 			page 3


  89:Drivers/STM32F4xx_HAL_Driver/Src/stm32f4xx_hal_dma_ex.c **** 
  90:Drivers/STM32F4xx_HAL_Driver/Src/stm32f4xx_hal_dma_ex.c **** 
  91:Drivers/STM32F4xx_HAL_Driver/Src/stm32f4xx_hal_dma_ex.c **** /**
  92:Drivers/STM32F4xx_HAL_Driver/Src/stm32f4xx_hal_dma_ex.c ****   * @brief  Starts the multi_buffer DMA Transfer.
  93:Drivers/STM32F4xx_HAL_Driver/Src/stm32f4xx_hal_dma_ex.c ****   * @param  hdma       pointer to a DMA_HandleTypeDef structure that contains
  94:Drivers/STM32F4xx_HAL_Driver/Src/stm32f4xx_hal_dma_ex.c ****   *                     the configuration information for the specified DMA Stream.  
  95:Drivers/STM32F4xx_HAL_Driver/Src/stm32f4xx_hal_dma_ex.c ****   * @param  SrcAddress The source memory Buffer address
  96:Drivers/STM32F4xx_HAL_Driver/Src/stm32f4xx_hal_dma_ex.c ****   * @param  DstAddress The destination memory Buffer address
  97:Drivers/STM32F4xx_HAL_Driver/Src/stm32f4xx_hal_dma_ex.c ****   * @param  SecondMemAddress The second memory Buffer address in case of multi buffer Transfer  
  98:Drivers/STM32F4xx_HAL_Driver/Src/stm32f4xx_hal_dma_ex.c ****   * @param  DataLength The length of data to be transferred from source to destination
  99:Drivers/STM32F4xx_HAL_Driver/Src/stm32f4xx_hal_dma_ex.c ****   * @retval HAL status
 100:Drivers/STM32F4xx_HAL_Driver/Src/stm32f4xx_hal_dma_ex.c ****   */
 101:Drivers/STM32F4xx_HAL_Driver/Src/stm32f4xx_hal_dma_ex.c **** HAL_StatusTypeDef HAL_DMAEx_MultiBufferStart(DMA_HandleTypeDef *hdma, uint32_t SrcAddress, uint32_t
 102:Drivers/STM32F4xx_HAL_Driver/Src/stm32f4xx_hal_dma_ex.c **** {
  28              		.loc 1 102 0
  29              		.cfi_startproc
  30              		@ args = 4, pretend = 0, frame = 0
  31              		@ frame_needed = 0, uses_anonymous_args = 0
  32              		@ link register save eliminated.
  33              	.LVL0:
  34 0000 30B4     		push	{r4, r5}
  35              	.LCFI0:
  36              		.cfi_def_cfa_offset 8
  37              		.cfi_offset 4, -8
  38              		.cfi_offset 5, -4
  39              	.LVL1:
 103:Drivers/STM32F4xx_HAL_Driver/Src/stm32f4xx_hal_dma_ex.c ****   HAL_StatusTypeDef status = HAL_OK;
 104:Drivers/STM32F4xx_HAL_Driver/Src/stm32f4xx_hal_dma_ex.c ****   
 105:Drivers/STM32F4xx_HAL_Driver/Src/stm32f4xx_hal_dma_ex.c ****   /* Check the parameters */
 106:Drivers/STM32F4xx_HAL_Driver/Src/stm32f4xx_hal_dma_ex.c ****   assert_param(IS_DMA_BUFFER_SIZE(DataLength));
 107:Drivers/STM32F4xx_HAL_Driver/Src/stm32f4xx_hal_dma_ex.c ****   
 108:Drivers/STM32F4xx_HAL_Driver/Src/stm32f4xx_hal_dma_ex.c ****   /* Memory-to-memory transfer not supported in double buffering mode */
 109:Drivers/STM32F4xx_HAL_Driver/Src/stm32f4xx_hal_dma_ex.c ****   if (hdma->Init.Direction == DMA_MEMORY_TO_MEMORY)
  40              		.loc 1 109 0
  41 0002 8468     		ldr	r4, [r0, #8]
  42 0004 802C     		cmp	r4, #128
  43 0006 0ED0     		beq	.L9
 110:Drivers/STM32F4xx_HAL_Driver/Src/stm32f4xx_hal_dma_ex.c ****   {
 111:Drivers/STM32F4xx_HAL_Driver/Src/stm32f4xx_hal_dma_ex.c ****     hdma->ErrorCode = HAL_DMA_ERROR_NOT_SUPPORTED;
 112:Drivers/STM32F4xx_HAL_Driver/Src/stm32f4xx_hal_dma_ex.c ****     status = HAL_ERROR;
 113:Drivers/STM32F4xx_HAL_Driver/Src/stm32f4xx_hal_dma_ex.c ****   }
 114:Drivers/STM32F4xx_HAL_Driver/Src/stm32f4xx_hal_dma_ex.c ****   else
 115:Drivers/STM32F4xx_HAL_Driver/Src/stm32f4xx_hal_dma_ex.c ****   {
 116:Drivers/STM32F4xx_HAL_Driver/Src/stm32f4xx_hal_dma_ex.c ****     /* Process Locked */
 117:Drivers/STM32F4xx_HAL_Driver/Src/stm32f4xx_hal_dma_ex.c ****     __HAL_LOCK(hdma);
  44              		.loc 1 117 0
  45 0008 90F83440 		ldrb	r4, [r0, #52]	@ zero_extendqisi2
  46 000c 012C     		cmp	r4, #1
  47 000e 2FD0     		beq	.L6
  48              		.loc 1 117 0 is_stmt 0 discriminator 2
  49 0010 0124     		movs	r4, #1
  50 0012 80F83440 		strb	r4, [r0, #52]
 118:Drivers/STM32F4xx_HAL_Driver/Src/stm32f4xx_hal_dma_ex.c ****     
 119:Drivers/STM32F4xx_HAL_Driver/Src/stm32f4xx_hal_dma_ex.c ****     if(HAL_DMA_STATE_READY == hdma->State)
  51              		.loc 1 119 0 is_stmt 1 discriminator 2
  52 0016 90F83540 		ldrb	r4, [r0, #53]	@ zero_extendqisi2
  53 001a E4B2     		uxtb	r4, r4
ARM GAS  /tmp/ccO8U11d.s 			page 4


  54 001c 012C     		cmp	r4, #1
  55 001e 07D0     		beq	.L10
 120:Drivers/STM32F4xx_HAL_Driver/Src/stm32f4xx_hal_dma_ex.c ****     {
 121:Drivers/STM32F4xx_HAL_Driver/Src/stm32f4xx_hal_dma_ex.c ****       /* Change DMA peripheral state */
 122:Drivers/STM32F4xx_HAL_Driver/Src/stm32f4xx_hal_dma_ex.c ****       hdma->State = HAL_DMA_STATE_BUSY; 
 123:Drivers/STM32F4xx_HAL_Driver/Src/stm32f4xx_hal_dma_ex.c ****       
 124:Drivers/STM32F4xx_HAL_Driver/Src/stm32f4xx_hal_dma_ex.c ****       /* Enable the double buffer mode */
 125:Drivers/STM32F4xx_HAL_Driver/Src/stm32f4xx_hal_dma_ex.c ****       hdma->Instance->CR |= (uint32_t)DMA_SxCR_DBM;
 126:Drivers/STM32F4xx_HAL_Driver/Src/stm32f4xx_hal_dma_ex.c ****       
 127:Drivers/STM32F4xx_HAL_Driver/Src/stm32f4xx_hal_dma_ex.c ****       /* Configure DMA Stream destination address */
 128:Drivers/STM32F4xx_HAL_Driver/Src/stm32f4xx_hal_dma_ex.c ****       hdma->Instance->M1AR = SecondMemAddress;
 129:Drivers/STM32F4xx_HAL_Driver/Src/stm32f4xx_hal_dma_ex.c ****       
 130:Drivers/STM32F4xx_HAL_Driver/Src/stm32f4xx_hal_dma_ex.c ****       /* Configure the source, destination address and the data length */
 131:Drivers/STM32F4xx_HAL_Driver/Src/stm32f4xx_hal_dma_ex.c ****       DMA_MultiBufferSetConfig(hdma, SrcAddress, DstAddress, DataLength);
 132:Drivers/STM32F4xx_HAL_Driver/Src/stm32f4xx_hal_dma_ex.c ****       
 133:Drivers/STM32F4xx_HAL_Driver/Src/stm32f4xx_hal_dma_ex.c ****       /* Enable the peripheral */
 134:Drivers/STM32F4xx_HAL_Driver/Src/stm32f4xx_hal_dma_ex.c ****       __HAL_DMA_ENABLE(hdma);
 135:Drivers/STM32F4xx_HAL_Driver/Src/stm32f4xx_hal_dma_ex.c ****     }
 136:Drivers/STM32F4xx_HAL_Driver/Src/stm32f4xx_hal_dma_ex.c ****     else
 137:Drivers/STM32F4xx_HAL_Driver/Src/stm32f4xx_hal_dma_ex.c ****     {
 138:Drivers/STM32F4xx_HAL_Driver/Src/stm32f4xx_hal_dma_ex.c ****       /* Return error status */
 139:Drivers/STM32F4xx_HAL_Driver/Src/stm32f4xx_hal_dma_ex.c ****       status = HAL_BUSY;
  56              		.loc 1 139 0
  57 0020 0220     		movs	r0, #2
  58              	.LVL2:
  59              	.L3:
 140:Drivers/STM32F4xx_HAL_Driver/Src/stm32f4xx_hal_dma_ex.c ****     }
 141:Drivers/STM32F4xx_HAL_Driver/Src/stm32f4xx_hal_dma_ex.c ****   }
 142:Drivers/STM32F4xx_HAL_Driver/Src/stm32f4xx_hal_dma_ex.c ****   return status;
 143:Drivers/STM32F4xx_HAL_Driver/Src/stm32f4xx_hal_dma_ex.c **** }
  60              		.loc 1 143 0
  61 0022 30BC     		pop	{r4, r5}
  62              	.LCFI1:
  63              		.cfi_remember_state
  64              		.cfi_restore 5
  65              		.cfi_restore 4
  66              		.cfi_def_cfa_offset 0
  67              	.LVL3:
  68 0024 7047     		bx	lr
  69              	.LVL4:
  70              	.L9:
  71              	.LCFI2:
  72              		.cfi_restore_state
 111:Drivers/STM32F4xx_HAL_Driver/Src/stm32f4xx_hal_dma_ex.c ****     status = HAL_ERROR;
  73              		.loc 1 111 0
  74 0026 4FF48073 		mov	r3, #256
  75              	.LVL5:
  76 002a 4365     		str	r3, [r0, #84]
  77              	.LVL6:
 112:Drivers/STM32F4xx_HAL_Driver/Src/stm32f4xx_hal_dma_ex.c ****   }
  78              		.loc 1 112 0
  79 002c 0120     		movs	r0, #1
  80              	.LVL7:
  81 002e F8E7     		b	.L3
  82              	.LVL8:
  83              	.L10:
 122:Drivers/STM32F4xx_HAL_Driver/Src/stm32f4xx_hal_dma_ex.c ****       
ARM GAS  /tmp/ccO8U11d.s 			page 5


  84              		.loc 1 122 0
  85 0030 0224     		movs	r4, #2
  86 0032 80F83540 		strb	r4, [r0, #53]
 125:Drivers/STM32F4xx_HAL_Driver/Src/stm32f4xx_hal_dma_ex.c ****       
  87              		.loc 1 125 0
  88 0036 0568     		ldr	r5, [r0]
  89 0038 2C68     		ldr	r4, [r5]
  90 003a 44F48024 		orr	r4, r4, #262144
  91 003e 2C60     		str	r4, [r5]
 128:Drivers/STM32F4xx_HAL_Driver/Src/stm32f4xx_hal_dma_ex.c ****       
  92              		.loc 1 128 0
  93 0040 0468     		ldr	r4, [r0]
  94 0042 2361     		str	r3, [r4, #16]
  95              	.LVL9:
  96              	.LBB4:
  97              	.LBB5:
 144:Drivers/STM32F4xx_HAL_Driver/Src/stm32f4xx_hal_dma_ex.c **** 
 145:Drivers/STM32F4xx_HAL_Driver/Src/stm32f4xx_hal_dma_ex.c **** /**
 146:Drivers/STM32F4xx_HAL_Driver/Src/stm32f4xx_hal_dma_ex.c ****   * @brief  Starts the multi_buffer DMA Transfer with interrupt enabled.
 147:Drivers/STM32F4xx_HAL_Driver/Src/stm32f4xx_hal_dma_ex.c ****   * @param  hdma       pointer to a DMA_HandleTypeDef structure that contains
 148:Drivers/STM32F4xx_HAL_Driver/Src/stm32f4xx_hal_dma_ex.c ****   *                     the configuration information for the specified DMA Stream.  
 149:Drivers/STM32F4xx_HAL_Driver/Src/stm32f4xx_hal_dma_ex.c ****   * @param  SrcAddress The source memory Buffer address
 150:Drivers/STM32F4xx_HAL_Driver/Src/stm32f4xx_hal_dma_ex.c ****   * @param  DstAddress The destination memory Buffer address
 151:Drivers/STM32F4xx_HAL_Driver/Src/stm32f4xx_hal_dma_ex.c ****   * @param  SecondMemAddress The second memory Buffer address in case of multi buffer Transfer  
 152:Drivers/STM32F4xx_HAL_Driver/Src/stm32f4xx_hal_dma_ex.c ****   * @param  DataLength The length of data to be transferred from source to destination
 153:Drivers/STM32F4xx_HAL_Driver/Src/stm32f4xx_hal_dma_ex.c ****   * @retval HAL status
 154:Drivers/STM32F4xx_HAL_Driver/Src/stm32f4xx_hal_dma_ex.c ****   */
 155:Drivers/STM32F4xx_HAL_Driver/Src/stm32f4xx_hal_dma_ex.c **** HAL_StatusTypeDef HAL_DMAEx_MultiBufferStart_IT(DMA_HandleTypeDef *hdma, uint32_t SrcAddress, uint3
 156:Drivers/STM32F4xx_HAL_Driver/Src/stm32f4xx_hal_dma_ex.c **** {
 157:Drivers/STM32F4xx_HAL_Driver/Src/stm32f4xx_hal_dma_ex.c ****   HAL_StatusTypeDef status = HAL_OK;
 158:Drivers/STM32F4xx_HAL_Driver/Src/stm32f4xx_hal_dma_ex.c ****   
 159:Drivers/STM32F4xx_HAL_Driver/Src/stm32f4xx_hal_dma_ex.c ****   /* Check the parameters */
 160:Drivers/STM32F4xx_HAL_Driver/Src/stm32f4xx_hal_dma_ex.c ****   assert_param(IS_DMA_BUFFER_SIZE(DataLength));
 161:Drivers/STM32F4xx_HAL_Driver/Src/stm32f4xx_hal_dma_ex.c ****   
 162:Drivers/STM32F4xx_HAL_Driver/Src/stm32f4xx_hal_dma_ex.c ****   /* Memory-to-memory transfer not supported in double buffering mode */
 163:Drivers/STM32F4xx_HAL_Driver/Src/stm32f4xx_hal_dma_ex.c ****   if (hdma->Init.Direction == DMA_MEMORY_TO_MEMORY)
 164:Drivers/STM32F4xx_HAL_Driver/Src/stm32f4xx_hal_dma_ex.c ****   {
 165:Drivers/STM32F4xx_HAL_Driver/Src/stm32f4xx_hal_dma_ex.c ****     hdma->ErrorCode = HAL_DMA_ERROR_NOT_SUPPORTED;
 166:Drivers/STM32F4xx_HAL_Driver/Src/stm32f4xx_hal_dma_ex.c ****     return HAL_ERROR;
 167:Drivers/STM32F4xx_HAL_Driver/Src/stm32f4xx_hal_dma_ex.c ****   }
 168:Drivers/STM32F4xx_HAL_Driver/Src/stm32f4xx_hal_dma_ex.c ****   
 169:Drivers/STM32F4xx_HAL_Driver/Src/stm32f4xx_hal_dma_ex.c ****   /* Check callback functions */
 170:Drivers/STM32F4xx_HAL_Driver/Src/stm32f4xx_hal_dma_ex.c ****   if ((NULL == hdma->XferCpltCallback) || (NULL == hdma->XferM1CpltCallback) || (NULL == hdma->Xfer
 171:Drivers/STM32F4xx_HAL_Driver/Src/stm32f4xx_hal_dma_ex.c ****   {
 172:Drivers/STM32F4xx_HAL_Driver/Src/stm32f4xx_hal_dma_ex.c ****     hdma->ErrorCode = HAL_DMA_ERROR_PARAM;
 173:Drivers/STM32F4xx_HAL_Driver/Src/stm32f4xx_hal_dma_ex.c ****     return HAL_ERROR;
 174:Drivers/STM32F4xx_HAL_Driver/Src/stm32f4xx_hal_dma_ex.c ****   }
 175:Drivers/STM32F4xx_HAL_Driver/Src/stm32f4xx_hal_dma_ex.c ****   
 176:Drivers/STM32F4xx_HAL_Driver/Src/stm32f4xx_hal_dma_ex.c ****   /* Process locked */
 177:Drivers/STM32F4xx_HAL_Driver/Src/stm32f4xx_hal_dma_ex.c ****   __HAL_LOCK(hdma);
 178:Drivers/STM32F4xx_HAL_Driver/Src/stm32f4xx_hal_dma_ex.c ****   
 179:Drivers/STM32F4xx_HAL_Driver/Src/stm32f4xx_hal_dma_ex.c ****   if(HAL_DMA_STATE_READY == hdma->State)
 180:Drivers/STM32F4xx_HAL_Driver/Src/stm32f4xx_hal_dma_ex.c ****   {
 181:Drivers/STM32F4xx_HAL_Driver/Src/stm32f4xx_hal_dma_ex.c ****     /* Change DMA peripheral state */
 182:Drivers/STM32F4xx_HAL_Driver/Src/stm32f4xx_hal_dma_ex.c ****     hdma->State = HAL_DMA_STATE_BUSY;
 183:Drivers/STM32F4xx_HAL_Driver/Src/stm32f4xx_hal_dma_ex.c ****     
 184:Drivers/STM32F4xx_HAL_Driver/Src/stm32f4xx_hal_dma_ex.c ****     /* Initialize the error code */
ARM GAS  /tmp/ccO8U11d.s 			page 6


 185:Drivers/STM32F4xx_HAL_Driver/Src/stm32f4xx_hal_dma_ex.c ****     hdma->ErrorCode = HAL_DMA_ERROR_NONE;
 186:Drivers/STM32F4xx_HAL_Driver/Src/stm32f4xx_hal_dma_ex.c ****     
 187:Drivers/STM32F4xx_HAL_Driver/Src/stm32f4xx_hal_dma_ex.c ****     /* Enable the Double buffer mode */
 188:Drivers/STM32F4xx_HAL_Driver/Src/stm32f4xx_hal_dma_ex.c ****     hdma->Instance->CR |= (uint32_t)DMA_SxCR_DBM;
 189:Drivers/STM32F4xx_HAL_Driver/Src/stm32f4xx_hal_dma_ex.c ****     
 190:Drivers/STM32F4xx_HAL_Driver/Src/stm32f4xx_hal_dma_ex.c ****     /* Configure DMA Stream destination address */
 191:Drivers/STM32F4xx_HAL_Driver/Src/stm32f4xx_hal_dma_ex.c ****     hdma->Instance->M1AR = SecondMemAddress;
 192:Drivers/STM32F4xx_HAL_Driver/Src/stm32f4xx_hal_dma_ex.c ****     
 193:Drivers/STM32F4xx_HAL_Driver/Src/stm32f4xx_hal_dma_ex.c ****     /* Configure the source, destination address and the data length */
 194:Drivers/STM32F4xx_HAL_Driver/Src/stm32f4xx_hal_dma_ex.c ****     DMA_MultiBufferSetConfig(hdma, SrcAddress, DstAddress, DataLength); 
 195:Drivers/STM32F4xx_HAL_Driver/Src/stm32f4xx_hal_dma_ex.c ****     
 196:Drivers/STM32F4xx_HAL_Driver/Src/stm32f4xx_hal_dma_ex.c ****     /* Clear all flags */
 197:Drivers/STM32F4xx_HAL_Driver/Src/stm32f4xx_hal_dma_ex.c ****     __HAL_DMA_CLEAR_FLAG (hdma, __HAL_DMA_GET_TC_FLAG_INDEX(hdma));
 198:Drivers/STM32F4xx_HAL_Driver/Src/stm32f4xx_hal_dma_ex.c ****     __HAL_DMA_CLEAR_FLAG (hdma, __HAL_DMA_GET_HT_FLAG_INDEX(hdma));
 199:Drivers/STM32F4xx_HAL_Driver/Src/stm32f4xx_hal_dma_ex.c ****     __HAL_DMA_CLEAR_FLAG (hdma, __HAL_DMA_GET_TE_FLAG_INDEX(hdma));
 200:Drivers/STM32F4xx_HAL_Driver/Src/stm32f4xx_hal_dma_ex.c ****     __HAL_DMA_CLEAR_FLAG (hdma, __HAL_DMA_GET_DME_FLAG_INDEX(hdma));
 201:Drivers/STM32F4xx_HAL_Driver/Src/stm32f4xx_hal_dma_ex.c ****     __HAL_DMA_CLEAR_FLAG (hdma, __HAL_DMA_GET_FE_FLAG_INDEX(hdma));
 202:Drivers/STM32F4xx_HAL_Driver/Src/stm32f4xx_hal_dma_ex.c **** 
 203:Drivers/STM32F4xx_HAL_Driver/Src/stm32f4xx_hal_dma_ex.c ****     /* Enable Common interrupts*/
 204:Drivers/STM32F4xx_HAL_Driver/Src/stm32f4xx_hal_dma_ex.c ****     hdma->Instance->CR  |= DMA_IT_TC | DMA_IT_TE | DMA_IT_DME;
 205:Drivers/STM32F4xx_HAL_Driver/Src/stm32f4xx_hal_dma_ex.c ****     hdma->Instance->FCR |= DMA_IT_FE;
 206:Drivers/STM32F4xx_HAL_Driver/Src/stm32f4xx_hal_dma_ex.c ****     
 207:Drivers/STM32F4xx_HAL_Driver/Src/stm32f4xx_hal_dma_ex.c ****     if((hdma->XferHalfCpltCallback != NULL) || (hdma->XferM1HalfCpltCallback != NULL))
 208:Drivers/STM32F4xx_HAL_Driver/Src/stm32f4xx_hal_dma_ex.c ****     {
 209:Drivers/STM32F4xx_HAL_Driver/Src/stm32f4xx_hal_dma_ex.c ****       hdma->Instance->CR  |= DMA_IT_HT;
 210:Drivers/STM32F4xx_HAL_Driver/Src/stm32f4xx_hal_dma_ex.c ****     }
 211:Drivers/STM32F4xx_HAL_Driver/Src/stm32f4xx_hal_dma_ex.c ****     
 212:Drivers/STM32F4xx_HAL_Driver/Src/stm32f4xx_hal_dma_ex.c ****     /* Enable the peripheral */
 213:Drivers/STM32F4xx_HAL_Driver/Src/stm32f4xx_hal_dma_ex.c ****     __HAL_DMA_ENABLE(hdma); 
 214:Drivers/STM32F4xx_HAL_Driver/Src/stm32f4xx_hal_dma_ex.c ****   }
 215:Drivers/STM32F4xx_HAL_Driver/Src/stm32f4xx_hal_dma_ex.c ****   else
 216:Drivers/STM32F4xx_HAL_Driver/Src/stm32f4xx_hal_dma_ex.c ****   {     
 217:Drivers/STM32F4xx_HAL_Driver/Src/stm32f4xx_hal_dma_ex.c ****     /* Process unlocked */
 218:Drivers/STM32F4xx_HAL_Driver/Src/stm32f4xx_hal_dma_ex.c ****     __HAL_UNLOCK(hdma);	  
 219:Drivers/STM32F4xx_HAL_Driver/Src/stm32f4xx_hal_dma_ex.c ****     
 220:Drivers/STM32F4xx_HAL_Driver/Src/stm32f4xx_hal_dma_ex.c ****     /* Return error status */
 221:Drivers/STM32F4xx_HAL_Driver/Src/stm32f4xx_hal_dma_ex.c ****     status = HAL_BUSY;
 222:Drivers/STM32F4xx_HAL_Driver/Src/stm32f4xx_hal_dma_ex.c ****   }  
 223:Drivers/STM32F4xx_HAL_Driver/Src/stm32f4xx_hal_dma_ex.c ****   return status; 
 224:Drivers/STM32F4xx_HAL_Driver/Src/stm32f4xx_hal_dma_ex.c **** }
 225:Drivers/STM32F4xx_HAL_Driver/Src/stm32f4xx_hal_dma_ex.c **** 
 226:Drivers/STM32F4xx_HAL_Driver/Src/stm32f4xx_hal_dma_ex.c **** /**
 227:Drivers/STM32F4xx_HAL_Driver/Src/stm32f4xx_hal_dma_ex.c ****   * @brief  Change the memory0 or memory1 address on the fly.
 228:Drivers/STM32F4xx_HAL_Driver/Src/stm32f4xx_hal_dma_ex.c ****   * @param  hdma       pointer to a DMA_HandleTypeDef structure that contains
 229:Drivers/STM32F4xx_HAL_Driver/Src/stm32f4xx_hal_dma_ex.c ****   *                     the configuration information for the specified DMA Stream.  
 230:Drivers/STM32F4xx_HAL_Driver/Src/stm32f4xx_hal_dma_ex.c ****   * @param  Address    The new address
 231:Drivers/STM32F4xx_HAL_Driver/Src/stm32f4xx_hal_dma_ex.c ****   * @param  memory     the memory to be changed, This parameter can be one of 
 232:Drivers/STM32F4xx_HAL_Driver/Src/stm32f4xx_hal_dma_ex.c ****   *                     the following values:
 233:Drivers/STM32F4xx_HAL_Driver/Src/stm32f4xx_hal_dma_ex.c ****   *                      MEMORY0 /
 234:Drivers/STM32F4xx_HAL_Driver/Src/stm32f4xx_hal_dma_ex.c ****   *                      MEMORY1
 235:Drivers/STM32F4xx_HAL_Driver/Src/stm32f4xx_hal_dma_ex.c ****   * @note   The MEMORY0 address can be changed only when the current transfer use
 236:Drivers/STM32F4xx_HAL_Driver/Src/stm32f4xx_hal_dma_ex.c ****   *         MEMORY1 and the MEMORY1 address can be changed only when the current 
 237:Drivers/STM32F4xx_HAL_Driver/Src/stm32f4xx_hal_dma_ex.c ****   *         transfer use MEMORY0.
 238:Drivers/STM32F4xx_HAL_Driver/Src/stm32f4xx_hal_dma_ex.c ****   * @retval HAL status
 239:Drivers/STM32F4xx_HAL_Driver/Src/stm32f4xx_hal_dma_ex.c ****   */
 240:Drivers/STM32F4xx_HAL_Driver/Src/stm32f4xx_hal_dma_ex.c **** HAL_StatusTypeDef HAL_DMAEx_ChangeMemory(DMA_HandleTypeDef *hdma, uint32_t Address, HAL_DMA_MemoryT
 241:Drivers/STM32F4xx_HAL_Driver/Src/stm32f4xx_hal_dma_ex.c **** {
ARM GAS  /tmp/ccO8U11d.s 			page 7


 242:Drivers/STM32F4xx_HAL_Driver/Src/stm32f4xx_hal_dma_ex.c ****   if(memory == MEMORY0)
 243:Drivers/STM32F4xx_HAL_Driver/Src/stm32f4xx_hal_dma_ex.c ****   {
 244:Drivers/STM32F4xx_HAL_Driver/Src/stm32f4xx_hal_dma_ex.c ****     /* change the memory0 address */
 245:Drivers/STM32F4xx_HAL_Driver/Src/stm32f4xx_hal_dma_ex.c ****     hdma->Instance->M0AR = Address;
 246:Drivers/STM32F4xx_HAL_Driver/Src/stm32f4xx_hal_dma_ex.c ****   }
 247:Drivers/STM32F4xx_HAL_Driver/Src/stm32f4xx_hal_dma_ex.c ****   else
 248:Drivers/STM32F4xx_HAL_Driver/Src/stm32f4xx_hal_dma_ex.c ****   {
 249:Drivers/STM32F4xx_HAL_Driver/Src/stm32f4xx_hal_dma_ex.c ****     /* change the memory1 address */
 250:Drivers/STM32F4xx_HAL_Driver/Src/stm32f4xx_hal_dma_ex.c ****     hdma->Instance->M1AR = Address;
 251:Drivers/STM32F4xx_HAL_Driver/Src/stm32f4xx_hal_dma_ex.c ****   }
 252:Drivers/STM32F4xx_HAL_Driver/Src/stm32f4xx_hal_dma_ex.c **** 
 253:Drivers/STM32F4xx_HAL_Driver/Src/stm32f4xx_hal_dma_ex.c ****   return HAL_OK;
 254:Drivers/STM32F4xx_HAL_Driver/Src/stm32f4xx_hal_dma_ex.c **** }
 255:Drivers/STM32F4xx_HAL_Driver/Src/stm32f4xx_hal_dma_ex.c **** 
 256:Drivers/STM32F4xx_HAL_Driver/Src/stm32f4xx_hal_dma_ex.c **** /**
 257:Drivers/STM32F4xx_HAL_Driver/Src/stm32f4xx_hal_dma_ex.c ****   * @}
 258:Drivers/STM32F4xx_HAL_Driver/Src/stm32f4xx_hal_dma_ex.c ****   */
 259:Drivers/STM32F4xx_HAL_Driver/Src/stm32f4xx_hal_dma_ex.c **** 
 260:Drivers/STM32F4xx_HAL_Driver/Src/stm32f4xx_hal_dma_ex.c **** /**
 261:Drivers/STM32F4xx_HAL_Driver/Src/stm32f4xx_hal_dma_ex.c ****   * @}
 262:Drivers/STM32F4xx_HAL_Driver/Src/stm32f4xx_hal_dma_ex.c ****   */
 263:Drivers/STM32F4xx_HAL_Driver/Src/stm32f4xx_hal_dma_ex.c **** 
 264:Drivers/STM32F4xx_HAL_Driver/Src/stm32f4xx_hal_dma_ex.c **** /** @addtogroup DMAEx_Private_Functions
 265:Drivers/STM32F4xx_HAL_Driver/Src/stm32f4xx_hal_dma_ex.c ****   * @{
 266:Drivers/STM32F4xx_HAL_Driver/Src/stm32f4xx_hal_dma_ex.c ****   */
 267:Drivers/STM32F4xx_HAL_Driver/Src/stm32f4xx_hal_dma_ex.c **** 
 268:Drivers/STM32F4xx_HAL_Driver/Src/stm32f4xx_hal_dma_ex.c **** /**
 269:Drivers/STM32F4xx_HAL_Driver/Src/stm32f4xx_hal_dma_ex.c ****   * @brief  Set the DMA Transfer parameter.
 270:Drivers/STM32F4xx_HAL_Driver/Src/stm32f4xx_hal_dma_ex.c ****   * @param  hdma       pointer to a DMA_HandleTypeDef structure that contains
 271:Drivers/STM32F4xx_HAL_Driver/Src/stm32f4xx_hal_dma_ex.c ****   *                     the configuration information for the specified DMA Stream.  
 272:Drivers/STM32F4xx_HAL_Driver/Src/stm32f4xx_hal_dma_ex.c ****   * @param  SrcAddress The source memory Buffer address
 273:Drivers/STM32F4xx_HAL_Driver/Src/stm32f4xx_hal_dma_ex.c ****   * @param  DstAddress The destination memory Buffer address
 274:Drivers/STM32F4xx_HAL_Driver/Src/stm32f4xx_hal_dma_ex.c ****   * @param  DataLength The length of data to be transferred from source to destination
 275:Drivers/STM32F4xx_HAL_Driver/Src/stm32f4xx_hal_dma_ex.c ****   * @retval HAL status
 276:Drivers/STM32F4xx_HAL_Driver/Src/stm32f4xx_hal_dma_ex.c ****   */
 277:Drivers/STM32F4xx_HAL_Driver/Src/stm32f4xx_hal_dma_ex.c **** static void DMA_MultiBufferSetConfig(DMA_HandleTypeDef *hdma, uint32_t SrcAddress, uint32_t DstAddr
 278:Drivers/STM32F4xx_HAL_Driver/Src/stm32f4xx_hal_dma_ex.c **** {  
 279:Drivers/STM32F4xx_HAL_Driver/Src/stm32f4xx_hal_dma_ex.c ****   /* Configure DMA Stream data length */
 280:Drivers/STM32F4xx_HAL_Driver/Src/stm32f4xx_hal_dma_ex.c ****   hdma->Instance->NDTR = DataLength;
  98              		.loc 1 280 0
  99 0044 0368     		ldr	r3, [r0]
 100              	.LVL10:
 101 0046 029C     		ldr	r4, [sp, #8]
 102              	.LVL11:
 103 0048 5C60     		str	r4, [r3, #4]
 281:Drivers/STM32F4xx_HAL_Driver/Src/stm32f4xx_hal_dma_ex.c ****   
 282:Drivers/STM32F4xx_HAL_Driver/Src/stm32f4xx_hal_dma_ex.c ****   /* Peripheral to Memory */
 283:Drivers/STM32F4xx_HAL_Driver/Src/stm32f4xx_hal_dma_ex.c ****   if((hdma->Init.Direction) == DMA_MEMORY_TO_PERIPH)
 104              		.loc 1 283 0
 105 004a 8368     		ldr	r3, [r0, #8]
 106 004c 402B     		cmp	r3, #64
 107 004e 0AD0     		beq	.L11
 284:Drivers/STM32F4xx_HAL_Driver/Src/stm32f4xx_hal_dma_ex.c ****   {   
 285:Drivers/STM32F4xx_HAL_Driver/Src/stm32f4xx_hal_dma_ex.c ****     /* Configure DMA Stream destination address */
 286:Drivers/STM32F4xx_HAL_Driver/Src/stm32f4xx_hal_dma_ex.c ****     hdma->Instance->PAR = DstAddress;
 287:Drivers/STM32F4xx_HAL_Driver/Src/stm32f4xx_hal_dma_ex.c ****     
 288:Drivers/STM32F4xx_HAL_Driver/Src/stm32f4xx_hal_dma_ex.c ****     /* Configure DMA Stream source address */
ARM GAS  /tmp/ccO8U11d.s 			page 8


 289:Drivers/STM32F4xx_HAL_Driver/Src/stm32f4xx_hal_dma_ex.c ****     hdma->Instance->M0AR = SrcAddress;
 290:Drivers/STM32F4xx_HAL_Driver/Src/stm32f4xx_hal_dma_ex.c ****   }
 291:Drivers/STM32F4xx_HAL_Driver/Src/stm32f4xx_hal_dma_ex.c ****   /* Memory to Peripheral */
 292:Drivers/STM32F4xx_HAL_Driver/Src/stm32f4xx_hal_dma_ex.c ****   else
 293:Drivers/STM32F4xx_HAL_Driver/Src/stm32f4xx_hal_dma_ex.c ****   {
 294:Drivers/STM32F4xx_HAL_Driver/Src/stm32f4xx_hal_dma_ex.c ****     /* Configure DMA Stream source address */
 295:Drivers/STM32F4xx_HAL_Driver/Src/stm32f4xx_hal_dma_ex.c ****     hdma->Instance->PAR = SrcAddress;
 108              		.loc 1 295 0
 109 0050 0368     		ldr	r3, [r0]
 110 0052 9960     		str	r1, [r3, #8]
 296:Drivers/STM32F4xx_HAL_Driver/Src/stm32f4xx_hal_dma_ex.c ****     
 297:Drivers/STM32F4xx_HAL_Driver/Src/stm32f4xx_hal_dma_ex.c ****     /* Configure DMA Stream destination address */
 298:Drivers/STM32F4xx_HAL_Driver/Src/stm32f4xx_hal_dma_ex.c ****     hdma->Instance->M0AR = DstAddress;
 111              		.loc 1 298 0
 112 0054 0368     		ldr	r3, [r0]
 113 0056 DA60     		str	r2, [r3, #12]
 114              	.L5:
 115              	.LVL12:
 116              	.LBE5:
 117              	.LBE4:
 134:Drivers/STM32F4xx_HAL_Driver/Src/stm32f4xx_hal_dma_ex.c ****     }
 118              		.loc 1 134 0
 119 0058 0268     		ldr	r2, [r0]
 120              	.LVL13:
 121 005a 1368     		ldr	r3, [r2]
 122 005c 43F00103 		orr	r3, r3, #1
 123 0060 1360     		str	r3, [r2]
 103:Drivers/STM32F4xx_HAL_Driver/Src/stm32f4xx_hal_dma_ex.c ****   
 124              		.loc 1 103 0
 125 0062 0020     		movs	r0, #0
 126              	.LVL14:
 127 0064 DDE7     		b	.L3
 128              	.LVL15:
 129              	.L11:
 130              	.LBB7:
 131              	.LBB6:
 286:Drivers/STM32F4xx_HAL_Driver/Src/stm32f4xx_hal_dma_ex.c ****     
 132              		.loc 1 286 0
 133 0066 0368     		ldr	r3, [r0]
 134 0068 9A60     		str	r2, [r3, #8]
 289:Drivers/STM32F4xx_HAL_Driver/Src/stm32f4xx_hal_dma_ex.c ****   }
 135              		.loc 1 289 0
 136 006a 0368     		ldr	r3, [r0]
 137 006c D960     		str	r1, [r3, #12]
 138 006e F3E7     		b	.L5
 139              	.LVL16:
 140              	.L6:
 141              	.LBE6:
 142              	.LBE7:
 117:Drivers/STM32F4xx_HAL_Driver/Src/stm32f4xx_hal_dma_ex.c ****     
 143              		.loc 1 117 0
 144 0070 0220     		movs	r0, #2
 145              	.LVL17:
 146 0072 D6E7     		b	.L3
 147              		.cfi_endproc
 148              	.LFE130:
 150              		.section	.text.HAL_DMAEx_MultiBufferStart_IT,"ax",%progbits
ARM GAS  /tmp/ccO8U11d.s 			page 9


 151              		.align	1
 152              		.global	HAL_DMAEx_MultiBufferStart_IT
 153              		.syntax unified
 154              		.thumb
 155              		.thumb_func
 156              		.fpu fpv4-sp-d16
 158              	HAL_DMAEx_MultiBufferStart_IT:
 159              	.LFB131:
 156:Drivers/STM32F4xx_HAL_Driver/Src/stm32f4xx_hal_dma_ex.c ****   HAL_StatusTypeDef status = HAL_OK;
 160              		.loc 1 156 0
 161              		.cfi_startproc
 162              		@ args = 4, pretend = 0, frame = 0
 163              		@ frame_needed = 0, uses_anonymous_args = 0
 164              		@ link register save eliminated.
 165              	.LVL18:
 166 0000 30B4     		push	{r4, r5}
 167              	.LCFI3:
 168              		.cfi_def_cfa_offset 8
 169              		.cfi_offset 4, -8
 170              		.cfi_offset 5, -4
 171              	.LVL19:
 163:Drivers/STM32F4xx_HAL_Driver/Src/stm32f4xx_hal_dma_ex.c ****   {
 172              		.loc 1 163 0
 173 0002 8468     		ldr	r4, [r0, #8]
 174 0004 802C     		cmp	r4, #128
 175 0006 17D0     		beq	.L304
 170:Drivers/STM32F4xx_HAL_Driver/Src/stm32f4xx_hal_dma_ex.c ****   {
 176              		.loc 1 170 0
 177 0008 C46B     		ldr	r4, [r0, #60]
 178 000a D4B1     		cbz	r4, .L15
 170:Drivers/STM32F4xx_HAL_Driver/Src/stm32f4xx_hal_dma_ex.c ****   {
 179              		.loc 1 170 0 is_stmt 0 discriminator 1
 180 000c 446C     		ldr	r4, [r0, #68]
 181 000e C4B1     		cbz	r4, .L15
 170:Drivers/STM32F4xx_HAL_Driver/Src/stm32f4xx_hal_dma_ex.c ****   {
 182              		.loc 1 170 0 discriminator 2
 183 0010 C46C     		ldr	r4, [r0, #76]
 184 0012 B4B1     		cbz	r4, .L15
 177:Drivers/STM32F4xx_HAL_Driver/Src/stm32f4xx_hal_dma_ex.c ****   
 185              		.loc 1 177 0 is_stmt 1
 186 0014 90F83440 		ldrb	r4, [r0, #52]	@ zero_extendqisi2
 187 0018 012C     		cmp	r4, #1
 188 001a 00F05287 		beq	.L62
 177:Drivers/STM32F4xx_HAL_Driver/Src/stm32f4xx_hal_dma_ex.c ****   
 189              		.loc 1 177 0 is_stmt 0 discriminator 2
 190 001e 0124     		movs	r4, #1
 191 0020 80F83440 		strb	r4, [r0, #52]
 179:Drivers/STM32F4xx_HAL_Driver/Src/stm32f4xx_hal_dma_ex.c ****   {
 192              		.loc 1 179 0 is_stmt 1 discriminator 2
 193 0024 90F83540 		ldrb	r4, [r0, #53]	@ zero_extendqisi2
 194 0028 E4B2     		uxtb	r4, r4
 195 002a 012C     		cmp	r4, #1
 196 002c 0ED0     		beq	.L305
 218:Drivers/STM32F4xx_HAL_Driver/Src/stm32f4xx_hal_dma_ex.c ****     
 197              		.loc 1 218 0
 198 002e 0023     		movs	r3, #0
 199              	.LVL20:
ARM GAS  /tmp/ccO8U11d.s 			page 10


 200 0030 80F83430 		strb	r3, [r0, #52]
 201              	.LVL21:
 221:Drivers/STM32F4xx_HAL_Driver/Src/stm32f4xx_hal_dma_ex.c ****   }  
 202              		.loc 1 221 0
 203 0034 0220     		movs	r0, #2
 204              	.LVL22:
 205 0036 07E0     		b	.L14
 206              	.LVL23:
 207              	.L304:
 165:Drivers/STM32F4xx_HAL_Driver/Src/stm32f4xx_hal_dma_ex.c ****     return HAL_ERROR;
 208              		.loc 1 165 0
 209 0038 4FF48073 		mov	r3, #256
 210              	.LVL24:
 211 003c 4365     		str	r3, [r0, #84]
 166:Drivers/STM32F4xx_HAL_Driver/Src/stm32f4xx_hal_dma_ex.c ****   }
 212              		.loc 1 166 0
 213 003e 0120     		movs	r0, #1
 214              	.LVL25:
 215 0040 02E0     		b	.L14
 216              	.LVL26:
 217              	.L15:
 172:Drivers/STM32F4xx_HAL_Driver/Src/stm32f4xx_hal_dma_ex.c ****     return HAL_ERROR;
 218              		.loc 1 172 0
 219 0042 4023     		movs	r3, #64
 220              	.LVL27:
 221 0044 4365     		str	r3, [r0, #84]
 173:Drivers/STM32F4xx_HAL_Driver/Src/stm32f4xx_hal_dma_ex.c ****   }
 222              		.loc 1 173 0
 223 0046 0120     		movs	r0, #1
 224              	.LVL28:
 225              	.L14:
 224:Drivers/STM32F4xx_HAL_Driver/Src/stm32f4xx_hal_dma_ex.c **** 
 226              		.loc 1 224 0
 227 0048 30BC     		pop	{r4, r5}
 228              	.LCFI4:
 229              		.cfi_remember_state
 230              		.cfi_restore 5
 231              		.cfi_restore 4
 232              		.cfi_def_cfa_offset 0
 233 004a 7047     		bx	lr
 234              	.LVL29:
 235              	.L305:
 236              	.LCFI5:
 237              		.cfi_restore_state
 182:Drivers/STM32F4xx_HAL_Driver/Src/stm32f4xx_hal_dma_ex.c ****     
 238              		.loc 1 182 0
 239 004c 0224     		movs	r4, #2
 240 004e 80F83540 		strb	r4, [r0, #53]
 185:Drivers/STM32F4xx_HAL_Driver/Src/stm32f4xx_hal_dma_ex.c ****     
 241              		.loc 1 185 0
 242 0052 0024     		movs	r4, #0
 243 0054 4465     		str	r4, [r0, #84]
 188:Drivers/STM32F4xx_HAL_Driver/Src/stm32f4xx_hal_dma_ex.c ****     
 244              		.loc 1 188 0
 245 0056 0568     		ldr	r5, [r0]
 246 0058 2C68     		ldr	r4, [r5]
 247 005a 44F48024 		orr	r4, r4, #262144
ARM GAS  /tmp/ccO8U11d.s 			page 11


 248 005e 2C60     		str	r4, [r5]
 191:Drivers/STM32F4xx_HAL_Driver/Src/stm32f4xx_hal_dma_ex.c ****     
 249              		.loc 1 191 0
 250 0060 0468     		ldr	r4, [r0]
 251 0062 2361     		str	r3, [r4, #16]
 252              	.LVL30:
 253              	.LBB10:
 254              	.LBB11:
 280:Drivers/STM32F4xx_HAL_Driver/Src/stm32f4xx_hal_dma_ex.c ****   
 255              		.loc 1 280 0
 256 0064 0368     		ldr	r3, [r0]
 257              	.LVL31:
 258 0066 029C     		ldr	r4, [sp, #8]
 259              	.LVL32:
 260 0068 5C60     		str	r4, [r3, #4]
 283:Drivers/STM32F4xx_HAL_Driver/Src/stm32f4xx_hal_dma_ex.c ****   {   
 261              		.loc 1 283 0
 262 006a 8368     		ldr	r3, [r0, #8]
 263 006c 402B     		cmp	r3, #64
 264 006e 3DD0     		beq	.L306
 295:Drivers/STM32F4xx_HAL_Driver/Src/stm32f4xx_hal_dma_ex.c ****     
 265              		.loc 1 295 0
 266 0070 0368     		ldr	r3, [r0]
 267 0072 9960     		str	r1, [r3, #8]
 268              		.loc 1 298 0
 269 0074 0368     		ldr	r3, [r0]
 270 0076 DA60     		str	r2, [r3, #12]
 271              	.L19:
 272              	.LVL33:
 273              	.LBE11:
 274              	.LBE10:
 197:Drivers/STM32F4xx_HAL_Driver/Src/stm32f4xx_hal_dma_ex.c ****     __HAL_DMA_CLEAR_FLAG (hdma, __HAL_DMA_GET_HT_FLAG_INDEX(hdma));
 275              		.loc 1 197 0
 276 0078 0368     		ldr	r3, [r0]
 277 007a C54A     		ldr	r2, .L308
 278              	.LVL34:
 279 007c 9342     		cmp	r3, r2
 280 007e 40F29D80 		bls	.L20
 197:Drivers/STM32F4xx_HAL_Driver/Src/stm32f4xx_hal_dma_ex.c ****     __HAL_DMA_CLEAR_FLAG (hdma, __HAL_DMA_GET_HT_FLAG_INDEX(hdma));
 281              		.loc 1 197 0 is_stmt 0 discriminator 1
 282 0082 A2F58962 		sub	r2, r2, #1096
 283 0086 9342     		cmp	r3, r2
 284 0088 35D0     		beq	.L63
 197:Drivers/STM32F4xx_HAL_Driver/Src/stm32f4xx_hal_dma_ex.c ****     __HAL_DMA_CLEAR_FLAG (hdma, __HAL_DMA_GET_HT_FLAG_INDEX(hdma));
 285              		.loc 1 197 0 discriminator 3
 286 008a 02F58062 		add	r2, r2, #1024
 287 008e 9342     		cmp	r3, r2
 288 0090 79D0     		beq	.L64
 197:Drivers/STM32F4xx_HAL_Driver/Src/stm32f4xx_hal_dma_ex.c ****     __HAL_DMA_CLEAR_FLAG (hdma, __HAL_DMA_GET_HT_FLAG_INDEX(hdma));
 289              		.loc 1 197 0 discriminator 5
 290 0092 A2F56872 		sub	r2, r2, #928
 291 0096 9342     		cmp	r3, r2
 292 0098 77D0     		beq	.L65
 197:Drivers/STM32F4xx_HAL_Driver/Src/stm32f4xx_hal_dma_ex.c ****     __HAL_DMA_CLEAR_FLAG (hdma, __HAL_DMA_GET_HT_FLAG_INDEX(hdma));
 293              		.loc 1 197 0 discriminator 7
 294 009a 02F58062 		add	r2, r2, #1024
 295 009e 9342     		cmp	r3, r2
ARM GAS  /tmp/ccO8U11d.s 			page 12


 296 00a0 75D0     		beq	.L66
 197:Drivers/STM32F4xx_HAL_Driver/Src/stm32f4xx_hal_dma_ex.c ****     __HAL_DMA_CLEAR_FLAG (hdma, __HAL_DMA_GET_HT_FLAG_INDEX(hdma));
 297              		.loc 1 197 0 discriminator 9
 298 00a2 A2F58962 		sub	r2, r2, #1096
 299 00a6 9342     		cmp	r3, r2
 300 00a8 73D0     		beq	.L67
 197:Drivers/STM32F4xx_HAL_Driver/Src/stm32f4xx_hal_dma_ex.c ****     __HAL_DMA_CLEAR_FLAG (hdma, __HAL_DMA_GET_HT_FLAG_INDEX(hdma));
 301              		.loc 1 197 0 discriminator 11
 302 00aa 02F58062 		add	r2, r2, #1024
 303 00ae 9342     		cmp	r3, r2
 304 00b0 72D0     		beq	.L68
 197:Drivers/STM32F4xx_HAL_Driver/Src/stm32f4xx_hal_dma_ex.c ****     __HAL_DMA_CLEAR_FLAG (hdma, __HAL_DMA_GET_HT_FLAG_INDEX(hdma));
 305              		.loc 1 197 0 discriminator 13
 306 00b2 A2F56872 		sub	r2, r2, #928
 307 00b6 9342     		cmp	r3, r2
 308 00b8 71D0     		beq	.L69
 197:Drivers/STM32F4xx_HAL_Driver/Src/stm32f4xx_hal_dma_ex.c ****     __HAL_DMA_CLEAR_FLAG (hdma, __HAL_DMA_GET_HT_FLAG_INDEX(hdma));
 309              		.loc 1 197 0 discriminator 15
 310 00ba 02F58062 		add	r2, r2, #1024
 311 00be 9342     		cmp	r3, r2
 312 00c0 70D0     		beq	.L70
 197:Drivers/STM32F4xx_HAL_Driver/Src/stm32f4xx_hal_dma_ex.c ****     __HAL_DMA_CLEAR_FLAG (hdma, __HAL_DMA_GET_HT_FLAG_INDEX(hdma));
 313              		.loc 1 197 0 discriminator 17
 314 00c2 A2F58962 		sub	r2, r2, #1096
 315 00c6 9342     		cmp	r3, r2
 316 00c8 6FD0     		beq	.L71
 197:Drivers/STM32F4xx_HAL_Driver/Src/stm32f4xx_hal_dma_ex.c ****     __HAL_DMA_CLEAR_FLAG (hdma, __HAL_DMA_GET_HT_FLAG_INDEX(hdma));
 317              		.loc 1 197 0 discriminator 19
 318 00ca 02F58062 		add	r2, r2, #1024
 319 00ce 9342     		cmp	r3, r2
 320 00d0 6ED0     		beq	.L72
 197:Drivers/STM32F4xx_HAL_Driver/Src/stm32f4xx_hal_dma_ex.c ****     __HAL_DMA_CLEAR_FLAG (hdma, __HAL_DMA_GET_HT_FLAG_INDEX(hdma));
 321              		.loc 1 197 0 discriminator 21
 322 00d2 A2F56872 		sub	r2, r2, #928
 323 00d6 9342     		cmp	r3, r2
 324 00d8 6DD0     		beq	.L73
 197:Drivers/STM32F4xx_HAL_Driver/Src/stm32f4xx_hal_dma_ex.c ****     __HAL_DMA_CLEAR_FLAG (hdma, __HAL_DMA_GET_HT_FLAG_INDEX(hdma));
 325              		.loc 1 197 0 discriminator 23
 326 00da 02F58062 		add	r2, r2, #1024
 327 00de 9342     		cmp	r3, r2
 328 00e0 0CBF     		ite	eq
 329 00e2 4FF40013 		moveq	r3, #2097152
 330 00e6 4FF00063 		movne	r3, #134217728
 331 00ea 05E0     		b	.L21
 332              	.LVL35:
 333              	.L306:
 334              	.LBB13:
 335              	.LBB12:
 286:Drivers/STM32F4xx_HAL_Driver/Src/stm32f4xx_hal_dma_ex.c ****     
 336              		.loc 1 286 0 is_stmt 1
 337 00ec 0368     		ldr	r3, [r0]
 338 00ee 9A60     		str	r2, [r3, #8]
 289:Drivers/STM32F4xx_HAL_Driver/Src/stm32f4xx_hal_dma_ex.c ****   }
 339              		.loc 1 289 0
 340 00f0 0368     		ldr	r3, [r0]
 341 00f2 D960     		str	r1, [r3, #12]
 342 00f4 C0E7     		b	.L19
ARM GAS  /tmp/ccO8U11d.s 			page 13


 343              	.LVL36:
 344              	.L63:
 345              	.LBE12:
 346              	.LBE13:
 197:Drivers/STM32F4xx_HAL_Driver/Src/stm32f4xx_hal_dma_ex.c ****     __HAL_DMA_CLEAR_FLAG (hdma, __HAL_DMA_GET_HT_FLAG_INDEX(hdma));
 347              		.loc 1 197 0
 348 00f6 2023     		movs	r3, #32
 349              	.L21:
 197:Drivers/STM32F4xx_HAL_Driver/Src/stm32f4xx_hal_dma_ex.c ****     __HAL_DMA_CLEAR_FLAG (hdma, __HAL_DMA_GET_HT_FLAG_INDEX(hdma));
 350              		.loc 1 197 0 is_stmt 0 discriminator 50
 351 00f8 A64A     		ldr	r2, .L308+4
 352 00fa D360     		str	r3, [r2, #12]
 353              	.LVL37:
 354              	.L22:
 198:Drivers/STM32F4xx_HAL_Driver/Src/stm32f4xx_hal_dma_ex.c ****     __HAL_DMA_CLEAR_FLAG (hdma, __HAL_DMA_GET_TE_FLAG_INDEX(hdma));
 355              		.loc 1 198 0 is_stmt 1
 356 00fc 0368     		ldr	r3, [r0]
 357 00fe A44A     		ldr	r2, .L308
 358 0100 9342     		cmp	r3, r2
 359 0102 40F2C981 		bls	.L28
 198:Drivers/STM32F4xx_HAL_Driver/Src/stm32f4xx_hal_dma_ex.c ****     __HAL_DMA_CLEAR_FLAG (hdma, __HAL_DMA_GET_TE_FLAG_INDEX(hdma));
 360              		.loc 1 198 0 is_stmt 0 discriminator 1
 361 0106 A2F58962 		sub	r2, r2, #1096
 362 010a 9342     		cmp	r3, r2
 363 010c 00F06181 		beq	.L111
 198:Drivers/STM32F4xx_HAL_Driver/Src/stm32f4xx_hal_dma_ex.c ****     __HAL_DMA_CLEAR_FLAG (hdma, __HAL_DMA_GET_TE_FLAG_INDEX(hdma));
 364              		.loc 1 198 0 discriminator 3
 365 0110 02F58062 		add	r2, r2, #1024
 366 0114 9342     		cmp	r3, r2
 367 0116 00F0A481 		beq	.L112
 198:Drivers/STM32F4xx_HAL_Driver/Src/stm32f4xx_hal_dma_ex.c ****     __HAL_DMA_CLEAR_FLAG (hdma, __HAL_DMA_GET_TE_FLAG_INDEX(hdma));
 368              		.loc 1 198 0 discriminator 5
 369 011a A2F56872 		sub	r2, r2, #928
 370 011e 9342     		cmp	r3, r2
 371 0120 00F0A181 		beq	.L113
 198:Drivers/STM32F4xx_HAL_Driver/Src/stm32f4xx_hal_dma_ex.c ****     __HAL_DMA_CLEAR_FLAG (hdma, __HAL_DMA_GET_TE_FLAG_INDEX(hdma));
 372              		.loc 1 198 0 discriminator 7
 373 0124 02F58062 		add	r2, r2, #1024
 374 0128 9342     		cmp	r3, r2
 375 012a 00F09E81 		beq	.L114
 198:Drivers/STM32F4xx_HAL_Driver/Src/stm32f4xx_hal_dma_ex.c ****     __HAL_DMA_CLEAR_FLAG (hdma, __HAL_DMA_GET_TE_FLAG_INDEX(hdma));
 376              		.loc 1 198 0 discriminator 9
 377 012e A2F58962 		sub	r2, r2, #1096
 378 0132 9342     		cmp	r3, r2
 379 0134 00F09B81 		beq	.L115
 198:Drivers/STM32F4xx_HAL_Driver/Src/stm32f4xx_hal_dma_ex.c ****     __HAL_DMA_CLEAR_FLAG (hdma, __HAL_DMA_GET_TE_FLAG_INDEX(hdma));
 380              		.loc 1 198 0 discriminator 11
 381 0138 02F58062 		add	r2, r2, #1024
 382 013c 9342     		cmp	r3, r2
 383 013e 00F09981 		beq	.L116
 198:Drivers/STM32F4xx_HAL_Driver/Src/stm32f4xx_hal_dma_ex.c ****     __HAL_DMA_CLEAR_FLAG (hdma, __HAL_DMA_GET_TE_FLAG_INDEX(hdma));
 384              		.loc 1 198 0 discriminator 13
 385 0142 A2F56872 		sub	r2, r2, #928
 386 0146 9342     		cmp	r3, r2
 387 0148 00F09781 		beq	.L117
 198:Drivers/STM32F4xx_HAL_Driver/Src/stm32f4xx_hal_dma_ex.c ****     __HAL_DMA_CLEAR_FLAG (hdma, __HAL_DMA_GET_TE_FLAG_INDEX(hdma));
 388              		.loc 1 198 0 discriminator 15
ARM GAS  /tmp/ccO8U11d.s 			page 14


 389 014c 02F58062 		add	r2, r2, #1024
 390 0150 9342     		cmp	r3, r2
 391 0152 00F09581 		beq	.L118
 198:Drivers/STM32F4xx_HAL_Driver/Src/stm32f4xx_hal_dma_ex.c ****     __HAL_DMA_CLEAR_FLAG (hdma, __HAL_DMA_GET_TE_FLAG_INDEX(hdma));
 392              		.loc 1 198 0 discriminator 17
 393 0156 A2F58962 		sub	r2, r2, #1096
 394 015a 9342     		cmp	r3, r2
 395 015c 00F09381 		beq	.L119
 198:Drivers/STM32F4xx_HAL_Driver/Src/stm32f4xx_hal_dma_ex.c ****     __HAL_DMA_CLEAR_FLAG (hdma, __HAL_DMA_GET_TE_FLAG_INDEX(hdma));
 396              		.loc 1 198 0 discriminator 19
 397 0160 02F58062 		add	r2, r2, #1024
 398 0164 9342     		cmp	r3, r2
 399 0166 00F09181 		beq	.L120
 198:Drivers/STM32F4xx_HAL_Driver/Src/stm32f4xx_hal_dma_ex.c ****     __HAL_DMA_CLEAR_FLAG (hdma, __HAL_DMA_GET_TE_FLAG_INDEX(hdma));
 400              		.loc 1 198 0 discriminator 21
 401 016a A2F56872 		sub	r2, r2, #928
 402 016e 9342     		cmp	r3, r2
 403 0170 00F08F81 		beq	.L121
 198:Drivers/STM32F4xx_HAL_Driver/Src/stm32f4xx_hal_dma_ex.c ****     __HAL_DMA_CLEAR_FLAG (hdma, __HAL_DMA_GET_TE_FLAG_INDEX(hdma));
 404              		.loc 1 198 0 discriminator 23
 405 0174 02F58062 		add	r2, r2, #1024
 406 0178 9342     		cmp	r3, r2
 407 017a 0CBF     		ite	eq
 408 017c 4FF48013 		moveq	r3, #1048576
 409 0180 4FF08063 		movne	r3, #67108864
 410 0184 26E1     		b	.L29
 411              	.LVL38:
 412              	.L64:
 197:Drivers/STM32F4xx_HAL_Driver/Src/stm32f4xx_hal_dma_ex.c ****     __HAL_DMA_CLEAR_FLAG (hdma, __HAL_DMA_GET_HT_FLAG_INDEX(hdma));
 413              		.loc 1 197 0 is_stmt 1
 414 0186 2023     		movs	r3, #32
 415 0188 B6E7     		b	.L21
 416              	.L65:
 417 018a 2023     		movs	r3, #32
 418 018c B4E7     		b	.L21
 419              	.L66:
 420 018e 2023     		movs	r3, #32
 421 0190 B2E7     		b	.L21
 422              	.L67:
 423 0192 4FF40063 		mov	r3, #2048
 424 0196 AFE7     		b	.L21
 425              	.L68:
 426 0198 4FF40063 		mov	r3, #2048
 427 019c ACE7     		b	.L21
 428              	.L69:
 429 019e 4FF40063 		mov	r3, #2048
 430 01a2 A9E7     		b	.L21
 431              	.L70:
 432 01a4 4FF40063 		mov	r3, #2048
 433 01a8 A6E7     		b	.L21
 434              	.L71:
 435 01aa 4FF40013 		mov	r3, #2097152
 436 01ae A3E7     		b	.L21
 437              	.L72:
 438 01b0 4FF40013 		mov	r3, #2097152
 439 01b4 A0E7     		b	.L21
 440              	.L73:
ARM GAS  /tmp/ccO8U11d.s 			page 15


 441 01b6 4FF40013 		mov	r3, #2097152
 442 01ba 9DE7     		b	.L21
 443              	.L20:
 197:Drivers/STM32F4xx_HAL_Driver/Src/stm32f4xx_hal_dma_ex.c ****     __HAL_DMA_CLEAR_FLAG (hdma, __HAL_DMA_GET_HT_FLAG_INDEX(hdma));
 444              		.loc 1 197 0 is_stmt 0 discriminator 2
 445 01bc 764A     		ldr	r2, .L308+8
 446 01be 9342     		cmp	r3, r2
 447 01c0 52D9     		bls	.L23
 197:Drivers/STM32F4xx_HAL_Driver/Src/stm32f4xx_hal_dma_ex.c ****     __HAL_DMA_CLEAR_FLAG (hdma, __HAL_DMA_GET_HT_FLAG_INDEX(hdma));
 448              		.loc 1 197 0 discriminator 51
 449 01c2 A83A     		subs	r2, r2, #168
 450 01c4 9342     		cmp	r3, r2
 451 01c6 30D0     		beq	.L75
 197:Drivers/STM32F4xx_HAL_Driver/Src/stm32f4xx_hal_dma_ex.c ****     __HAL_DMA_CLEAR_FLAG (hdma, __HAL_DMA_GET_HT_FLAG_INDEX(hdma));
 452              		.loc 1 197 0 discriminator 53
 453 01c8 02F58062 		add	r2, r2, #1024
 454 01cc 9342     		cmp	r3, r2
 455 01ce 30D0     		beq	.L76
 197:Drivers/STM32F4xx_HAL_Driver/Src/stm32f4xx_hal_dma_ex.c ****     __HAL_DMA_CLEAR_FLAG (hdma, __HAL_DMA_GET_HT_FLAG_INDEX(hdma));
 456              		.loc 1 197 0 discriminator 55
 457 01d0 A2F56872 		sub	r2, r2, #928
 458 01d4 9342     		cmp	r3, r2
 459 01d6 2ED0     		beq	.L77
 197:Drivers/STM32F4xx_HAL_Driver/Src/stm32f4xx_hal_dma_ex.c ****     __HAL_DMA_CLEAR_FLAG (hdma, __HAL_DMA_GET_HT_FLAG_INDEX(hdma));
 460              		.loc 1 197 0 discriminator 57
 461 01d8 02F58062 		add	r2, r2, #1024
 462 01dc 9342     		cmp	r3, r2
 463 01de 2CD0     		beq	.L78
 197:Drivers/STM32F4xx_HAL_Driver/Src/stm32f4xx_hal_dma_ex.c ****     __HAL_DMA_CLEAR_FLAG (hdma, __HAL_DMA_GET_HT_FLAG_INDEX(hdma));
 464              		.loc 1 197 0 discriminator 59
 465 01e0 A2F58962 		sub	r2, r2, #1096
 466 01e4 9342     		cmp	r3, r2
 467 01e6 2AD0     		beq	.L79
 197:Drivers/STM32F4xx_HAL_Driver/Src/stm32f4xx_hal_dma_ex.c ****     __HAL_DMA_CLEAR_FLAG (hdma, __HAL_DMA_GET_HT_FLAG_INDEX(hdma));
 468              		.loc 1 197 0 discriminator 61
 469 01e8 02F58062 		add	r2, r2, #1024
 470 01ec 9342     		cmp	r3, r2
 471 01ee 29D0     		beq	.L80
 197:Drivers/STM32F4xx_HAL_Driver/Src/stm32f4xx_hal_dma_ex.c ****     __HAL_DMA_CLEAR_FLAG (hdma, __HAL_DMA_GET_HT_FLAG_INDEX(hdma));
 472              		.loc 1 197 0 discriminator 63
 473 01f0 A2F56872 		sub	r2, r2, #928
 474 01f4 9342     		cmp	r3, r2
 475 01f6 28D0     		beq	.L81
 197:Drivers/STM32F4xx_HAL_Driver/Src/stm32f4xx_hal_dma_ex.c ****     __HAL_DMA_CLEAR_FLAG (hdma, __HAL_DMA_GET_HT_FLAG_INDEX(hdma));
 476              		.loc 1 197 0 discriminator 65
 477 01f8 02F58062 		add	r2, r2, #1024
 478 01fc 9342     		cmp	r3, r2
 479 01fe 27D0     		beq	.L82
 197:Drivers/STM32F4xx_HAL_Driver/Src/stm32f4xx_hal_dma_ex.c ****     __HAL_DMA_CLEAR_FLAG (hdma, __HAL_DMA_GET_HT_FLAG_INDEX(hdma));
 480              		.loc 1 197 0 discriminator 67
 481 0200 A2F58962 		sub	r2, r2, #1096
 482 0204 9342     		cmp	r3, r2
 483 0206 26D0     		beq	.L83
 197:Drivers/STM32F4xx_HAL_Driver/Src/stm32f4xx_hal_dma_ex.c ****     __HAL_DMA_CLEAR_FLAG (hdma, __HAL_DMA_GET_HT_FLAG_INDEX(hdma));
 484              		.loc 1 197 0 discriminator 69
 485 0208 02F58062 		add	r2, r2, #1024
 486 020c 9342     		cmp	r3, r2
ARM GAS  /tmp/ccO8U11d.s 			page 16


 487 020e 25D0     		beq	.L84
 197:Drivers/STM32F4xx_HAL_Driver/Src/stm32f4xx_hal_dma_ex.c ****     __HAL_DMA_CLEAR_FLAG (hdma, __HAL_DMA_GET_HT_FLAG_INDEX(hdma));
 488              		.loc 1 197 0 discriminator 71
 489 0210 A2F56872 		sub	r2, r2, #928
 490 0214 9342     		cmp	r3, r2
 491 0216 24D0     		beq	.L85
 197:Drivers/STM32F4xx_HAL_Driver/Src/stm32f4xx_hal_dma_ex.c ****     __HAL_DMA_CLEAR_FLAG (hdma, __HAL_DMA_GET_HT_FLAG_INDEX(hdma));
 492              		.loc 1 197 0 discriminator 73
 493 0218 02F58062 		add	r2, r2, #1024
 494 021c 9342     		cmp	r3, r2
 495 021e 0CBF     		ite	eq
 496 0220 4FF40013 		moveq	r3, #2097152
 497 0224 4FF00063 		movne	r3, #134217728
 498 0228 00E0     		b	.L24
 499              	.L75:
 197:Drivers/STM32F4xx_HAL_Driver/Src/stm32f4xx_hal_dma_ex.c ****     __HAL_DMA_CLEAR_FLAG (hdma, __HAL_DMA_GET_HT_FLAG_INDEX(hdma));
 500              		.loc 1 197 0
 501 022a 2023     		movs	r3, #32
 502              	.L24:
 197:Drivers/STM32F4xx_HAL_Driver/Src/stm32f4xx_hal_dma_ex.c ****     __HAL_DMA_CLEAR_FLAG (hdma, __HAL_DMA_GET_HT_FLAG_INDEX(hdma));
 503              		.loc 1 197 0 discriminator 100
 504 022c 594A     		ldr	r2, .L308+4
 505 022e 9360     		str	r3, [r2, #8]
 506              	.LVL39:
 507 0230 64E7     		b	.L22
 508              	.LVL40:
 509              	.L76:
 197:Drivers/STM32F4xx_HAL_Driver/Src/stm32f4xx_hal_dma_ex.c ****     __HAL_DMA_CLEAR_FLAG (hdma, __HAL_DMA_GET_HT_FLAG_INDEX(hdma));
 510              		.loc 1 197 0
 511 0232 2023     		movs	r3, #32
 512 0234 FAE7     		b	.L24
 513              	.L77:
 514 0236 2023     		movs	r3, #32
 515 0238 F8E7     		b	.L24
 516              	.L78:
 517 023a 2023     		movs	r3, #32
 518 023c F6E7     		b	.L24
 519              	.L79:
 520 023e 4FF40063 		mov	r3, #2048
 521 0242 F3E7     		b	.L24
 522              	.L80:
 523 0244 4FF40063 		mov	r3, #2048
 524 0248 F0E7     		b	.L24
 525              	.L81:
 526 024a 4FF40063 		mov	r3, #2048
 527 024e EDE7     		b	.L24
 528              	.L82:
 529 0250 4FF40063 		mov	r3, #2048
 530 0254 EAE7     		b	.L24
 531              	.L83:
 532 0256 4FF40013 		mov	r3, #2097152
 533 025a E7E7     		b	.L24
 534              	.L84:
 535 025c 4FF40013 		mov	r3, #2097152
 536 0260 E4E7     		b	.L24
 537              	.L85:
 538 0262 4FF40013 		mov	r3, #2097152
ARM GAS  /tmp/ccO8U11d.s 			page 17


 539 0266 E1E7     		b	.L24
 540              	.L23:
 197:Drivers/STM32F4xx_HAL_Driver/Src/stm32f4xx_hal_dma_ex.c ****     __HAL_DMA_CLEAR_FLAG (hdma, __HAL_DMA_GET_HT_FLAG_INDEX(hdma));
 541              		.loc 1 197 0 discriminator 52
 542 0268 4C4A     		ldr	r2, .L308+12
 543 026a 9342     		cmp	r3, r2
 544 026c 52D9     		bls	.L25
 197:Drivers/STM32F4xx_HAL_Driver/Src/stm32f4xx_hal_dma_ex.c ****     __HAL_DMA_CLEAR_FLAG (hdma, __HAL_DMA_GET_HT_FLAG_INDEX(hdma));
 545              		.loc 1 197 0 discriminator 102
 546 026e 483A     		subs	r2, r2, #72
 547 0270 9342     		cmp	r3, r2
 548 0272 30D0     		beq	.L87
 197:Drivers/STM32F4xx_HAL_Driver/Src/stm32f4xx_hal_dma_ex.c ****     __HAL_DMA_CLEAR_FLAG (hdma, __HAL_DMA_GET_HT_FLAG_INDEX(hdma));
 549              		.loc 1 197 0 discriminator 104
 550 0274 02F58062 		add	r2, r2, #1024
 551 0278 9342     		cmp	r3, r2
 552 027a 30D0     		beq	.L88
 197:Drivers/STM32F4xx_HAL_Driver/Src/stm32f4xx_hal_dma_ex.c ****     __HAL_DMA_CLEAR_FLAG (hdma, __HAL_DMA_GET_HT_FLAG_INDEX(hdma));
 553              		.loc 1 197 0 discriminator 106
 554 027c A2F56872 		sub	r2, r2, #928
 555 0280 9342     		cmp	r3, r2
 556 0282 2ED0     		beq	.L89
 197:Drivers/STM32F4xx_HAL_Driver/Src/stm32f4xx_hal_dma_ex.c ****     __HAL_DMA_CLEAR_FLAG (hdma, __HAL_DMA_GET_HT_FLAG_INDEX(hdma));
 557              		.loc 1 197 0 discriminator 108
 558 0284 02F58062 		add	r2, r2, #1024
 559 0288 9342     		cmp	r3, r2
 560 028a 2CD0     		beq	.L90
 197:Drivers/STM32F4xx_HAL_Driver/Src/stm32f4xx_hal_dma_ex.c ****     __HAL_DMA_CLEAR_FLAG (hdma, __HAL_DMA_GET_HT_FLAG_INDEX(hdma));
 561              		.loc 1 197 0 discriminator 110
 562 028c A2F58962 		sub	r2, r2, #1096
 563 0290 9342     		cmp	r3, r2
 564 0292 2AD0     		beq	.L91
 197:Drivers/STM32F4xx_HAL_Driver/Src/stm32f4xx_hal_dma_ex.c ****     __HAL_DMA_CLEAR_FLAG (hdma, __HAL_DMA_GET_HT_FLAG_INDEX(hdma));
 565              		.loc 1 197 0 discriminator 112
 566 0294 02F58062 		add	r2, r2, #1024
 567 0298 9342     		cmp	r3, r2
 568 029a 29D0     		beq	.L92
 197:Drivers/STM32F4xx_HAL_Driver/Src/stm32f4xx_hal_dma_ex.c ****     __HAL_DMA_CLEAR_FLAG (hdma, __HAL_DMA_GET_HT_FLAG_INDEX(hdma));
 569              		.loc 1 197 0 discriminator 114
 570 029c A2F56872 		sub	r2, r2, #928
 571 02a0 9342     		cmp	r3, r2
 572 02a2 28D0     		beq	.L93
 197:Drivers/STM32F4xx_HAL_Driver/Src/stm32f4xx_hal_dma_ex.c ****     __HAL_DMA_CLEAR_FLAG (hdma, __HAL_DMA_GET_HT_FLAG_INDEX(hdma));
 573              		.loc 1 197 0 discriminator 116
 574 02a4 02F58062 		add	r2, r2, #1024
 575 02a8 9342     		cmp	r3, r2
 576 02aa 27D0     		beq	.L94
 197:Drivers/STM32F4xx_HAL_Driver/Src/stm32f4xx_hal_dma_ex.c ****     __HAL_DMA_CLEAR_FLAG (hdma, __HAL_DMA_GET_HT_FLAG_INDEX(hdma));
 577              		.loc 1 197 0 discriminator 118
 578 02ac A2F58962 		sub	r2, r2, #1096
 579 02b0 9342     		cmp	r3, r2
 580 02b2 26D0     		beq	.L95
 197:Drivers/STM32F4xx_HAL_Driver/Src/stm32f4xx_hal_dma_ex.c ****     __HAL_DMA_CLEAR_FLAG (hdma, __HAL_DMA_GET_HT_FLAG_INDEX(hdma));
 581              		.loc 1 197 0 discriminator 120
 582 02b4 02F58062 		add	r2, r2, #1024
 583 02b8 9342     		cmp	r3, r2
 584 02ba 25D0     		beq	.L96
ARM GAS  /tmp/ccO8U11d.s 			page 18


 197:Drivers/STM32F4xx_HAL_Driver/Src/stm32f4xx_hal_dma_ex.c ****     __HAL_DMA_CLEAR_FLAG (hdma, __HAL_DMA_GET_HT_FLAG_INDEX(hdma));
 585              		.loc 1 197 0 discriminator 122
 586 02bc A2F56872 		sub	r2, r2, #928
 587 02c0 9342     		cmp	r3, r2
 588 02c2 24D0     		beq	.L97
 197:Drivers/STM32F4xx_HAL_Driver/Src/stm32f4xx_hal_dma_ex.c ****     __HAL_DMA_CLEAR_FLAG (hdma, __HAL_DMA_GET_HT_FLAG_INDEX(hdma));
 589              		.loc 1 197 0 discriminator 124
 590 02c4 02F58062 		add	r2, r2, #1024
 591 02c8 9342     		cmp	r3, r2
 592 02ca 0CBF     		ite	eq
 593 02cc 4FF40013 		moveq	r3, #2097152
 594 02d0 4FF00063 		movne	r3, #134217728
 595 02d4 00E0     		b	.L26
 596              	.L87:
 197:Drivers/STM32F4xx_HAL_Driver/Src/stm32f4xx_hal_dma_ex.c ****     __HAL_DMA_CLEAR_FLAG (hdma, __HAL_DMA_GET_HT_FLAG_INDEX(hdma));
 597              		.loc 1 197 0
 598 02d6 2023     		movs	r3, #32
 599              	.L26:
 197:Drivers/STM32F4xx_HAL_Driver/Src/stm32f4xx_hal_dma_ex.c ****     __HAL_DMA_CLEAR_FLAG (hdma, __HAL_DMA_GET_HT_FLAG_INDEX(hdma));
 600              		.loc 1 197 0 discriminator 151
 601 02d8 314A     		ldr	r2, .L308+16
 602 02da D360     		str	r3, [r2, #12]
 603              	.LVL41:
 604 02dc 0EE7     		b	.L22
 605              	.LVL42:
 606              	.L88:
 197:Drivers/STM32F4xx_HAL_Driver/Src/stm32f4xx_hal_dma_ex.c ****     __HAL_DMA_CLEAR_FLAG (hdma, __HAL_DMA_GET_HT_FLAG_INDEX(hdma));
 607              		.loc 1 197 0
 608 02de 2023     		movs	r3, #32
 609 02e0 FAE7     		b	.L26
 610              	.L89:
 611 02e2 2023     		movs	r3, #32
 612 02e4 F8E7     		b	.L26
 613              	.L90:
 614 02e6 2023     		movs	r3, #32
 615 02e8 F6E7     		b	.L26
 616              	.L91:
 617 02ea 4FF40063 		mov	r3, #2048
 618 02ee F3E7     		b	.L26
 619              	.L92:
 620 02f0 4FF40063 		mov	r3, #2048
 621 02f4 F0E7     		b	.L26
 622              	.L93:
 623 02f6 4FF40063 		mov	r3, #2048
 624 02fa EDE7     		b	.L26
 625              	.L94:
 626 02fc 4FF40063 		mov	r3, #2048
 627 0300 EAE7     		b	.L26
 628              	.L95:
 629 0302 4FF40013 		mov	r3, #2097152
 630 0306 E7E7     		b	.L26
 631              	.L96:
 632 0308 4FF40013 		mov	r3, #2097152
 633 030c E4E7     		b	.L26
 634              	.L97:
 635 030e 4FF40013 		mov	r3, #2097152
 636 0312 E1E7     		b	.L26
ARM GAS  /tmp/ccO8U11d.s 			page 19


 637              	.L25:
 197:Drivers/STM32F4xx_HAL_Driver/Src/stm32f4xx_hal_dma_ex.c ****     __HAL_DMA_CLEAR_FLAG (hdma, __HAL_DMA_GET_HT_FLAG_INDEX(hdma));
 638              		.loc 1 197 0 discriminator 103
 639 0314 234A     		ldr	r2, .L308+20
 640 0316 9342     		cmp	r3, r2
 641 0318 30D0     		beq	.L99
 197:Drivers/STM32F4xx_HAL_Driver/Src/stm32f4xx_hal_dma_ex.c ****     __HAL_DMA_CLEAR_FLAG (hdma, __HAL_DMA_GET_HT_FLAG_INDEX(hdma));
 642              		.loc 1 197 0 discriminator 153
 643 031a 02F58062 		add	r2, r2, #1024
 644 031e 9342     		cmp	r3, r2
 645 0320 30D0     		beq	.L100
 197:Drivers/STM32F4xx_HAL_Driver/Src/stm32f4xx_hal_dma_ex.c ****     __HAL_DMA_CLEAR_FLAG (hdma, __HAL_DMA_GET_HT_FLAG_INDEX(hdma));
 646              		.loc 1 197 0 discriminator 155
 647 0322 A2F56872 		sub	r2, r2, #928
 648 0326 9342     		cmp	r3, r2
 649 0328 2ED0     		beq	.L101
 197:Drivers/STM32F4xx_HAL_Driver/Src/stm32f4xx_hal_dma_ex.c ****     __HAL_DMA_CLEAR_FLAG (hdma, __HAL_DMA_GET_HT_FLAG_INDEX(hdma));
 650              		.loc 1 197 0 discriminator 157
 651 032a 02F58062 		add	r2, r2, #1024
 652 032e 9342     		cmp	r3, r2
 653 0330 2CD0     		beq	.L102
 197:Drivers/STM32F4xx_HAL_Driver/Src/stm32f4xx_hal_dma_ex.c ****     __HAL_DMA_CLEAR_FLAG (hdma, __HAL_DMA_GET_HT_FLAG_INDEX(hdma));
 654              		.loc 1 197 0 discriminator 159
 655 0332 A2F58962 		sub	r2, r2, #1096
 656 0336 9342     		cmp	r3, r2
 657 0338 36D0     		beq	.L103
 197:Drivers/STM32F4xx_HAL_Driver/Src/stm32f4xx_hal_dma_ex.c ****     __HAL_DMA_CLEAR_FLAG (hdma, __HAL_DMA_GET_HT_FLAG_INDEX(hdma));
 658              		.loc 1 197 0 discriminator 161
 659 033a 02F58062 		add	r2, r2, #1024
 660 033e 9342     		cmp	r3, r2
 661 0340 35D0     		beq	.L104
 197:Drivers/STM32F4xx_HAL_Driver/Src/stm32f4xx_hal_dma_ex.c ****     __HAL_DMA_CLEAR_FLAG (hdma, __HAL_DMA_GET_HT_FLAG_INDEX(hdma));
 662              		.loc 1 197 0 discriminator 163
 663 0342 A2F56872 		sub	r2, r2, #928
 664 0346 9342     		cmp	r3, r2
 665 0348 34D0     		beq	.L105
 197:Drivers/STM32F4xx_HAL_Driver/Src/stm32f4xx_hal_dma_ex.c ****     __HAL_DMA_CLEAR_FLAG (hdma, __HAL_DMA_GET_HT_FLAG_INDEX(hdma));
 666              		.loc 1 197 0 discriminator 165
 667 034a 02F58062 		add	r2, r2, #1024
 668 034e 9342     		cmp	r3, r2
 669 0350 33D0     		beq	.L106
 197:Drivers/STM32F4xx_HAL_Driver/Src/stm32f4xx_hal_dma_ex.c ****     __HAL_DMA_CLEAR_FLAG (hdma, __HAL_DMA_GET_HT_FLAG_INDEX(hdma));
 670              		.loc 1 197 0 discriminator 167
 671 0352 A2F58962 		sub	r2, r2, #1096
 672 0356 9342     		cmp	r3, r2
 673 0358 32D0     		beq	.L107
 197:Drivers/STM32F4xx_HAL_Driver/Src/stm32f4xx_hal_dma_ex.c ****     __HAL_DMA_CLEAR_FLAG (hdma, __HAL_DMA_GET_HT_FLAG_INDEX(hdma));
 674              		.loc 1 197 0 discriminator 169
 675 035a 02F58062 		add	r2, r2, #1024
 676 035e 9342     		cmp	r3, r2
 677 0360 31D0     		beq	.L108
 197:Drivers/STM32F4xx_HAL_Driver/Src/stm32f4xx_hal_dma_ex.c ****     __HAL_DMA_CLEAR_FLAG (hdma, __HAL_DMA_GET_HT_FLAG_INDEX(hdma));
 678              		.loc 1 197 0 discriminator 171
 679 0362 A2F56872 		sub	r2, r2, #928
 680 0366 9342     		cmp	r3, r2
 681 0368 30D0     		beq	.L109
 197:Drivers/STM32F4xx_HAL_Driver/Src/stm32f4xx_hal_dma_ex.c ****     __HAL_DMA_CLEAR_FLAG (hdma, __HAL_DMA_GET_HT_FLAG_INDEX(hdma));
ARM GAS  /tmp/ccO8U11d.s 			page 20


 682              		.loc 1 197 0 discriminator 173
 683 036a 02F58062 		add	r2, r2, #1024
 684 036e 9342     		cmp	r3, r2
 685 0370 0CBF     		ite	eq
 686 0372 4FF40013 		moveq	r3, #2097152
 687 0376 4FF00063 		movne	r3, #134217728
 688 037a 00E0     		b	.L27
 689              	.L99:
 197:Drivers/STM32F4xx_HAL_Driver/Src/stm32f4xx_hal_dma_ex.c ****     __HAL_DMA_CLEAR_FLAG (hdma, __HAL_DMA_GET_HT_FLAG_INDEX(hdma));
 690              		.loc 1 197 0
 691 037c 2023     		movs	r3, #32
 692              	.L27:
 197:Drivers/STM32F4xx_HAL_Driver/Src/stm32f4xx_hal_dma_ex.c ****     __HAL_DMA_CLEAR_FLAG (hdma, __HAL_DMA_GET_HT_FLAG_INDEX(hdma));
 693              		.loc 1 197 0 discriminator 200
 694 037e 084A     		ldr	r2, .L308+16
 695 0380 9360     		str	r3, [r2, #8]
 696              	.LVL43:
 697 0382 BBE6     		b	.L22
 698              	.LVL44:
 699              	.L100:
 197:Drivers/STM32F4xx_HAL_Driver/Src/stm32f4xx_hal_dma_ex.c ****     __HAL_DMA_CLEAR_FLAG (hdma, __HAL_DMA_GET_HT_FLAG_INDEX(hdma));
 700              		.loc 1 197 0
 701 0384 2023     		movs	r3, #32
 702 0386 FAE7     		b	.L27
 703              	.L101:
 704 0388 2023     		movs	r3, #32
 705 038a F8E7     		b	.L27
 706              	.L102:
 707 038c 2023     		movs	r3, #32
 708 038e F6E7     		b	.L27
 709              	.L309:
 710              		.align	2
 711              	.L308:
 712 0390 58640240 		.word	1073898584
 713 0394 00640240 		.word	1073898496
 714 0398 B8600240 		.word	1073897656
 715 039c 58600240 		.word	1073897560
 716 03a0 00600240 		.word	1073897472
 717 03a4 10600240 		.word	1073897488
 718              	.L103:
 719 03a8 4FF40063 		mov	r3, #2048
 720 03ac E7E7     		b	.L27
 721              	.L104:
 722 03ae 4FF40063 		mov	r3, #2048
 723 03b2 E4E7     		b	.L27
 724              	.L105:
 725 03b4 4FF40063 		mov	r3, #2048
 726 03b8 E1E7     		b	.L27
 727              	.L106:
 728 03ba 4FF40063 		mov	r3, #2048
 729 03be DEE7     		b	.L27
 730              	.L107:
 731 03c0 4FF40013 		mov	r3, #2097152
 732 03c4 DBE7     		b	.L27
 733              	.L108:
 734 03c6 4FF40013 		mov	r3, #2097152
 735 03ca D8E7     		b	.L27
ARM GAS  /tmp/ccO8U11d.s 			page 21


 736              	.L109:
 737 03cc 4FF40013 		mov	r3, #2097152
 738 03d0 D5E7     		b	.L27
 739              	.LVL45:
 740              	.L111:
 198:Drivers/STM32F4xx_HAL_Driver/Src/stm32f4xx_hal_dma_ex.c ****     __HAL_DMA_CLEAR_FLAG (hdma, __HAL_DMA_GET_TE_FLAG_INDEX(hdma));
 741              		.loc 1 198 0 is_stmt 1
 742 03d2 1023     		movs	r3, #16
 743              	.L29:
 198:Drivers/STM32F4xx_HAL_Driver/Src/stm32f4xx_hal_dma_ex.c ****     __HAL_DMA_CLEAR_FLAG (hdma, __HAL_DMA_GET_TE_FLAG_INDEX(hdma));
 744              		.loc 1 198 0 is_stmt 0 discriminator 50
 745 03d4 B04A     		ldr	r2, .L310
 746 03d6 D360     		str	r3, [r2, #12]
 747              	.L30:
 199:Drivers/STM32F4xx_HAL_Driver/Src/stm32f4xx_hal_dma_ex.c ****     __HAL_DMA_CLEAR_FLAG (hdma, __HAL_DMA_GET_DME_FLAG_INDEX(hdma));
 748              		.loc 1 199 0 is_stmt 1
 749 03d8 0368     		ldr	r3, [r0]
 750 03da B04A     		ldr	r2, .L310+4
 751 03dc 9342     		cmp	r3, r2
 752 03de 40F2CA81 		bls	.L36
 199:Drivers/STM32F4xx_HAL_Driver/Src/stm32f4xx_hal_dma_ex.c ****     __HAL_DMA_CLEAR_FLAG (hdma, __HAL_DMA_GET_DME_FLAG_INDEX(hdma));
 753              		.loc 1 199 0 is_stmt 0 discriminator 1
 754 03e2 A2F58962 		sub	r2, r2, #1096
 755 03e6 9342     		cmp	r3, r2
 756 03e8 00F06281 		beq	.L159
 199:Drivers/STM32F4xx_HAL_Driver/Src/stm32f4xx_hal_dma_ex.c ****     __HAL_DMA_CLEAR_FLAG (hdma, __HAL_DMA_GET_DME_FLAG_INDEX(hdma));
 757              		.loc 1 199 0 discriminator 3
 758 03ec 02F58062 		add	r2, r2, #1024
 759 03f0 9342     		cmp	r3, r2
 760 03f2 00F0A581 		beq	.L160
 199:Drivers/STM32F4xx_HAL_Driver/Src/stm32f4xx_hal_dma_ex.c ****     __HAL_DMA_CLEAR_FLAG (hdma, __HAL_DMA_GET_DME_FLAG_INDEX(hdma));
 761              		.loc 1 199 0 discriminator 5
 762 03f6 A2F56872 		sub	r2, r2, #928
 763 03fa 9342     		cmp	r3, r2
 764 03fc 00F0A281 		beq	.L161
 199:Drivers/STM32F4xx_HAL_Driver/Src/stm32f4xx_hal_dma_ex.c ****     __HAL_DMA_CLEAR_FLAG (hdma, __HAL_DMA_GET_DME_FLAG_INDEX(hdma));
 765              		.loc 1 199 0 discriminator 7
 766 0400 02F58062 		add	r2, r2, #1024
 767 0404 9342     		cmp	r3, r2
 768 0406 00F09F81 		beq	.L162
 199:Drivers/STM32F4xx_HAL_Driver/Src/stm32f4xx_hal_dma_ex.c ****     __HAL_DMA_CLEAR_FLAG (hdma, __HAL_DMA_GET_DME_FLAG_INDEX(hdma));
 769              		.loc 1 199 0 discriminator 9
 770 040a A2F58962 		sub	r2, r2, #1096
 771 040e 9342     		cmp	r3, r2
 772 0410 00F09C81 		beq	.L163
 199:Drivers/STM32F4xx_HAL_Driver/Src/stm32f4xx_hal_dma_ex.c ****     __HAL_DMA_CLEAR_FLAG (hdma, __HAL_DMA_GET_DME_FLAG_INDEX(hdma));
 773              		.loc 1 199 0 discriminator 11
 774 0414 02F58062 		add	r2, r2, #1024
 775 0418 9342     		cmp	r3, r2
 776 041a 00F09A81 		beq	.L164
 199:Drivers/STM32F4xx_HAL_Driver/Src/stm32f4xx_hal_dma_ex.c ****     __HAL_DMA_CLEAR_FLAG (hdma, __HAL_DMA_GET_DME_FLAG_INDEX(hdma));
 777              		.loc 1 199 0 discriminator 13
 778 041e A2F56872 		sub	r2, r2, #928
 779 0422 9342     		cmp	r3, r2
 780 0424 00F09881 		beq	.L165
 199:Drivers/STM32F4xx_HAL_Driver/Src/stm32f4xx_hal_dma_ex.c ****     __HAL_DMA_CLEAR_FLAG (hdma, __HAL_DMA_GET_DME_FLAG_INDEX(hdma));
 781              		.loc 1 199 0 discriminator 15
ARM GAS  /tmp/ccO8U11d.s 			page 22


 782 0428 02F58062 		add	r2, r2, #1024
 783 042c 9342     		cmp	r3, r2
 784 042e 00F09681 		beq	.L166
 199:Drivers/STM32F4xx_HAL_Driver/Src/stm32f4xx_hal_dma_ex.c ****     __HAL_DMA_CLEAR_FLAG (hdma, __HAL_DMA_GET_DME_FLAG_INDEX(hdma));
 785              		.loc 1 199 0 discriminator 17
 786 0432 A2F58962 		sub	r2, r2, #1096
 787 0436 9342     		cmp	r3, r2
 788 0438 00F09481 		beq	.L167
 199:Drivers/STM32F4xx_HAL_Driver/Src/stm32f4xx_hal_dma_ex.c ****     __HAL_DMA_CLEAR_FLAG (hdma, __HAL_DMA_GET_DME_FLAG_INDEX(hdma));
 789              		.loc 1 199 0 discriminator 19
 790 043c 02F58062 		add	r2, r2, #1024
 791 0440 9342     		cmp	r3, r2
 792 0442 00F09281 		beq	.L168
 199:Drivers/STM32F4xx_HAL_Driver/Src/stm32f4xx_hal_dma_ex.c ****     __HAL_DMA_CLEAR_FLAG (hdma, __HAL_DMA_GET_DME_FLAG_INDEX(hdma));
 793              		.loc 1 199 0 discriminator 21
 794 0446 A2F56872 		sub	r2, r2, #928
 795 044a 9342     		cmp	r3, r2
 796 044c 00F09081 		beq	.L169
 199:Drivers/STM32F4xx_HAL_Driver/Src/stm32f4xx_hal_dma_ex.c ****     __HAL_DMA_CLEAR_FLAG (hdma, __HAL_DMA_GET_DME_FLAG_INDEX(hdma));
 797              		.loc 1 199 0 discriminator 23
 798 0450 02F58062 		add	r2, r2, #1024
 799 0454 9342     		cmp	r3, r2
 800 0456 0CBF     		ite	eq
 801 0458 4FF40023 		moveq	r3, #524288
 802 045c 4FF00073 		movne	r3, #33554432
 803 0460 27E1     		b	.L37
 804              	.L112:
 198:Drivers/STM32F4xx_HAL_Driver/Src/stm32f4xx_hal_dma_ex.c ****     __HAL_DMA_CLEAR_FLAG (hdma, __HAL_DMA_GET_TE_FLAG_INDEX(hdma));
 805              		.loc 1 198 0 is_stmt 1
 806 0462 1023     		movs	r3, #16
 807 0464 B6E7     		b	.L29
 808              	.L113:
 809 0466 1023     		movs	r3, #16
 810 0468 B4E7     		b	.L29
 811              	.L114:
 812 046a 1023     		movs	r3, #16
 813 046c B2E7     		b	.L29
 814              	.L115:
 815 046e 4FF48063 		mov	r3, #1024
 816 0472 AFE7     		b	.L29
 817              	.L116:
 818 0474 4FF48063 		mov	r3, #1024
 819 0478 ACE7     		b	.L29
 820              	.L117:
 821 047a 4FF48063 		mov	r3, #1024
 822 047e A9E7     		b	.L29
 823              	.L118:
 824 0480 4FF48063 		mov	r3, #1024
 825 0484 A6E7     		b	.L29
 826              	.L119:
 827 0486 4FF48013 		mov	r3, #1048576
 828 048a A3E7     		b	.L29
 829              	.L120:
 830 048c 4FF48013 		mov	r3, #1048576
 831 0490 A0E7     		b	.L29
 832              	.L121:
 833 0492 4FF48013 		mov	r3, #1048576
ARM GAS  /tmp/ccO8U11d.s 			page 23


 834 0496 9DE7     		b	.L29
 835              	.L28:
 198:Drivers/STM32F4xx_HAL_Driver/Src/stm32f4xx_hal_dma_ex.c ****     __HAL_DMA_CLEAR_FLAG (hdma, __HAL_DMA_GET_TE_FLAG_INDEX(hdma));
 836              		.loc 1 198 0 is_stmt 0 discriminator 2
 837 0498 814A     		ldr	r2, .L310+8
 838 049a 9342     		cmp	r3, r2
 839 049c 52D9     		bls	.L31
 198:Drivers/STM32F4xx_HAL_Driver/Src/stm32f4xx_hal_dma_ex.c ****     __HAL_DMA_CLEAR_FLAG (hdma, __HAL_DMA_GET_TE_FLAG_INDEX(hdma));
 840              		.loc 1 198 0 discriminator 51
 841 049e A83A     		subs	r2, r2, #168
 842 04a0 9342     		cmp	r3, r2
 843 04a2 30D0     		beq	.L123
 198:Drivers/STM32F4xx_HAL_Driver/Src/stm32f4xx_hal_dma_ex.c ****     __HAL_DMA_CLEAR_FLAG (hdma, __HAL_DMA_GET_TE_FLAG_INDEX(hdma));
 844              		.loc 1 198 0 discriminator 53
 845 04a4 02F58062 		add	r2, r2, #1024
 846 04a8 9342     		cmp	r3, r2
 847 04aa 30D0     		beq	.L124
 198:Drivers/STM32F4xx_HAL_Driver/Src/stm32f4xx_hal_dma_ex.c ****     __HAL_DMA_CLEAR_FLAG (hdma, __HAL_DMA_GET_TE_FLAG_INDEX(hdma));
 848              		.loc 1 198 0 discriminator 55
 849 04ac A2F56872 		sub	r2, r2, #928
 850 04b0 9342     		cmp	r3, r2
 851 04b2 2ED0     		beq	.L125
 198:Drivers/STM32F4xx_HAL_Driver/Src/stm32f4xx_hal_dma_ex.c ****     __HAL_DMA_CLEAR_FLAG (hdma, __HAL_DMA_GET_TE_FLAG_INDEX(hdma));
 852              		.loc 1 198 0 discriminator 57
 853 04b4 02F58062 		add	r2, r2, #1024
 854 04b8 9342     		cmp	r3, r2
 855 04ba 2CD0     		beq	.L126
 198:Drivers/STM32F4xx_HAL_Driver/Src/stm32f4xx_hal_dma_ex.c ****     __HAL_DMA_CLEAR_FLAG (hdma, __HAL_DMA_GET_TE_FLAG_INDEX(hdma));
 856              		.loc 1 198 0 discriminator 59
 857 04bc A2F58962 		sub	r2, r2, #1096
 858 04c0 9342     		cmp	r3, r2
 859 04c2 2AD0     		beq	.L127
 198:Drivers/STM32F4xx_HAL_Driver/Src/stm32f4xx_hal_dma_ex.c ****     __HAL_DMA_CLEAR_FLAG (hdma, __HAL_DMA_GET_TE_FLAG_INDEX(hdma));
 860              		.loc 1 198 0 discriminator 61
 861 04c4 02F58062 		add	r2, r2, #1024
 862 04c8 9342     		cmp	r3, r2
 863 04ca 29D0     		beq	.L128
 198:Drivers/STM32F4xx_HAL_Driver/Src/stm32f4xx_hal_dma_ex.c ****     __HAL_DMA_CLEAR_FLAG (hdma, __HAL_DMA_GET_TE_FLAG_INDEX(hdma));
 864              		.loc 1 198 0 discriminator 63
 865 04cc A2F56872 		sub	r2, r2, #928
 866 04d0 9342     		cmp	r3, r2
 867 04d2 28D0     		beq	.L129
 198:Drivers/STM32F4xx_HAL_Driver/Src/stm32f4xx_hal_dma_ex.c ****     __HAL_DMA_CLEAR_FLAG (hdma, __HAL_DMA_GET_TE_FLAG_INDEX(hdma));
 868              		.loc 1 198 0 discriminator 65
 869 04d4 02F58062 		add	r2, r2, #1024
 870 04d8 9342     		cmp	r3, r2
 871 04da 27D0     		beq	.L130
 198:Drivers/STM32F4xx_HAL_Driver/Src/stm32f4xx_hal_dma_ex.c ****     __HAL_DMA_CLEAR_FLAG (hdma, __HAL_DMA_GET_TE_FLAG_INDEX(hdma));
 872              		.loc 1 198 0 discriminator 67
 873 04dc A2F58962 		sub	r2, r2, #1096
 874 04e0 9342     		cmp	r3, r2
 875 04e2 26D0     		beq	.L131
 198:Drivers/STM32F4xx_HAL_Driver/Src/stm32f4xx_hal_dma_ex.c ****     __HAL_DMA_CLEAR_FLAG (hdma, __HAL_DMA_GET_TE_FLAG_INDEX(hdma));
 876              		.loc 1 198 0 discriminator 69
 877 04e4 02F58062 		add	r2, r2, #1024
 878 04e8 9342     		cmp	r3, r2
 879 04ea 25D0     		beq	.L132
ARM GAS  /tmp/ccO8U11d.s 			page 24


 198:Drivers/STM32F4xx_HAL_Driver/Src/stm32f4xx_hal_dma_ex.c ****     __HAL_DMA_CLEAR_FLAG (hdma, __HAL_DMA_GET_TE_FLAG_INDEX(hdma));
 880              		.loc 1 198 0 discriminator 71
 881 04ec A2F56872 		sub	r2, r2, #928
 882 04f0 9342     		cmp	r3, r2
 883 04f2 24D0     		beq	.L133
 198:Drivers/STM32F4xx_HAL_Driver/Src/stm32f4xx_hal_dma_ex.c ****     __HAL_DMA_CLEAR_FLAG (hdma, __HAL_DMA_GET_TE_FLAG_INDEX(hdma));
 884              		.loc 1 198 0 discriminator 73
 885 04f4 02F58062 		add	r2, r2, #1024
 886 04f8 9342     		cmp	r3, r2
 887 04fa 0CBF     		ite	eq
 888 04fc 4FF48013 		moveq	r3, #1048576
 889 0500 4FF08063 		movne	r3, #67108864
 890 0504 00E0     		b	.L32
 891              	.L123:
 198:Drivers/STM32F4xx_HAL_Driver/Src/stm32f4xx_hal_dma_ex.c ****     __HAL_DMA_CLEAR_FLAG (hdma, __HAL_DMA_GET_TE_FLAG_INDEX(hdma));
 892              		.loc 1 198 0
 893 0506 1023     		movs	r3, #16
 894              	.L32:
 198:Drivers/STM32F4xx_HAL_Driver/Src/stm32f4xx_hal_dma_ex.c ****     __HAL_DMA_CLEAR_FLAG (hdma, __HAL_DMA_GET_TE_FLAG_INDEX(hdma));
 895              		.loc 1 198 0 discriminator 100
 896 0508 634A     		ldr	r2, .L310
 897 050a 9360     		str	r3, [r2, #8]
 898 050c 64E7     		b	.L30
 899              	.L124:
 198:Drivers/STM32F4xx_HAL_Driver/Src/stm32f4xx_hal_dma_ex.c ****     __HAL_DMA_CLEAR_FLAG (hdma, __HAL_DMA_GET_TE_FLAG_INDEX(hdma));
 900              		.loc 1 198 0
 901 050e 1023     		movs	r3, #16
 902 0510 FAE7     		b	.L32
 903              	.L125:
 904 0512 1023     		movs	r3, #16
 905 0514 F8E7     		b	.L32
 906              	.L126:
 907 0516 1023     		movs	r3, #16
 908 0518 F6E7     		b	.L32
 909              	.L127:
 910 051a 4FF48063 		mov	r3, #1024
 911 051e F3E7     		b	.L32
 912              	.L128:
 913 0520 4FF48063 		mov	r3, #1024
 914 0524 F0E7     		b	.L32
 915              	.L129:
 916 0526 4FF48063 		mov	r3, #1024
 917 052a EDE7     		b	.L32
 918              	.L130:
 919 052c 4FF48063 		mov	r3, #1024
 920 0530 EAE7     		b	.L32
 921              	.L131:
 922 0532 4FF48013 		mov	r3, #1048576
 923 0536 E7E7     		b	.L32
 924              	.L132:
 925 0538 4FF48013 		mov	r3, #1048576
 926 053c E4E7     		b	.L32
 927              	.L133:
 928 053e 4FF48013 		mov	r3, #1048576
 929 0542 E1E7     		b	.L32
 930              	.L31:
 198:Drivers/STM32F4xx_HAL_Driver/Src/stm32f4xx_hal_dma_ex.c ****     __HAL_DMA_CLEAR_FLAG (hdma, __HAL_DMA_GET_TE_FLAG_INDEX(hdma));
ARM GAS  /tmp/ccO8U11d.s 			page 25


 931              		.loc 1 198 0 discriminator 52
 932 0544 574A     		ldr	r2, .L310+12
 933 0546 9342     		cmp	r3, r2
 934 0548 52D9     		bls	.L33
 198:Drivers/STM32F4xx_HAL_Driver/Src/stm32f4xx_hal_dma_ex.c ****     __HAL_DMA_CLEAR_FLAG (hdma, __HAL_DMA_GET_TE_FLAG_INDEX(hdma));
 935              		.loc 1 198 0 discriminator 102
 936 054a 483A     		subs	r2, r2, #72
 937 054c 9342     		cmp	r3, r2
 938 054e 30D0     		beq	.L135
 198:Drivers/STM32F4xx_HAL_Driver/Src/stm32f4xx_hal_dma_ex.c ****     __HAL_DMA_CLEAR_FLAG (hdma, __HAL_DMA_GET_TE_FLAG_INDEX(hdma));
 939              		.loc 1 198 0 discriminator 104
 940 0550 02F58062 		add	r2, r2, #1024
 941 0554 9342     		cmp	r3, r2
 942 0556 30D0     		beq	.L136
 198:Drivers/STM32F4xx_HAL_Driver/Src/stm32f4xx_hal_dma_ex.c ****     __HAL_DMA_CLEAR_FLAG (hdma, __HAL_DMA_GET_TE_FLAG_INDEX(hdma));
 943              		.loc 1 198 0 discriminator 106
 944 0558 A2F56872 		sub	r2, r2, #928
 945 055c 9342     		cmp	r3, r2
 946 055e 2ED0     		beq	.L137
 198:Drivers/STM32F4xx_HAL_Driver/Src/stm32f4xx_hal_dma_ex.c ****     __HAL_DMA_CLEAR_FLAG (hdma, __HAL_DMA_GET_TE_FLAG_INDEX(hdma));
 947              		.loc 1 198 0 discriminator 108
 948 0560 02F58062 		add	r2, r2, #1024
 949 0564 9342     		cmp	r3, r2
 950 0566 2CD0     		beq	.L138
 198:Drivers/STM32F4xx_HAL_Driver/Src/stm32f4xx_hal_dma_ex.c ****     __HAL_DMA_CLEAR_FLAG (hdma, __HAL_DMA_GET_TE_FLAG_INDEX(hdma));
 951              		.loc 1 198 0 discriminator 110
 952 0568 A2F58962 		sub	r2, r2, #1096
 953 056c 9342     		cmp	r3, r2
 954 056e 2AD0     		beq	.L139
 198:Drivers/STM32F4xx_HAL_Driver/Src/stm32f4xx_hal_dma_ex.c ****     __HAL_DMA_CLEAR_FLAG (hdma, __HAL_DMA_GET_TE_FLAG_INDEX(hdma));
 955              		.loc 1 198 0 discriminator 112
 956 0570 02F58062 		add	r2, r2, #1024
 957 0574 9342     		cmp	r3, r2
 958 0576 29D0     		beq	.L140
 198:Drivers/STM32F4xx_HAL_Driver/Src/stm32f4xx_hal_dma_ex.c ****     __HAL_DMA_CLEAR_FLAG (hdma, __HAL_DMA_GET_TE_FLAG_INDEX(hdma));
 959              		.loc 1 198 0 discriminator 114
 960 0578 A2F56872 		sub	r2, r2, #928
 961 057c 9342     		cmp	r3, r2
 962 057e 28D0     		beq	.L141
 198:Drivers/STM32F4xx_HAL_Driver/Src/stm32f4xx_hal_dma_ex.c ****     __HAL_DMA_CLEAR_FLAG (hdma, __HAL_DMA_GET_TE_FLAG_INDEX(hdma));
 963              		.loc 1 198 0 discriminator 116
 964 0580 02F58062 		add	r2, r2, #1024
 965 0584 9342     		cmp	r3, r2
 966 0586 27D0     		beq	.L142
 198:Drivers/STM32F4xx_HAL_Driver/Src/stm32f4xx_hal_dma_ex.c ****     __HAL_DMA_CLEAR_FLAG (hdma, __HAL_DMA_GET_TE_FLAG_INDEX(hdma));
 967              		.loc 1 198 0 discriminator 118
 968 0588 A2F58962 		sub	r2, r2, #1096
 969 058c 9342     		cmp	r3, r2
 970 058e 26D0     		beq	.L143
 198:Drivers/STM32F4xx_HAL_Driver/Src/stm32f4xx_hal_dma_ex.c ****     __HAL_DMA_CLEAR_FLAG (hdma, __HAL_DMA_GET_TE_FLAG_INDEX(hdma));
 971              		.loc 1 198 0 discriminator 120
 972 0590 02F58062 		add	r2, r2, #1024
 973 0594 9342     		cmp	r3, r2
 974 0596 25D0     		beq	.L144
 198:Drivers/STM32F4xx_HAL_Driver/Src/stm32f4xx_hal_dma_ex.c ****     __HAL_DMA_CLEAR_FLAG (hdma, __HAL_DMA_GET_TE_FLAG_INDEX(hdma));
 975              		.loc 1 198 0 discriminator 122
 976 0598 A2F56872 		sub	r2, r2, #928
ARM GAS  /tmp/ccO8U11d.s 			page 26


 977 059c 9342     		cmp	r3, r2
 978 059e 24D0     		beq	.L145
 198:Drivers/STM32F4xx_HAL_Driver/Src/stm32f4xx_hal_dma_ex.c ****     __HAL_DMA_CLEAR_FLAG (hdma, __HAL_DMA_GET_TE_FLAG_INDEX(hdma));
 979              		.loc 1 198 0 discriminator 124
 980 05a0 02F58062 		add	r2, r2, #1024
 981 05a4 9342     		cmp	r3, r2
 982 05a6 0CBF     		ite	eq
 983 05a8 4FF48013 		moveq	r3, #1048576
 984 05ac 4FF08063 		movne	r3, #67108864
 985 05b0 00E0     		b	.L34
 986              	.L135:
 198:Drivers/STM32F4xx_HAL_Driver/Src/stm32f4xx_hal_dma_ex.c ****     __HAL_DMA_CLEAR_FLAG (hdma, __HAL_DMA_GET_TE_FLAG_INDEX(hdma));
 987              		.loc 1 198 0
 988 05b2 1023     		movs	r3, #16
 989              	.L34:
 198:Drivers/STM32F4xx_HAL_Driver/Src/stm32f4xx_hal_dma_ex.c ****     __HAL_DMA_CLEAR_FLAG (hdma, __HAL_DMA_GET_TE_FLAG_INDEX(hdma));
 990              		.loc 1 198 0 discriminator 151
 991 05b4 3C4A     		ldr	r2, .L310+16
 992 05b6 D360     		str	r3, [r2, #12]
 993 05b8 0EE7     		b	.L30
 994              	.L136:
 198:Drivers/STM32F4xx_HAL_Driver/Src/stm32f4xx_hal_dma_ex.c ****     __HAL_DMA_CLEAR_FLAG (hdma, __HAL_DMA_GET_TE_FLAG_INDEX(hdma));
 995              		.loc 1 198 0
 996 05ba 1023     		movs	r3, #16
 997 05bc FAE7     		b	.L34
 998              	.L137:
 999 05be 1023     		movs	r3, #16
 1000 05c0 F8E7     		b	.L34
 1001              	.L138:
 1002 05c2 1023     		movs	r3, #16
 1003 05c4 F6E7     		b	.L34
 1004              	.L139:
 1005 05c6 4FF48063 		mov	r3, #1024
 1006 05ca F3E7     		b	.L34
 1007              	.L140:
 1008 05cc 4FF48063 		mov	r3, #1024
 1009 05d0 F0E7     		b	.L34
 1010              	.L141:
 1011 05d2 4FF48063 		mov	r3, #1024
 1012 05d6 EDE7     		b	.L34
 1013              	.L142:
 1014 05d8 4FF48063 		mov	r3, #1024
 1015 05dc EAE7     		b	.L34
 1016              	.L143:
 1017 05de 4FF48013 		mov	r3, #1048576
 1018 05e2 E7E7     		b	.L34
 1019              	.L144:
 1020 05e4 4FF48013 		mov	r3, #1048576
 1021 05e8 E4E7     		b	.L34
 1022              	.L145:
 1023 05ea 4FF48013 		mov	r3, #1048576
 1024 05ee E1E7     		b	.L34
 1025              	.L33:
 198:Drivers/STM32F4xx_HAL_Driver/Src/stm32f4xx_hal_dma_ex.c ****     __HAL_DMA_CLEAR_FLAG (hdma, __HAL_DMA_GET_TE_FLAG_INDEX(hdma));
 1026              		.loc 1 198 0 discriminator 103
 1027 05f0 2E4A     		ldr	r2, .L310+20
 1028 05f2 9342     		cmp	r3, r2
ARM GAS  /tmp/ccO8U11d.s 			page 27


 1029 05f4 30D0     		beq	.L147
 198:Drivers/STM32F4xx_HAL_Driver/Src/stm32f4xx_hal_dma_ex.c ****     __HAL_DMA_CLEAR_FLAG (hdma, __HAL_DMA_GET_TE_FLAG_INDEX(hdma));
 1030              		.loc 1 198 0 discriminator 153
 1031 05f6 02F58062 		add	r2, r2, #1024
 1032 05fa 9342     		cmp	r3, r2
 1033 05fc 30D0     		beq	.L148
 198:Drivers/STM32F4xx_HAL_Driver/Src/stm32f4xx_hal_dma_ex.c ****     __HAL_DMA_CLEAR_FLAG (hdma, __HAL_DMA_GET_TE_FLAG_INDEX(hdma));
 1034              		.loc 1 198 0 discriminator 155
 1035 05fe A2F56872 		sub	r2, r2, #928
 1036 0602 9342     		cmp	r3, r2
 1037 0604 2ED0     		beq	.L149
 198:Drivers/STM32F4xx_HAL_Driver/Src/stm32f4xx_hal_dma_ex.c ****     __HAL_DMA_CLEAR_FLAG (hdma, __HAL_DMA_GET_TE_FLAG_INDEX(hdma));
 1038              		.loc 1 198 0 discriminator 157
 1039 0606 02F58062 		add	r2, r2, #1024
 1040 060a 9342     		cmp	r3, r2
 1041 060c 2CD0     		beq	.L150
 198:Drivers/STM32F4xx_HAL_Driver/Src/stm32f4xx_hal_dma_ex.c ****     __HAL_DMA_CLEAR_FLAG (hdma, __HAL_DMA_GET_TE_FLAG_INDEX(hdma));
 1042              		.loc 1 198 0 discriminator 159
 1043 060e A2F58962 		sub	r2, r2, #1096
 1044 0612 9342     		cmp	r3, r2
 1045 0614 2AD0     		beq	.L151
 198:Drivers/STM32F4xx_HAL_Driver/Src/stm32f4xx_hal_dma_ex.c ****     __HAL_DMA_CLEAR_FLAG (hdma, __HAL_DMA_GET_TE_FLAG_INDEX(hdma));
 1046              		.loc 1 198 0 discriminator 161
 1047 0616 02F58062 		add	r2, r2, #1024
 1048 061a 9342     		cmp	r3, r2
 1049 061c 29D0     		beq	.L152
 198:Drivers/STM32F4xx_HAL_Driver/Src/stm32f4xx_hal_dma_ex.c ****     __HAL_DMA_CLEAR_FLAG (hdma, __HAL_DMA_GET_TE_FLAG_INDEX(hdma));
 1050              		.loc 1 198 0 discriminator 163
 1051 061e A2F56872 		sub	r2, r2, #928
 1052 0622 9342     		cmp	r3, r2
 1053 0624 28D0     		beq	.L153
 198:Drivers/STM32F4xx_HAL_Driver/Src/stm32f4xx_hal_dma_ex.c ****     __HAL_DMA_CLEAR_FLAG (hdma, __HAL_DMA_GET_TE_FLAG_INDEX(hdma));
 1054              		.loc 1 198 0 discriminator 165
 1055 0626 02F58062 		add	r2, r2, #1024
 1056 062a 9342     		cmp	r3, r2
 1057 062c 27D0     		beq	.L154
 198:Drivers/STM32F4xx_HAL_Driver/Src/stm32f4xx_hal_dma_ex.c ****     __HAL_DMA_CLEAR_FLAG (hdma, __HAL_DMA_GET_TE_FLAG_INDEX(hdma));
 1058              		.loc 1 198 0 discriminator 167
 1059 062e A2F58962 		sub	r2, r2, #1096
 1060 0632 9342     		cmp	r3, r2
 1061 0634 26D0     		beq	.L155
 198:Drivers/STM32F4xx_HAL_Driver/Src/stm32f4xx_hal_dma_ex.c ****     __HAL_DMA_CLEAR_FLAG (hdma, __HAL_DMA_GET_TE_FLAG_INDEX(hdma));
 1062              		.loc 1 198 0 discriminator 169
 1063 0636 02F58062 		add	r2, r2, #1024
 1064 063a 9342     		cmp	r3, r2
 1065 063c 25D0     		beq	.L156
 198:Drivers/STM32F4xx_HAL_Driver/Src/stm32f4xx_hal_dma_ex.c ****     __HAL_DMA_CLEAR_FLAG (hdma, __HAL_DMA_GET_TE_FLAG_INDEX(hdma));
 1066              		.loc 1 198 0 discriminator 171
 1067 063e A2F56872 		sub	r2, r2, #928
 1068 0642 9342     		cmp	r3, r2
 1069 0644 24D0     		beq	.L157
 198:Drivers/STM32F4xx_HAL_Driver/Src/stm32f4xx_hal_dma_ex.c ****     __HAL_DMA_CLEAR_FLAG (hdma, __HAL_DMA_GET_TE_FLAG_INDEX(hdma));
 1070              		.loc 1 198 0 discriminator 173
 1071 0646 02F58062 		add	r2, r2, #1024
 1072 064a 9342     		cmp	r3, r2
 1073 064c 0CBF     		ite	eq
 1074 064e 4FF48013 		moveq	r3, #1048576
ARM GAS  /tmp/ccO8U11d.s 			page 28


 1075 0652 4FF08063 		movne	r3, #67108864
 1076 0656 00E0     		b	.L35
 1077              	.L147:
 198:Drivers/STM32F4xx_HAL_Driver/Src/stm32f4xx_hal_dma_ex.c ****     __HAL_DMA_CLEAR_FLAG (hdma, __HAL_DMA_GET_TE_FLAG_INDEX(hdma));
 1078              		.loc 1 198 0
 1079 0658 1023     		movs	r3, #16
 1080              	.L35:
 198:Drivers/STM32F4xx_HAL_Driver/Src/stm32f4xx_hal_dma_ex.c ****     __HAL_DMA_CLEAR_FLAG (hdma, __HAL_DMA_GET_TE_FLAG_INDEX(hdma));
 1081              		.loc 1 198 0 discriminator 200
 1082 065a 134A     		ldr	r2, .L310+16
 1083 065c 9360     		str	r3, [r2, #8]
 1084 065e BBE6     		b	.L30
 1085              	.L148:
 198:Drivers/STM32F4xx_HAL_Driver/Src/stm32f4xx_hal_dma_ex.c ****     __HAL_DMA_CLEAR_FLAG (hdma, __HAL_DMA_GET_TE_FLAG_INDEX(hdma));
 1086              		.loc 1 198 0
 1087 0660 1023     		movs	r3, #16
 1088 0662 FAE7     		b	.L35
 1089              	.L149:
 1090 0664 1023     		movs	r3, #16
 1091 0666 F8E7     		b	.L35
 1092              	.L150:
 1093 0668 1023     		movs	r3, #16
 1094 066a F6E7     		b	.L35
 1095              	.L151:
 1096 066c 4FF48063 		mov	r3, #1024
 1097 0670 F3E7     		b	.L35
 1098              	.L152:
 1099 0672 4FF48063 		mov	r3, #1024
 1100 0676 F0E7     		b	.L35
 1101              	.L153:
 1102 0678 4FF48063 		mov	r3, #1024
 1103 067c EDE7     		b	.L35
 1104              	.L154:
 1105 067e 4FF48063 		mov	r3, #1024
 1106 0682 EAE7     		b	.L35
 1107              	.L155:
 1108 0684 4FF48013 		mov	r3, #1048576
 1109 0688 E7E7     		b	.L35
 1110              	.L156:
 1111 068a 4FF48013 		mov	r3, #1048576
 1112 068e E4E7     		b	.L35
 1113              	.L157:
 1114 0690 4FF48013 		mov	r3, #1048576
 1115 0694 E1E7     		b	.L35
 1116              	.L311:
 1117 0696 00BF     		.align	2
 1118              	.L310:
 1119 0698 00640240 		.word	1073898496
 1120 069c 58640240 		.word	1073898584
 1121 06a0 B8600240 		.word	1073897656
 1122 06a4 58600240 		.word	1073897560
 1123 06a8 00600240 		.word	1073897472
 1124 06ac 10600240 		.word	1073897488
 1125              	.L159:
 199:Drivers/STM32F4xx_HAL_Driver/Src/stm32f4xx_hal_dma_ex.c ****     __HAL_DMA_CLEAR_FLAG (hdma, __HAL_DMA_GET_DME_FLAG_INDEX(hdma));
 1126              		.loc 1 199 0 is_stmt 1
 1127 06b0 0823     		movs	r3, #8
ARM GAS  /tmp/ccO8U11d.s 			page 29


 1128              	.L37:
 199:Drivers/STM32F4xx_HAL_Driver/Src/stm32f4xx_hal_dma_ex.c ****     __HAL_DMA_CLEAR_FLAG (hdma, __HAL_DMA_GET_DME_FLAG_INDEX(hdma));
 1129              		.loc 1 199 0 is_stmt 0 discriminator 50
 1130 06b2 B04A     		ldr	r2, .L312
 1131 06b4 D360     		str	r3, [r2, #12]
 1132              	.L38:
 200:Drivers/STM32F4xx_HAL_Driver/Src/stm32f4xx_hal_dma_ex.c ****     __HAL_DMA_CLEAR_FLAG (hdma, __HAL_DMA_GET_FE_FLAG_INDEX(hdma));
 1133              		.loc 1 200 0 is_stmt 1
 1134 06b6 0368     		ldr	r3, [r0]
 1135 06b8 AF4A     		ldr	r2, .L312+4
 1136 06ba 9342     		cmp	r3, r2
 1137 06bc 40F2C981 		bls	.L44
 200:Drivers/STM32F4xx_HAL_Driver/Src/stm32f4xx_hal_dma_ex.c ****     __HAL_DMA_CLEAR_FLAG (hdma, __HAL_DMA_GET_FE_FLAG_INDEX(hdma));
 1138              		.loc 1 200 0 is_stmt 0 discriminator 1
 1139 06c0 A2F58962 		sub	r2, r2, #1096
 1140 06c4 9342     		cmp	r3, r2
 1141 06c6 00F06181 		beq	.L207
 200:Drivers/STM32F4xx_HAL_Driver/Src/stm32f4xx_hal_dma_ex.c ****     __HAL_DMA_CLEAR_FLAG (hdma, __HAL_DMA_GET_FE_FLAG_INDEX(hdma));
 1142              		.loc 1 200 0 discriminator 3
 1143 06ca 02F58062 		add	r2, r2, #1024
 1144 06ce 9342     		cmp	r3, r2
 1145 06d0 00F0A481 		beq	.L208
 200:Drivers/STM32F4xx_HAL_Driver/Src/stm32f4xx_hal_dma_ex.c ****     __HAL_DMA_CLEAR_FLAG (hdma, __HAL_DMA_GET_FE_FLAG_INDEX(hdma));
 1146              		.loc 1 200 0 discriminator 5
 1147 06d4 A2F56872 		sub	r2, r2, #928
 1148 06d8 9342     		cmp	r3, r2
 1149 06da 00F0A181 		beq	.L209
 200:Drivers/STM32F4xx_HAL_Driver/Src/stm32f4xx_hal_dma_ex.c ****     __HAL_DMA_CLEAR_FLAG (hdma, __HAL_DMA_GET_FE_FLAG_INDEX(hdma));
 1150              		.loc 1 200 0 discriminator 7
 1151 06de 02F58062 		add	r2, r2, #1024
 1152 06e2 9342     		cmp	r3, r2
 1153 06e4 00F09E81 		beq	.L210
 200:Drivers/STM32F4xx_HAL_Driver/Src/stm32f4xx_hal_dma_ex.c ****     __HAL_DMA_CLEAR_FLAG (hdma, __HAL_DMA_GET_FE_FLAG_INDEX(hdma));
 1154              		.loc 1 200 0 discriminator 9
 1155 06e8 A2F58962 		sub	r2, r2, #1096
 1156 06ec 9342     		cmp	r3, r2
 1157 06ee 00F09B81 		beq	.L211
 200:Drivers/STM32F4xx_HAL_Driver/Src/stm32f4xx_hal_dma_ex.c ****     __HAL_DMA_CLEAR_FLAG (hdma, __HAL_DMA_GET_FE_FLAG_INDEX(hdma));
 1158              		.loc 1 200 0 discriminator 11
 1159 06f2 02F58062 		add	r2, r2, #1024
 1160 06f6 9342     		cmp	r3, r2
 1161 06f8 00F09981 		beq	.L212
 200:Drivers/STM32F4xx_HAL_Driver/Src/stm32f4xx_hal_dma_ex.c ****     __HAL_DMA_CLEAR_FLAG (hdma, __HAL_DMA_GET_FE_FLAG_INDEX(hdma));
 1162              		.loc 1 200 0 discriminator 13
 1163 06fc A2F56872 		sub	r2, r2, #928
 1164 0700 9342     		cmp	r3, r2
 1165 0702 00F09781 		beq	.L213
 200:Drivers/STM32F4xx_HAL_Driver/Src/stm32f4xx_hal_dma_ex.c ****     __HAL_DMA_CLEAR_FLAG (hdma, __HAL_DMA_GET_FE_FLAG_INDEX(hdma));
 1166              		.loc 1 200 0 discriminator 15
 1167 0706 02F58062 		add	r2, r2, #1024
 1168 070a 9342     		cmp	r3, r2
 1169 070c 00F09581 		beq	.L214
 200:Drivers/STM32F4xx_HAL_Driver/Src/stm32f4xx_hal_dma_ex.c ****     __HAL_DMA_CLEAR_FLAG (hdma, __HAL_DMA_GET_FE_FLAG_INDEX(hdma));
 1170              		.loc 1 200 0 discriminator 17
 1171 0710 A2F58962 		sub	r2, r2, #1096
 1172 0714 9342     		cmp	r3, r2
 1173 0716 00F09381 		beq	.L215
ARM GAS  /tmp/ccO8U11d.s 			page 30


 200:Drivers/STM32F4xx_HAL_Driver/Src/stm32f4xx_hal_dma_ex.c ****     __HAL_DMA_CLEAR_FLAG (hdma, __HAL_DMA_GET_FE_FLAG_INDEX(hdma));
 1174              		.loc 1 200 0 discriminator 19
 1175 071a 02F58062 		add	r2, r2, #1024
 1176 071e 9342     		cmp	r3, r2
 1177 0720 00F09181 		beq	.L216
 200:Drivers/STM32F4xx_HAL_Driver/Src/stm32f4xx_hal_dma_ex.c ****     __HAL_DMA_CLEAR_FLAG (hdma, __HAL_DMA_GET_FE_FLAG_INDEX(hdma));
 1178              		.loc 1 200 0 discriminator 21
 1179 0724 A2F56872 		sub	r2, r2, #928
 1180 0728 9342     		cmp	r3, r2
 1181 072a 00F08F81 		beq	.L217
 200:Drivers/STM32F4xx_HAL_Driver/Src/stm32f4xx_hal_dma_ex.c ****     __HAL_DMA_CLEAR_FLAG (hdma, __HAL_DMA_GET_FE_FLAG_INDEX(hdma));
 1182              		.loc 1 200 0 discriminator 23
 1183 072e 02F58062 		add	r2, r2, #1024
 1184 0732 9342     		cmp	r3, r2
 1185 0734 0CBF     		ite	eq
 1186 0736 4FF48023 		moveq	r3, #262144
 1187 073a 4FF08073 		movne	r3, #16777216
 1188 073e 26E1     		b	.L45
 1189              	.L160:
 199:Drivers/STM32F4xx_HAL_Driver/Src/stm32f4xx_hal_dma_ex.c ****     __HAL_DMA_CLEAR_FLAG (hdma, __HAL_DMA_GET_DME_FLAG_INDEX(hdma));
 1190              		.loc 1 199 0 is_stmt 1
 1191 0740 0823     		movs	r3, #8
 1192 0742 B6E7     		b	.L37
 1193              	.L161:
 1194 0744 0823     		movs	r3, #8
 1195 0746 B4E7     		b	.L37
 1196              	.L162:
 1197 0748 0823     		movs	r3, #8
 1198 074a B2E7     		b	.L37
 1199              	.L163:
 1200 074c 4FF40073 		mov	r3, #512
 1201 0750 AFE7     		b	.L37
 1202              	.L164:
 1203 0752 4FF40073 		mov	r3, #512
 1204 0756 ACE7     		b	.L37
 1205              	.L165:
 1206 0758 4FF40073 		mov	r3, #512
 1207 075c A9E7     		b	.L37
 1208              	.L166:
 1209 075e 4FF40073 		mov	r3, #512
 1210 0762 A6E7     		b	.L37
 1211              	.L167:
 1212 0764 4FF40023 		mov	r3, #524288
 1213 0768 A3E7     		b	.L37
 1214              	.L168:
 1215 076a 4FF40023 		mov	r3, #524288
 1216 076e A0E7     		b	.L37
 1217              	.L169:
 1218 0770 4FF40023 		mov	r3, #524288
 1219 0774 9DE7     		b	.L37
 1220              	.L36:
 199:Drivers/STM32F4xx_HAL_Driver/Src/stm32f4xx_hal_dma_ex.c ****     __HAL_DMA_CLEAR_FLAG (hdma, __HAL_DMA_GET_DME_FLAG_INDEX(hdma));
 1221              		.loc 1 199 0 is_stmt 0 discriminator 2
 1222 0776 814A     		ldr	r2, .L312+8
 1223 0778 9342     		cmp	r3, r2
 1224 077a 52D9     		bls	.L39
 199:Drivers/STM32F4xx_HAL_Driver/Src/stm32f4xx_hal_dma_ex.c ****     __HAL_DMA_CLEAR_FLAG (hdma, __HAL_DMA_GET_DME_FLAG_INDEX(hdma));
ARM GAS  /tmp/ccO8U11d.s 			page 31


 1225              		.loc 1 199 0 discriminator 51
 1226 077c A83A     		subs	r2, r2, #168
 1227 077e 9342     		cmp	r3, r2
 1228 0780 30D0     		beq	.L171
 199:Drivers/STM32F4xx_HAL_Driver/Src/stm32f4xx_hal_dma_ex.c ****     __HAL_DMA_CLEAR_FLAG (hdma, __HAL_DMA_GET_DME_FLAG_INDEX(hdma));
 1229              		.loc 1 199 0 discriminator 53
 1230 0782 02F58062 		add	r2, r2, #1024
 1231 0786 9342     		cmp	r3, r2
 1232 0788 30D0     		beq	.L172
 199:Drivers/STM32F4xx_HAL_Driver/Src/stm32f4xx_hal_dma_ex.c ****     __HAL_DMA_CLEAR_FLAG (hdma, __HAL_DMA_GET_DME_FLAG_INDEX(hdma));
 1233              		.loc 1 199 0 discriminator 55
 1234 078a A2F56872 		sub	r2, r2, #928
 1235 078e 9342     		cmp	r3, r2
 1236 0790 2ED0     		beq	.L173
 199:Drivers/STM32F4xx_HAL_Driver/Src/stm32f4xx_hal_dma_ex.c ****     __HAL_DMA_CLEAR_FLAG (hdma, __HAL_DMA_GET_DME_FLAG_INDEX(hdma));
 1237              		.loc 1 199 0 discriminator 57
 1238 0792 02F58062 		add	r2, r2, #1024
 1239 0796 9342     		cmp	r3, r2
 1240 0798 2CD0     		beq	.L174
 199:Drivers/STM32F4xx_HAL_Driver/Src/stm32f4xx_hal_dma_ex.c ****     __HAL_DMA_CLEAR_FLAG (hdma, __HAL_DMA_GET_DME_FLAG_INDEX(hdma));
 1241              		.loc 1 199 0 discriminator 59
 1242 079a A2F58962 		sub	r2, r2, #1096
 1243 079e 9342     		cmp	r3, r2
 1244 07a0 2AD0     		beq	.L175
 199:Drivers/STM32F4xx_HAL_Driver/Src/stm32f4xx_hal_dma_ex.c ****     __HAL_DMA_CLEAR_FLAG (hdma, __HAL_DMA_GET_DME_FLAG_INDEX(hdma));
 1245              		.loc 1 199 0 discriminator 61
 1246 07a2 02F58062 		add	r2, r2, #1024
 1247 07a6 9342     		cmp	r3, r2
 1248 07a8 29D0     		beq	.L176
 199:Drivers/STM32F4xx_HAL_Driver/Src/stm32f4xx_hal_dma_ex.c ****     __HAL_DMA_CLEAR_FLAG (hdma, __HAL_DMA_GET_DME_FLAG_INDEX(hdma));
 1249              		.loc 1 199 0 discriminator 63
 1250 07aa A2F56872 		sub	r2, r2, #928
 1251 07ae 9342     		cmp	r3, r2
 1252 07b0 28D0     		beq	.L177
 199:Drivers/STM32F4xx_HAL_Driver/Src/stm32f4xx_hal_dma_ex.c ****     __HAL_DMA_CLEAR_FLAG (hdma, __HAL_DMA_GET_DME_FLAG_INDEX(hdma));
 1253              		.loc 1 199 0 discriminator 65
 1254 07b2 02F58062 		add	r2, r2, #1024
 1255 07b6 9342     		cmp	r3, r2
 1256 07b8 27D0     		beq	.L178
 199:Drivers/STM32F4xx_HAL_Driver/Src/stm32f4xx_hal_dma_ex.c ****     __HAL_DMA_CLEAR_FLAG (hdma, __HAL_DMA_GET_DME_FLAG_INDEX(hdma));
 1257              		.loc 1 199 0 discriminator 67
 1258 07ba A2F58962 		sub	r2, r2, #1096
 1259 07be 9342     		cmp	r3, r2
 1260 07c0 26D0     		beq	.L179
 199:Drivers/STM32F4xx_HAL_Driver/Src/stm32f4xx_hal_dma_ex.c ****     __HAL_DMA_CLEAR_FLAG (hdma, __HAL_DMA_GET_DME_FLAG_INDEX(hdma));
 1261              		.loc 1 199 0 discriminator 69
 1262 07c2 02F58062 		add	r2, r2, #1024
 1263 07c6 9342     		cmp	r3, r2
 1264 07c8 25D0     		beq	.L180
 199:Drivers/STM32F4xx_HAL_Driver/Src/stm32f4xx_hal_dma_ex.c ****     __HAL_DMA_CLEAR_FLAG (hdma, __HAL_DMA_GET_DME_FLAG_INDEX(hdma));
 1265              		.loc 1 199 0 discriminator 71
 1266 07ca A2F56872 		sub	r2, r2, #928
 1267 07ce 9342     		cmp	r3, r2
 1268 07d0 24D0     		beq	.L181
 199:Drivers/STM32F4xx_HAL_Driver/Src/stm32f4xx_hal_dma_ex.c ****     __HAL_DMA_CLEAR_FLAG (hdma, __HAL_DMA_GET_DME_FLAG_INDEX(hdma));
 1269              		.loc 1 199 0 discriminator 73
 1270 07d2 02F58062 		add	r2, r2, #1024
ARM GAS  /tmp/ccO8U11d.s 			page 32


 1271 07d6 9342     		cmp	r3, r2
 1272 07d8 0CBF     		ite	eq
 1273 07da 4FF40023 		moveq	r3, #524288
 1274 07de 4FF00073 		movne	r3, #33554432
 1275 07e2 00E0     		b	.L40
 1276              	.L171:
 199:Drivers/STM32F4xx_HAL_Driver/Src/stm32f4xx_hal_dma_ex.c ****     __HAL_DMA_CLEAR_FLAG (hdma, __HAL_DMA_GET_DME_FLAG_INDEX(hdma));
 1277              		.loc 1 199 0
 1278 07e4 0823     		movs	r3, #8
 1279              	.L40:
 199:Drivers/STM32F4xx_HAL_Driver/Src/stm32f4xx_hal_dma_ex.c ****     __HAL_DMA_CLEAR_FLAG (hdma, __HAL_DMA_GET_DME_FLAG_INDEX(hdma));
 1280              		.loc 1 199 0 discriminator 100
 1281 07e6 634A     		ldr	r2, .L312
 1282 07e8 9360     		str	r3, [r2, #8]
 1283 07ea 64E7     		b	.L38
 1284              	.L172:
 199:Drivers/STM32F4xx_HAL_Driver/Src/stm32f4xx_hal_dma_ex.c ****     __HAL_DMA_CLEAR_FLAG (hdma, __HAL_DMA_GET_DME_FLAG_INDEX(hdma));
 1285              		.loc 1 199 0
 1286 07ec 0823     		movs	r3, #8
 1287 07ee FAE7     		b	.L40
 1288              	.L173:
 1289 07f0 0823     		movs	r3, #8
 1290 07f2 F8E7     		b	.L40
 1291              	.L174:
 1292 07f4 0823     		movs	r3, #8
 1293 07f6 F6E7     		b	.L40
 1294              	.L175:
 1295 07f8 4FF40073 		mov	r3, #512
 1296 07fc F3E7     		b	.L40
 1297              	.L176:
 1298 07fe 4FF40073 		mov	r3, #512
 1299 0802 F0E7     		b	.L40
 1300              	.L177:
 1301 0804 4FF40073 		mov	r3, #512
 1302 0808 EDE7     		b	.L40
 1303              	.L178:
 1304 080a 4FF40073 		mov	r3, #512
 1305 080e EAE7     		b	.L40
 1306              	.L179:
 1307 0810 4FF40023 		mov	r3, #524288
 1308 0814 E7E7     		b	.L40
 1309              	.L180:
 1310 0816 4FF40023 		mov	r3, #524288
 1311 081a E4E7     		b	.L40
 1312              	.L181:
 1313 081c 4FF40023 		mov	r3, #524288
 1314 0820 E1E7     		b	.L40
 1315              	.L39:
 199:Drivers/STM32F4xx_HAL_Driver/Src/stm32f4xx_hal_dma_ex.c ****     __HAL_DMA_CLEAR_FLAG (hdma, __HAL_DMA_GET_DME_FLAG_INDEX(hdma));
 1316              		.loc 1 199 0 discriminator 52
 1317 0822 574A     		ldr	r2, .L312+12
 1318 0824 9342     		cmp	r3, r2
 1319 0826 52D9     		bls	.L41
 199:Drivers/STM32F4xx_HAL_Driver/Src/stm32f4xx_hal_dma_ex.c ****     __HAL_DMA_CLEAR_FLAG (hdma, __HAL_DMA_GET_DME_FLAG_INDEX(hdma));
 1320              		.loc 1 199 0 discriminator 102
 1321 0828 483A     		subs	r2, r2, #72
 1322 082a 9342     		cmp	r3, r2
ARM GAS  /tmp/ccO8U11d.s 			page 33


 1323 082c 30D0     		beq	.L183
 199:Drivers/STM32F4xx_HAL_Driver/Src/stm32f4xx_hal_dma_ex.c ****     __HAL_DMA_CLEAR_FLAG (hdma, __HAL_DMA_GET_DME_FLAG_INDEX(hdma));
 1324              		.loc 1 199 0 discriminator 104
 1325 082e 02F58062 		add	r2, r2, #1024
 1326 0832 9342     		cmp	r3, r2
 1327 0834 30D0     		beq	.L184
 199:Drivers/STM32F4xx_HAL_Driver/Src/stm32f4xx_hal_dma_ex.c ****     __HAL_DMA_CLEAR_FLAG (hdma, __HAL_DMA_GET_DME_FLAG_INDEX(hdma));
 1328              		.loc 1 199 0 discriminator 106
 1329 0836 A2F56872 		sub	r2, r2, #928
 1330 083a 9342     		cmp	r3, r2
 1331 083c 2ED0     		beq	.L185
 199:Drivers/STM32F4xx_HAL_Driver/Src/stm32f4xx_hal_dma_ex.c ****     __HAL_DMA_CLEAR_FLAG (hdma, __HAL_DMA_GET_DME_FLAG_INDEX(hdma));
 1332              		.loc 1 199 0 discriminator 108
 1333 083e 02F58062 		add	r2, r2, #1024
 1334 0842 9342     		cmp	r3, r2
 1335 0844 2CD0     		beq	.L186
 199:Drivers/STM32F4xx_HAL_Driver/Src/stm32f4xx_hal_dma_ex.c ****     __HAL_DMA_CLEAR_FLAG (hdma, __HAL_DMA_GET_DME_FLAG_INDEX(hdma));
 1336              		.loc 1 199 0 discriminator 110
 1337 0846 A2F58962 		sub	r2, r2, #1096
 1338 084a 9342     		cmp	r3, r2
 1339 084c 2AD0     		beq	.L187
 199:Drivers/STM32F4xx_HAL_Driver/Src/stm32f4xx_hal_dma_ex.c ****     __HAL_DMA_CLEAR_FLAG (hdma, __HAL_DMA_GET_DME_FLAG_INDEX(hdma));
 1340              		.loc 1 199 0 discriminator 112
 1341 084e 02F58062 		add	r2, r2, #1024
 1342 0852 9342     		cmp	r3, r2
 1343 0854 29D0     		beq	.L188
 199:Drivers/STM32F4xx_HAL_Driver/Src/stm32f4xx_hal_dma_ex.c ****     __HAL_DMA_CLEAR_FLAG (hdma, __HAL_DMA_GET_DME_FLAG_INDEX(hdma));
 1344              		.loc 1 199 0 discriminator 114
 1345 0856 A2F56872 		sub	r2, r2, #928
 1346 085a 9342     		cmp	r3, r2
 1347 085c 28D0     		beq	.L189
 199:Drivers/STM32F4xx_HAL_Driver/Src/stm32f4xx_hal_dma_ex.c ****     __HAL_DMA_CLEAR_FLAG (hdma, __HAL_DMA_GET_DME_FLAG_INDEX(hdma));
 1348              		.loc 1 199 0 discriminator 116
 1349 085e 02F58062 		add	r2, r2, #1024
 1350 0862 9342     		cmp	r3, r2
 1351 0864 27D0     		beq	.L190
 199:Drivers/STM32F4xx_HAL_Driver/Src/stm32f4xx_hal_dma_ex.c ****     __HAL_DMA_CLEAR_FLAG (hdma, __HAL_DMA_GET_DME_FLAG_INDEX(hdma));
 1352              		.loc 1 199 0 discriminator 118
 1353 0866 A2F58962 		sub	r2, r2, #1096
 1354 086a 9342     		cmp	r3, r2
 1355 086c 26D0     		beq	.L191
 199:Drivers/STM32F4xx_HAL_Driver/Src/stm32f4xx_hal_dma_ex.c ****     __HAL_DMA_CLEAR_FLAG (hdma, __HAL_DMA_GET_DME_FLAG_INDEX(hdma));
 1356              		.loc 1 199 0 discriminator 120
 1357 086e 02F58062 		add	r2, r2, #1024
 1358 0872 9342     		cmp	r3, r2
 1359 0874 25D0     		beq	.L192
 199:Drivers/STM32F4xx_HAL_Driver/Src/stm32f4xx_hal_dma_ex.c ****     __HAL_DMA_CLEAR_FLAG (hdma, __HAL_DMA_GET_DME_FLAG_INDEX(hdma));
 1360              		.loc 1 199 0 discriminator 122
 1361 0876 A2F56872 		sub	r2, r2, #928
 1362 087a 9342     		cmp	r3, r2
 1363 087c 24D0     		beq	.L193
 199:Drivers/STM32F4xx_HAL_Driver/Src/stm32f4xx_hal_dma_ex.c ****     __HAL_DMA_CLEAR_FLAG (hdma, __HAL_DMA_GET_DME_FLAG_INDEX(hdma));
 1364              		.loc 1 199 0 discriminator 124
 1365 087e 02F58062 		add	r2, r2, #1024
 1366 0882 9342     		cmp	r3, r2
 1367 0884 0CBF     		ite	eq
 1368 0886 4FF40023 		moveq	r3, #524288
ARM GAS  /tmp/ccO8U11d.s 			page 34


 1369 088a 4FF00073 		movne	r3, #33554432
 1370 088e 00E0     		b	.L42
 1371              	.L183:
 199:Drivers/STM32F4xx_HAL_Driver/Src/stm32f4xx_hal_dma_ex.c ****     __HAL_DMA_CLEAR_FLAG (hdma, __HAL_DMA_GET_DME_FLAG_INDEX(hdma));
 1372              		.loc 1 199 0
 1373 0890 0823     		movs	r3, #8
 1374              	.L42:
 199:Drivers/STM32F4xx_HAL_Driver/Src/stm32f4xx_hal_dma_ex.c ****     __HAL_DMA_CLEAR_FLAG (hdma, __HAL_DMA_GET_DME_FLAG_INDEX(hdma));
 1375              		.loc 1 199 0 discriminator 151
 1376 0892 3C4A     		ldr	r2, .L312+16
 1377 0894 D360     		str	r3, [r2, #12]
 1378 0896 0EE7     		b	.L38
 1379              	.L184:
 199:Drivers/STM32F4xx_HAL_Driver/Src/stm32f4xx_hal_dma_ex.c ****     __HAL_DMA_CLEAR_FLAG (hdma, __HAL_DMA_GET_DME_FLAG_INDEX(hdma));
 1380              		.loc 1 199 0
 1381 0898 0823     		movs	r3, #8
 1382 089a FAE7     		b	.L42
 1383              	.L185:
 1384 089c 0823     		movs	r3, #8
 1385 089e F8E7     		b	.L42
 1386              	.L186:
 1387 08a0 0823     		movs	r3, #8
 1388 08a2 F6E7     		b	.L42
 1389              	.L187:
 1390 08a4 4FF40073 		mov	r3, #512
 1391 08a8 F3E7     		b	.L42
 1392              	.L188:
 1393 08aa 4FF40073 		mov	r3, #512
 1394 08ae F0E7     		b	.L42
 1395              	.L189:
 1396 08b0 4FF40073 		mov	r3, #512
 1397 08b4 EDE7     		b	.L42
 1398              	.L190:
 1399 08b6 4FF40073 		mov	r3, #512
 1400 08ba EAE7     		b	.L42
 1401              	.L191:
 1402 08bc 4FF40023 		mov	r3, #524288
 1403 08c0 E7E7     		b	.L42
 1404              	.L192:
 1405 08c2 4FF40023 		mov	r3, #524288
 1406 08c6 E4E7     		b	.L42
 1407              	.L193:
 1408 08c8 4FF40023 		mov	r3, #524288
 1409 08cc E1E7     		b	.L42
 1410              	.L41:
 199:Drivers/STM32F4xx_HAL_Driver/Src/stm32f4xx_hal_dma_ex.c ****     __HAL_DMA_CLEAR_FLAG (hdma, __HAL_DMA_GET_DME_FLAG_INDEX(hdma));
 1411              		.loc 1 199 0 discriminator 103
 1412 08ce 2E4A     		ldr	r2, .L312+20
 1413 08d0 9342     		cmp	r3, r2
 1414 08d2 30D0     		beq	.L195
 199:Drivers/STM32F4xx_HAL_Driver/Src/stm32f4xx_hal_dma_ex.c ****     __HAL_DMA_CLEAR_FLAG (hdma, __HAL_DMA_GET_DME_FLAG_INDEX(hdma));
 1415              		.loc 1 199 0 discriminator 153
 1416 08d4 02F58062 		add	r2, r2, #1024
 1417 08d8 9342     		cmp	r3, r2
 1418 08da 30D0     		beq	.L196
 199:Drivers/STM32F4xx_HAL_Driver/Src/stm32f4xx_hal_dma_ex.c ****     __HAL_DMA_CLEAR_FLAG (hdma, __HAL_DMA_GET_DME_FLAG_INDEX(hdma));
 1419              		.loc 1 199 0 discriminator 155
ARM GAS  /tmp/ccO8U11d.s 			page 35


 1420 08dc A2F56872 		sub	r2, r2, #928
 1421 08e0 9342     		cmp	r3, r2
 1422 08e2 2ED0     		beq	.L197
 199:Drivers/STM32F4xx_HAL_Driver/Src/stm32f4xx_hal_dma_ex.c ****     __HAL_DMA_CLEAR_FLAG (hdma, __HAL_DMA_GET_DME_FLAG_INDEX(hdma));
 1423              		.loc 1 199 0 discriminator 157
 1424 08e4 02F58062 		add	r2, r2, #1024
 1425 08e8 9342     		cmp	r3, r2
 1426 08ea 2CD0     		beq	.L198
 199:Drivers/STM32F4xx_HAL_Driver/Src/stm32f4xx_hal_dma_ex.c ****     __HAL_DMA_CLEAR_FLAG (hdma, __HAL_DMA_GET_DME_FLAG_INDEX(hdma));
 1427              		.loc 1 199 0 discriminator 159
 1428 08ec A2F58962 		sub	r2, r2, #1096
 1429 08f0 9342     		cmp	r3, r2
 1430 08f2 2AD0     		beq	.L199
 199:Drivers/STM32F4xx_HAL_Driver/Src/stm32f4xx_hal_dma_ex.c ****     __HAL_DMA_CLEAR_FLAG (hdma, __HAL_DMA_GET_DME_FLAG_INDEX(hdma));
 1431              		.loc 1 199 0 discriminator 161
 1432 08f4 02F58062 		add	r2, r2, #1024
 1433 08f8 9342     		cmp	r3, r2
 1434 08fa 29D0     		beq	.L200
 199:Drivers/STM32F4xx_HAL_Driver/Src/stm32f4xx_hal_dma_ex.c ****     __HAL_DMA_CLEAR_FLAG (hdma, __HAL_DMA_GET_DME_FLAG_INDEX(hdma));
 1435              		.loc 1 199 0 discriminator 163
 1436 08fc A2F56872 		sub	r2, r2, #928
 1437 0900 9342     		cmp	r3, r2
 1438 0902 28D0     		beq	.L201
 199:Drivers/STM32F4xx_HAL_Driver/Src/stm32f4xx_hal_dma_ex.c ****     __HAL_DMA_CLEAR_FLAG (hdma, __HAL_DMA_GET_DME_FLAG_INDEX(hdma));
 1439              		.loc 1 199 0 discriminator 165
 1440 0904 02F58062 		add	r2, r2, #1024
 1441 0908 9342     		cmp	r3, r2
 1442 090a 27D0     		beq	.L202
 199:Drivers/STM32F4xx_HAL_Driver/Src/stm32f4xx_hal_dma_ex.c ****     __HAL_DMA_CLEAR_FLAG (hdma, __HAL_DMA_GET_DME_FLAG_INDEX(hdma));
 1443              		.loc 1 199 0 discriminator 167
 1444 090c A2F58962 		sub	r2, r2, #1096
 1445 0910 9342     		cmp	r3, r2
 1446 0912 26D0     		beq	.L203
 199:Drivers/STM32F4xx_HAL_Driver/Src/stm32f4xx_hal_dma_ex.c ****     __HAL_DMA_CLEAR_FLAG (hdma, __HAL_DMA_GET_DME_FLAG_INDEX(hdma));
 1447              		.loc 1 199 0 discriminator 169
 1448 0914 02F58062 		add	r2, r2, #1024
 1449 0918 9342     		cmp	r3, r2
 1450 091a 25D0     		beq	.L204
 199:Drivers/STM32F4xx_HAL_Driver/Src/stm32f4xx_hal_dma_ex.c ****     __HAL_DMA_CLEAR_FLAG (hdma, __HAL_DMA_GET_DME_FLAG_INDEX(hdma));
 1451              		.loc 1 199 0 discriminator 171
 1452 091c A2F56872 		sub	r2, r2, #928
 1453 0920 9342     		cmp	r3, r2
 1454 0922 24D0     		beq	.L205
 199:Drivers/STM32F4xx_HAL_Driver/Src/stm32f4xx_hal_dma_ex.c ****     __HAL_DMA_CLEAR_FLAG (hdma, __HAL_DMA_GET_DME_FLAG_INDEX(hdma));
 1455              		.loc 1 199 0 discriminator 173
 1456 0924 02F58062 		add	r2, r2, #1024
 1457 0928 9342     		cmp	r3, r2
 1458 092a 0CBF     		ite	eq
 1459 092c 4FF40023 		moveq	r3, #524288
 1460 0930 4FF00073 		movne	r3, #33554432
 1461 0934 00E0     		b	.L43
 1462              	.L195:
 199:Drivers/STM32F4xx_HAL_Driver/Src/stm32f4xx_hal_dma_ex.c ****     __HAL_DMA_CLEAR_FLAG (hdma, __HAL_DMA_GET_DME_FLAG_INDEX(hdma));
 1463              		.loc 1 199 0
 1464 0936 0823     		movs	r3, #8
 1465              	.L43:
 199:Drivers/STM32F4xx_HAL_Driver/Src/stm32f4xx_hal_dma_ex.c ****     __HAL_DMA_CLEAR_FLAG (hdma, __HAL_DMA_GET_DME_FLAG_INDEX(hdma));
ARM GAS  /tmp/ccO8U11d.s 			page 36


 1466              		.loc 1 199 0 discriminator 200
 1467 0938 124A     		ldr	r2, .L312+16
 1468 093a 9360     		str	r3, [r2, #8]
 1469 093c BBE6     		b	.L38
 1470              	.L196:
 199:Drivers/STM32F4xx_HAL_Driver/Src/stm32f4xx_hal_dma_ex.c ****     __HAL_DMA_CLEAR_FLAG (hdma, __HAL_DMA_GET_DME_FLAG_INDEX(hdma));
 1471              		.loc 1 199 0
 1472 093e 0823     		movs	r3, #8
 1473 0940 FAE7     		b	.L43
 1474              	.L197:
 1475 0942 0823     		movs	r3, #8
 1476 0944 F8E7     		b	.L43
 1477              	.L198:
 1478 0946 0823     		movs	r3, #8
 1479 0948 F6E7     		b	.L43
 1480              	.L199:
 1481 094a 4FF40073 		mov	r3, #512
 1482 094e F3E7     		b	.L43
 1483              	.L200:
 1484 0950 4FF40073 		mov	r3, #512
 1485 0954 F0E7     		b	.L43
 1486              	.L201:
 1487 0956 4FF40073 		mov	r3, #512
 1488 095a EDE7     		b	.L43
 1489              	.L202:
 1490 095c 4FF40073 		mov	r3, #512
 1491 0960 EAE7     		b	.L43
 1492              	.L203:
 1493 0962 4FF40023 		mov	r3, #524288
 1494 0966 E7E7     		b	.L43
 1495              	.L204:
 1496 0968 4FF40023 		mov	r3, #524288
 1497 096c E4E7     		b	.L43
 1498              	.L205:
 1499 096e 4FF40023 		mov	r3, #524288
 1500 0972 E1E7     		b	.L43
 1501              	.L313:
 1502              		.align	2
 1503              	.L312:
 1504 0974 00640240 		.word	1073898496
 1505 0978 58640240 		.word	1073898584
 1506 097c B8600240 		.word	1073897656
 1507 0980 58600240 		.word	1073897560
 1508 0984 00600240 		.word	1073897472
 1509 0988 10600240 		.word	1073897488
 1510              	.L207:
 200:Drivers/STM32F4xx_HAL_Driver/Src/stm32f4xx_hal_dma_ex.c ****     __HAL_DMA_CLEAR_FLAG (hdma, __HAL_DMA_GET_FE_FLAG_INDEX(hdma));
 1511              		.loc 1 200 0 is_stmt 1
 1512 098c 0423     		movs	r3, #4
 1513              	.L45:
 200:Drivers/STM32F4xx_HAL_Driver/Src/stm32f4xx_hal_dma_ex.c ****     __HAL_DMA_CLEAR_FLAG (hdma, __HAL_DMA_GET_FE_FLAG_INDEX(hdma));
 1514              		.loc 1 200 0 is_stmt 0 discriminator 50
 1515 098e C24A     		ldr	r2, .L314
 1516 0990 D360     		str	r3, [r2, #12]
 1517              	.L46:
 201:Drivers/STM32F4xx_HAL_Driver/Src/stm32f4xx_hal_dma_ex.c **** 
 1518              		.loc 1 201 0 is_stmt 1
ARM GAS  /tmp/ccO8U11d.s 			page 37


 1519 0992 0368     		ldr	r3, [r0]
 1520 0994 C14A     		ldr	r2, .L314+4
 1521 0996 9342     		cmp	r3, r2
 1522 0998 40F29B81 		bls	.L52
 201:Drivers/STM32F4xx_HAL_Driver/Src/stm32f4xx_hal_dma_ex.c **** 
 1523              		.loc 1 201 0 is_stmt 0 discriminator 1
 1524 099c A2F58962 		sub	r2, r2, #1096
 1525 09a0 9342     		cmp	r3, r2
 1526 09a2 00F05581 		beq	.L255
 201:Drivers/STM32F4xx_HAL_Driver/Src/stm32f4xx_hal_dma_ex.c **** 
 1527              		.loc 1 201 0 discriminator 3
 1528 09a6 02F58062 		add	r2, r2, #1024
 1529 09aa 9342     		cmp	r3, r2
 1530 09ac 00F06E81 		beq	.L256
 201:Drivers/STM32F4xx_HAL_Driver/Src/stm32f4xx_hal_dma_ex.c **** 
 1531              		.loc 1 201 0 discriminator 5
 1532 09b0 A2F56872 		sub	r2, r2, #928
 1533 09b4 9342     		cmp	r3, r2
 1534 09b6 00F06B81 		beq	.L257
 201:Drivers/STM32F4xx_HAL_Driver/Src/stm32f4xx_hal_dma_ex.c **** 
 1535              		.loc 1 201 0 discriminator 7
 1536 09ba 02F58062 		add	r2, r2, #1024
 1537 09be 9342     		cmp	r3, r2
 1538 09c0 00F06881 		beq	.L258
 201:Drivers/STM32F4xx_HAL_Driver/Src/stm32f4xx_hal_dma_ex.c **** 
 1539              		.loc 1 201 0 discriminator 9
 1540 09c4 A2F58962 		sub	r2, r2, #1096
 1541 09c8 9342     		cmp	r3, r2
 1542 09ca 00F07181 		beq	.L259
 201:Drivers/STM32F4xx_HAL_Driver/Src/stm32f4xx_hal_dma_ex.c **** 
 1543              		.loc 1 201 0 discriminator 11
 1544 09ce 02F58062 		add	r2, r2, #1024
 1545 09d2 9342     		cmp	r3, r2
 1546 09d4 00F06E81 		beq	.L260
 201:Drivers/STM32F4xx_HAL_Driver/Src/stm32f4xx_hal_dma_ex.c **** 
 1547              		.loc 1 201 0 discriminator 13
 1548 09d8 A2F56872 		sub	r2, r2, #928
 1549 09dc 9342     		cmp	r3, r2
 1550 09de 00F06B81 		beq	.L261
 201:Drivers/STM32F4xx_HAL_Driver/Src/stm32f4xx_hal_dma_ex.c **** 
 1551              		.loc 1 201 0 discriminator 15
 1552 09e2 02F58062 		add	r2, r2, #1024
 1553 09e6 9342     		cmp	r3, r2
 1554 09e8 00F06881 		beq	.L262
 201:Drivers/STM32F4xx_HAL_Driver/Src/stm32f4xx_hal_dma_ex.c **** 
 1555              		.loc 1 201 0 discriminator 17
 1556 09ec A2F58962 		sub	r2, r2, #1096
 1557 09f0 9342     		cmp	r3, r2
 1558 09f2 00F06581 		beq	.L263
 201:Drivers/STM32F4xx_HAL_Driver/Src/stm32f4xx_hal_dma_ex.c **** 
 1559              		.loc 1 201 0 discriminator 19
 1560 09f6 02F58062 		add	r2, r2, #1024
 1561 09fa 9342     		cmp	r3, r2
 1562 09fc 00F06381 		beq	.L264
 201:Drivers/STM32F4xx_HAL_Driver/Src/stm32f4xx_hal_dma_ex.c **** 
 1563              		.loc 1 201 0 discriminator 21
 1564 0a00 A2F56872 		sub	r2, r2, #928
ARM GAS  /tmp/ccO8U11d.s 			page 38


 1565 0a04 9342     		cmp	r3, r2
 1566 0a06 00F06181 		beq	.L265
 201:Drivers/STM32F4xx_HAL_Driver/Src/stm32f4xx_hal_dma_ex.c **** 
 1567              		.loc 1 201 0 discriminator 23
 1568 0a0a 02F58062 		add	r2, r2, #1024
 1569 0a0e 9342     		cmp	r3, r2
 1570 0a10 0CBF     		ite	eq
 1571 0a12 4FF48033 		moveq	r3, #65536
 1572 0a16 4FF48003 		movne	r3, #4194304
 1573 0a1a 1AE1     		b	.L53
 1574              	.L208:
 200:Drivers/STM32F4xx_HAL_Driver/Src/stm32f4xx_hal_dma_ex.c ****     __HAL_DMA_CLEAR_FLAG (hdma, __HAL_DMA_GET_FE_FLAG_INDEX(hdma));
 1575              		.loc 1 200 0 is_stmt 1
 1576 0a1c 0423     		movs	r3, #4
 1577 0a1e B6E7     		b	.L45
 1578              	.L209:
 1579 0a20 0423     		movs	r3, #4
 1580 0a22 B4E7     		b	.L45
 1581              	.L210:
 1582 0a24 0423     		movs	r3, #4
 1583 0a26 B2E7     		b	.L45
 1584              	.L211:
 1585 0a28 4FF48073 		mov	r3, #256
 1586 0a2c AFE7     		b	.L45
 1587              	.L212:
 1588 0a2e 4FF48073 		mov	r3, #256
 1589 0a32 ACE7     		b	.L45
 1590              	.L213:
 1591 0a34 4FF48073 		mov	r3, #256
 1592 0a38 A9E7     		b	.L45
 1593              	.L214:
 1594 0a3a 4FF48073 		mov	r3, #256
 1595 0a3e A6E7     		b	.L45
 1596              	.L215:
 1597 0a40 4FF48023 		mov	r3, #262144
 1598 0a44 A3E7     		b	.L45
 1599              	.L216:
 1600 0a46 4FF48023 		mov	r3, #262144
 1601 0a4a A0E7     		b	.L45
 1602              	.L217:
 1603 0a4c 4FF48023 		mov	r3, #262144
 1604 0a50 9DE7     		b	.L45
 1605              	.L44:
 200:Drivers/STM32F4xx_HAL_Driver/Src/stm32f4xx_hal_dma_ex.c ****     __HAL_DMA_CLEAR_FLAG (hdma, __HAL_DMA_GET_FE_FLAG_INDEX(hdma));
 1606              		.loc 1 200 0 is_stmt 0 discriminator 2
 1607 0a52 934A     		ldr	r2, .L314+8
 1608 0a54 9342     		cmp	r3, r2
 1609 0a56 52D9     		bls	.L47
 200:Drivers/STM32F4xx_HAL_Driver/Src/stm32f4xx_hal_dma_ex.c ****     __HAL_DMA_CLEAR_FLAG (hdma, __HAL_DMA_GET_FE_FLAG_INDEX(hdma));
 1610              		.loc 1 200 0 discriminator 51
 1611 0a58 A83A     		subs	r2, r2, #168
 1612 0a5a 9342     		cmp	r3, r2
 1613 0a5c 30D0     		beq	.L219
 200:Drivers/STM32F4xx_HAL_Driver/Src/stm32f4xx_hal_dma_ex.c ****     __HAL_DMA_CLEAR_FLAG (hdma, __HAL_DMA_GET_FE_FLAG_INDEX(hdma));
 1614              		.loc 1 200 0 discriminator 53
 1615 0a5e 02F58062 		add	r2, r2, #1024
 1616 0a62 9342     		cmp	r3, r2
ARM GAS  /tmp/ccO8U11d.s 			page 39


 1617 0a64 30D0     		beq	.L220
 200:Drivers/STM32F4xx_HAL_Driver/Src/stm32f4xx_hal_dma_ex.c ****     __HAL_DMA_CLEAR_FLAG (hdma, __HAL_DMA_GET_FE_FLAG_INDEX(hdma));
 1618              		.loc 1 200 0 discriminator 55
 1619 0a66 A2F56872 		sub	r2, r2, #928
 1620 0a6a 9342     		cmp	r3, r2
 1621 0a6c 2ED0     		beq	.L221
 200:Drivers/STM32F4xx_HAL_Driver/Src/stm32f4xx_hal_dma_ex.c ****     __HAL_DMA_CLEAR_FLAG (hdma, __HAL_DMA_GET_FE_FLAG_INDEX(hdma));
 1622              		.loc 1 200 0 discriminator 57
 1623 0a6e 02F58062 		add	r2, r2, #1024
 1624 0a72 9342     		cmp	r3, r2
 1625 0a74 2CD0     		beq	.L222
 200:Drivers/STM32F4xx_HAL_Driver/Src/stm32f4xx_hal_dma_ex.c ****     __HAL_DMA_CLEAR_FLAG (hdma, __HAL_DMA_GET_FE_FLAG_INDEX(hdma));
 1626              		.loc 1 200 0 discriminator 59
 1627 0a76 A2F58962 		sub	r2, r2, #1096
 1628 0a7a 9342     		cmp	r3, r2
 1629 0a7c 2AD0     		beq	.L223
 200:Drivers/STM32F4xx_HAL_Driver/Src/stm32f4xx_hal_dma_ex.c ****     __HAL_DMA_CLEAR_FLAG (hdma, __HAL_DMA_GET_FE_FLAG_INDEX(hdma));
 1630              		.loc 1 200 0 discriminator 61
 1631 0a7e 02F58062 		add	r2, r2, #1024
 1632 0a82 9342     		cmp	r3, r2
 1633 0a84 29D0     		beq	.L224
 200:Drivers/STM32F4xx_HAL_Driver/Src/stm32f4xx_hal_dma_ex.c ****     __HAL_DMA_CLEAR_FLAG (hdma, __HAL_DMA_GET_FE_FLAG_INDEX(hdma));
 1634              		.loc 1 200 0 discriminator 63
 1635 0a86 A2F56872 		sub	r2, r2, #928
 1636 0a8a 9342     		cmp	r3, r2
 1637 0a8c 28D0     		beq	.L225
 200:Drivers/STM32F4xx_HAL_Driver/Src/stm32f4xx_hal_dma_ex.c ****     __HAL_DMA_CLEAR_FLAG (hdma, __HAL_DMA_GET_FE_FLAG_INDEX(hdma));
 1638              		.loc 1 200 0 discriminator 65
 1639 0a8e 02F58062 		add	r2, r2, #1024
 1640 0a92 9342     		cmp	r3, r2
 1641 0a94 27D0     		beq	.L226
 200:Drivers/STM32F4xx_HAL_Driver/Src/stm32f4xx_hal_dma_ex.c ****     __HAL_DMA_CLEAR_FLAG (hdma, __HAL_DMA_GET_FE_FLAG_INDEX(hdma));
 1642              		.loc 1 200 0 discriminator 67
 1643 0a96 A2F58962 		sub	r2, r2, #1096
 1644 0a9a 9342     		cmp	r3, r2
 1645 0a9c 26D0     		beq	.L227
 200:Drivers/STM32F4xx_HAL_Driver/Src/stm32f4xx_hal_dma_ex.c ****     __HAL_DMA_CLEAR_FLAG (hdma, __HAL_DMA_GET_FE_FLAG_INDEX(hdma));
 1646              		.loc 1 200 0 discriminator 69
 1647 0a9e 02F58062 		add	r2, r2, #1024
 1648 0aa2 9342     		cmp	r3, r2
 1649 0aa4 25D0     		beq	.L228
 200:Drivers/STM32F4xx_HAL_Driver/Src/stm32f4xx_hal_dma_ex.c ****     __HAL_DMA_CLEAR_FLAG (hdma, __HAL_DMA_GET_FE_FLAG_INDEX(hdma));
 1650              		.loc 1 200 0 discriminator 71
 1651 0aa6 A2F56872 		sub	r2, r2, #928
 1652 0aaa 9342     		cmp	r3, r2
 1653 0aac 24D0     		beq	.L229
 200:Drivers/STM32F4xx_HAL_Driver/Src/stm32f4xx_hal_dma_ex.c ****     __HAL_DMA_CLEAR_FLAG (hdma, __HAL_DMA_GET_FE_FLAG_INDEX(hdma));
 1654              		.loc 1 200 0 discriminator 73
 1655 0aae 02F58062 		add	r2, r2, #1024
 1656 0ab2 9342     		cmp	r3, r2
 1657 0ab4 0CBF     		ite	eq
 1658 0ab6 4FF48023 		moveq	r3, #262144
 1659 0aba 4FF08073 		movne	r3, #16777216
 1660 0abe 00E0     		b	.L48
 1661              	.L219:
 200:Drivers/STM32F4xx_HAL_Driver/Src/stm32f4xx_hal_dma_ex.c ****     __HAL_DMA_CLEAR_FLAG (hdma, __HAL_DMA_GET_FE_FLAG_INDEX(hdma));
 1662              		.loc 1 200 0
ARM GAS  /tmp/ccO8U11d.s 			page 40


 1663 0ac0 0423     		movs	r3, #4
 1664              	.L48:
 200:Drivers/STM32F4xx_HAL_Driver/Src/stm32f4xx_hal_dma_ex.c ****     __HAL_DMA_CLEAR_FLAG (hdma, __HAL_DMA_GET_FE_FLAG_INDEX(hdma));
 1665              		.loc 1 200 0 discriminator 100
 1666 0ac2 754A     		ldr	r2, .L314
 1667 0ac4 9360     		str	r3, [r2, #8]
 1668 0ac6 64E7     		b	.L46
 1669              	.L220:
 200:Drivers/STM32F4xx_HAL_Driver/Src/stm32f4xx_hal_dma_ex.c ****     __HAL_DMA_CLEAR_FLAG (hdma, __HAL_DMA_GET_FE_FLAG_INDEX(hdma));
 1670              		.loc 1 200 0
 1671 0ac8 0423     		movs	r3, #4
 1672 0aca FAE7     		b	.L48
 1673              	.L221:
 1674 0acc 0423     		movs	r3, #4
 1675 0ace F8E7     		b	.L48
 1676              	.L222:
 1677 0ad0 0423     		movs	r3, #4
 1678 0ad2 F6E7     		b	.L48
 1679              	.L223:
 1680 0ad4 4FF48073 		mov	r3, #256
 1681 0ad8 F3E7     		b	.L48
 1682              	.L224:
 1683 0ada 4FF48073 		mov	r3, #256
 1684 0ade F0E7     		b	.L48
 1685              	.L225:
 1686 0ae0 4FF48073 		mov	r3, #256
 1687 0ae4 EDE7     		b	.L48
 1688              	.L226:
 1689 0ae6 4FF48073 		mov	r3, #256
 1690 0aea EAE7     		b	.L48
 1691              	.L227:
 1692 0aec 4FF48023 		mov	r3, #262144
 1693 0af0 E7E7     		b	.L48
 1694              	.L228:
 1695 0af2 4FF48023 		mov	r3, #262144
 1696 0af6 E4E7     		b	.L48
 1697              	.L229:
 1698 0af8 4FF48023 		mov	r3, #262144
 1699 0afc E1E7     		b	.L48
 1700              	.L47:
 200:Drivers/STM32F4xx_HAL_Driver/Src/stm32f4xx_hal_dma_ex.c ****     __HAL_DMA_CLEAR_FLAG (hdma, __HAL_DMA_GET_FE_FLAG_INDEX(hdma));
 1701              		.loc 1 200 0 discriminator 52
 1702 0afe 694A     		ldr	r2, .L314+12
 1703 0b00 9342     		cmp	r3, r2
 1704 0b02 52D9     		bls	.L49
 200:Drivers/STM32F4xx_HAL_Driver/Src/stm32f4xx_hal_dma_ex.c ****     __HAL_DMA_CLEAR_FLAG (hdma, __HAL_DMA_GET_FE_FLAG_INDEX(hdma));
 1705              		.loc 1 200 0 discriminator 102
 1706 0b04 483A     		subs	r2, r2, #72
 1707 0b06 9342     		cmp	r3, r2
 1708 0b08 30D0     		beq	.L231
 200:Drivers/STM32F4xx_HAL_Driver/Src/stm32f4xx_hal_dma_ex.c ****     __HAL_DMA_CLEAR_FLAG (hdma, __HAL_DMA_GET_FE_FLAG_INDEX(hdma));
 1709              		.loc 1 200 0 discriminator 104
 1710 0b0a 02F58062 		add	r2, r2, #1024
 1711 0b0e 9342     		cmp	r3, r2
 1712 0b10 30D0     		beq	.L232
 200:Drivers/STM32F4xx_HAL_Driver/Src/stm32f4xx_hal_dma_ex.c ****     __HAL_DMA_CLEAR_FLAG (hdma, __HAL_DMA_GET_FE_FLAG_INDEX(hdma));
 1713              		.loc 1 200 0 discriminator 106
ARM GAS  /tmp/ccO8U11d.s 			page 41


 1714 0b12 A2F56872 		sub	r2, r2, #928
 1715 0b16 9342     		cmp	r3, r2
 1716 0b18 2ED0     		beq	.L233
 200:Drivers/STM32F4xx_HAL_Driver/Src/stm32f4xx_hal_dma_ex.c ****     __HAL_DMA_CLEAR_FLAG (hdma, __HAL_DMA_GET_FE_FLAG_INDEX(hdma));
 1717              		.loc 1 200 0 discriminator 108
 1718 0b1a 02F58062 		add	r2, r2, #1024
 1719 0b1e 9342     		cmp	r3, r2
 1720 0b20 2CD0     		beq	.L234
 200:Drivers/STM32F4xx_HAL_Driver/Src/stm32f4xx_hal_dma_ex.c ****     __HAL_DMA_CLEAR_FLAG (hdma, __HAL_DMA_GET_FE_FLAG_INDEX(hdma));
 1721              		.loc 1 200 0 discriminator 110
 1722 0b22 A2F58962 		sub	r2, r2, #1096
 1723 0b26 9342     		cmp	r3, r2
 1724 0b28 2AD0     		beq	.L235
 200:Drivers/STM32F4xx_HAL_Driver/Src/stm32f4xx_hal_dma_ex.c ****     __HAL_DMA_CLEAR_FLAG (hdma, __HAL_DMA_GET_FE_FLAG_INDEX(hdma));
 1725              		.loc 1 200 0 discriminator 112
 1726 0b2a 02F58062 		add	r2, r2, #1024
 1727 0b2e 9342     		cmp	r3, r2
 1728 0b30 29D0     		beq	.L236
 200:Drivers/STM32F4xx_HAL_Driver/Src/stm32f4xx_hal_dma_ex.c ****     __HAL_DMA_CLEAR_FLAG (hdma, __HAL_DMA_GET_FE_FLAG_INDEX(hdma));
 1729              		.loc 1 200 0 discriminator 114
 1730 0b32 A2F56872 		sub	r2, r2, #928
 1731 0b36 9342     		cmp	r3, r2
 1732 0b38 28D0     		beq	.L237
 200:Drivers/STM32F4xx_HAL_Driver/Src/stm32f4xx_hal_dma_ex.c ****     __HAL_DMA_CLEAR_FLAG (hdma, __HAL_DMA_GET_FE_FLAG_INDEX(hdma));
 1733              		.loc 1 200 0 discriminator 116
 1734 0b3a 02F58062 		add	r2, r2, #1024
 1735 0b3e 9342     		cmp	r3, r2
 1736 0b40 27D0     		beq	.L238
 200:Drivers/STM32F4xx_HAL_Driver/Src/stm32f4xx_hal_dma_ex.c ****     __HAL_DMA_CLEAR_FLAG (hdma, __HAL_DMA_GET_FE_FLAG_INDEX(hdma));
 1737              		.loc 1 200 0 discriminator 118
 1738 0b42 A2F58962 		sub	r2, r2, #1096
 1739 0b46 9342     		cmp	r3, r2
 1740 0b48 26D0     		beq	.L239
 200:Drivers/STM32F4xx_HAL_Driver/Src/stm32f4xx_hal_dma_ex.c ****     __HAL_DMA_CLEAR_FLAG (hdma, __HAL_DMA_GET_FE_FLAG_INDEX(hdma));
 1741              		.loc 1 200 0 discriminator 120
 1742 0b4a 02F58062 		add	r2, r2, #1024
 1743 0b4e 9342     		cmp	r3, r2
 1744 0b50 25D0     		beq	.L240
 200:Drivers/STM32F4xx_HAL_Driver/Src/stm32f4xx_hal_dma_ex.c ****     __HAL_DMA_CLEAR_FLAG (hdma, __HAL_DMA_GET_FE_FLAG_INDEX(hdma));
 1745              		.loc 1 200 0 discriminator 122
 1746 0b52 A2F56872 		sub	r2, r2, #928
 1747 0b56 9342     		cmp	r3, r2
 1748 0b58 24D0     		beq	.L241
 200:Drivers/STM32F4xx_HAL_Driver/Src/stm32f4xx_hal_dma_ex.c ****     __HAL_DMA_CLEAR_FLAG (hdma, __HAL_DMA_GET_FE_FLAG_INDEX(hdma));
 1749              		.loc 1 200 0 discriminator 124
 1750 0b5a 02F58062 		add	r2, r2, #1024
 1751 0b5e 9342     		cmp	r3, r2
 1752 0b60 0CBF     		ite	eq
 1753 0b62 4FF48023 		moveq	r3, #262144
 1754 0b66 4FF08073 		movne	r3, #16777216
 1755 0b6a 00E0     		b	.L50
 1756              	.L231:
 200:Drivers/STM32F4xx_HAL_Driver/Src/stm32f4xx_hal_dma_ex.c ****     __HAL_DMA_CLEAR_FLAG (hdma, __HAL_DMA_GET_FE_FLAG_INDEX(hdma));
 1757              		.loc 1 200 0
 1758 0b6c 0423     		movs	r3, #4
 1759              	.L50:
 200:Drivers/STM32F4xx_HAL_Driver/Src/stm32f4xx_hal_dma_ex.c ****     __HAL_DMA_CLEAR_FLAG (hdma, __HAL_DMA_GET_FE_FLAG_INDEX(hdma));
ARM GAS  /tmp/ccO8U11d.s 			page 42


 1760              		.loc 1 200 0 discriminator 151
 1761 0b6e 4E4A     		ldr	r2, .L314+16
 1762 0b70 D360     		str	r3, [r2, #12]
 1763 0b72 0EE7     		b	.L46
 1764              	.L232:
 200:Drivers/STM32F4xx_HAL_Driver/Src/stm32f4xx_hal_dma_ex.c ****     __HAL_DMA_CLEAR_FLAG (hdma, __HAL_DMA_GET_FE_FLAG_INDEX(hdma));
 1765              		.loc 1 200 0
 1766 0b74 0423     		movs	r3, #4
 1767 0b76 FAE7     		b	.L50
 1768              	.L233:
 1769 0b78 0423     		movs	r3, #4
 1770 0b7a F8E7     		b	.L50
 1771              	.L234:
 1772 0b7c 0423     		movs	r3, #4
 1773 0b7e F6E7     		b	.L50
 1774              	.L235:
 1775 0b80 4FF48073 		mov	r3, #256
 1776 0b84 F3E7     		b	.L50
 1777              	.L236:
 1778 0b86 4FF48073 		mov	r3, #256
 1779 0b8a F0E7     		b	.L50
 1780              	.L237:
 1781 0b8c 4FF48073 		mov	r3, #256
 1782 0b90 EDE7     		b	.L50
 1783              	.L238:
 1784 0b92 4FF48073 		mov	r3, #256
 1785 0b96 EAE7     		b	.L50
 1786              	.L239:
 1787 0b98 4FF48023 		mov	r3, #262144
 1788 0b9c E7E7     		b	.L50
 1789              	.L240:
 1790 0b9e 4FF48023 		mov	r3, #262144
 1791 0ba2 E4E7     		b	.L50
 1792              	.L241:
 1793 0ba4 4FF48023 		mov	r3, #262144
 1794 0ba8 E1E7     		b	.L50
 1795              	.L49:
 200:Drivers/STM32F4xx_HAL_Driver/Src/stm32f4xx_hal_dma_ex.c ****     __HAL_DMA_CLEAR_FLAG (hdma, __HAL_DMA_GET_FE_FLAG_INDEX(hdma));
 1796              		.loc 1 200 0 discriminator 103
 1797 0baa 404A     		ldr	r2, .L314+20
 1798 0bac 9342     		cmp	r3, r2
 1799 0bae 30D0     		beq	.L243
 200:Drivers/STM32F4xx_HAL_Driver/Src/stm32f4xx_hal_dma_ex.c ****     __HAL_DMA_CLEAR_FLAG (hdma, __HAL_DMA_GET_FE_FLAG_INDEX(hdma));
 1800              		.loc 1 200 0 discriminator 153
 1801 0bb0 02F58062 		add	r2, r2, #1024
 1802 0bb4 9342     		cmp	r3, r2
 1803 0bb6 30D0     		beq	.L244
 200:Drivers/STM32F4xx_HAL_Driver/Src/stm32f4xx_hal_dma_ex.c ****     __HAL_DMA_CLEAR_FLAG (hdma, __HAL_DMA_GET_FE_FLAG_INDEX(hdma));
 1804              		.loc 1 200 0 discriminator 155
 1805 0bb8 A2F56872 		sub	r2, r2, #928
 1806 0bbc 9342     		cmp	r3, r2
 1807 0bbe 2ED0     		beq	.L245
 200:Drivers/STM32F4xx_HAL_Driver/Src/stm32f4xx_hal_dma_ex.c ****     __HAL_DMA_CLEAR_FLAG (hdma, __HAL_DMA_GET_FE_FLAG_INDEX(hdma));
 1808              		.loc 1 200 0 discriminator 157
 1809 0bc0 02F58062 		add	r2, r2, #1024
 1810 0bc4 9342     		cmp	r3, r2
 1811 0bc6 2CD0     		beq	.L246
ARM GAS  /tmp/ccO8U11d.s 			page 43


 200:Drivers/STM32F4xx_HAL_Driver/Src/stm32f4xx_hal_dma_ex.c ****     __HAL_DMA_CLEAR_FLAG (hdma, __HAL_DMA_GET_FE_FLAG_INDEX(hdma));
 1812              		.loc 1 200 0 discriminator 159
 1813 0bc8 A2F58962 		sub	r2, r2, #1096
 1814 0bcc 9342     		cmp	r3, r2
 1815 0bce 2AD0     		beq	.L247
 200:Drivers/STM32F4xx_HAL_Driver/Src/stm32f4xx_hal_dma_ex.c ****     __HAL_DMA_CLEAR_FLAG (hdma, __HAL_DMA_GET_FE_FLAG_INDEX(hdma));
 1816              		.loc 1 200 0 discriminator 161
 1817 0bd0 02F58062 		add	r2, r2, #1024
 1818 0bd4 9342     		cmp	r3, r2
 1819 0bd6 29D0     		beq	.L248
 200:Drivers/STM32F4xx_HAL_Driver/Src/stm32f4xx_hal_dma_ex.c ****     __HAL_DMA_CLEAR_FLAG (hdma, __HAL_DMA_GET_FE_FLAG_INDEX(hdma));
 1820              		.loc 1 200 0 discriminator 163
 1821 0bd8 A2F56872 		sub	r2, r2, #928
 1822 0bdc 9342     		cmp	r3, r2
 1823 0bde 28D0     		beq	.L249
 200:Drivers/STM32F4xx_HAL_Driver/Src/stm32f4xx_hal_dma_ex.c ****     __HAL_DMA_CLEAR_FLAG (hdma, __HAL_DMA_GET_FE_FLAG_INDEX(hdma));
 1824              		.loc 1 200 0 discriminator 165
 1825 0be0 02F58062 		add	r2, r2, #1024
 1826 0be4 9342     		cmp	r3, r2
 1827 0be6 27D0     		beq	.L250
 200:Drivers/STM32F4xx_HAL_Driver/Src/stm32f4xx_hal_dma_ex.c ****     __HAL_DMA_CLEAR_FLAG (hdma, __HAL_DMA_GET_FE_FLAG_INDEX(hdma));
 1828              		.loc 1 200 0 discriminator 167
 1829 0be8 A2F58962 		sub	r2, r2, #1096
 1830 0bec 9342     		cmp	r3, r2
 1831 0bee 26D0     		beq	.L251
 200:Drivers/STM32F4xx_HAL_Driver/Src/stm32f4xx_hal_dma_ex.c ****     __HAL_DMA_CLEAR_FLAG (hdma, __HAL_DMA_GET_FE_FLAG_INDEX(hdma));
 1832              		.loc 1 200 0 discriminator 169
 1833 0bf0 02F58062 		add	r2, r2, #1024
 1834 0bf4 9342     		cmp	r3, r2
 1835 0bf6 25D0     		beq	.L252
 200:Drivers/STM32F4xx_HAL_Driver/Src/stm32f4xx_hal_dma_ex.c ****     __HAL_DMA_CLEAR_FLAG (hdma, __HAL_DMA_GET_FE_FLAG_INDEX(hdma));
 1836              		.loc 1 200 0 discriminator 171
 1837 0bf8 A2F56872 		sub	r2, r2, #928
 1838 0bfc 9342     		cmp	r3, r2
 1839 0bfe 24D0     		beq	.L253
 200:Drivers/STM32F4xx_HAL_Driver/Src/stm32f4xx_hal_dma_ex.c ****     __HAL_DMA_CLEAR_FLAG (hdma, __HAL_DMA_GET_FE_FLAG_INDEX(hdma));
 1840              		.loc 1 200 0 discriminator 173
 1841 0c00 02F58062 		add	r2, r2, #1024
 1842 0c04 9342     		cmp	r3, r2
 1843 0c06 0CBF     		ite	eq
 1844 0c08 4FF48023 		moveq	r3, #262144
 1845 0c0c 4FF08073 		movne	r3, #16777216
 1846 0c10 00E0     		b	.L51
 1847              	.L243:
 200:Drivers/STM32F4xx_HAL_Driver/Src/stm32f4xx_hal_dma_ex.c ****     __HAL_DMA_CLEAR_FLAG (hdma, __HAL_DMA_GET_FE_FLAG_INDEX(hdma));
 1848              		.loc 1 200 0
 1849 0c12 0423     		movs	r3, #4
 1850              	.L51:
 200:Drivers/STM32F4xx_HAL_Driver/Src/stm32f4xx_hal_dma_ex.c ****     __HAL_DMA_CLEAR_FLAG (hdma, __HAL_DMA_GET_FE_FLAG_INDEX(hdma));
 1851              		.loc 1 200 0 discriminator 200
 1852 0c14 244A     		ldr	r2, .L314+16
 1853 0c16 9360     		str	r3, [r2, #8]
 1854 0c18 BBE6     		b	.L46
 1855              	.L244:
 200:Drivers/STM32F4xx_HAL_Driver/Src/stm32f4xx_hal_dma_ex.c ****     __HAL_DMA_CLEAR_FLAG (hdma, __HAL_DMA_GET_FE_FLAG_INDEX(hdma));
 1856              		.loc 1 200 0
 1857 0c1a 0423     		movs	r3, #4
ARM GAS  /tmp/ccO8U11d.s 			page 44


 1858 0c1c FAE7     		b	.L51
 1859              	.L245:
 1860 0c1e 0423     		movs	r3, #4
 1861 0c20 F8E7     		b	.L51
 1862              	.L246:
 1863 0c22 0423     		movs	r3, #4
 1864 0c24 F6E7     		b	.L51
 1865              	.L247:
 1866 0c26 4FF48073 		mov	r3, #256
 1867 0c2a F3E7     		b	.L51
 1868              	.L248:
 1869 0c2c 4FF48073 		mov	r3, #256
 1870 0c30 F0E7     		b	.L51
 1871              	.L249:
 1872 0c32 4FF48073 		mov	r3, #256
 1873 0c36 EDE7     		b	.L51
 1874              	.L250:
 1875 0c38 4FF48073 		mov	r3, #256
 1876 0c3c EAE7     		b	.L51
 1877              	.L251:
 1878 0c3e 4FF48023 		mov	r3, #262144
 1879 0c42 E7E7     		b	.L51
 1880              	.L252:
 1881 0c44 4FF48023 		mov	r3, #262144
 1882 0c48 E4E7     		b	.L51
 1883              	.L253:
 1884 0c4a 4FF48023 		mov	r3, #262144
 1885 0c4e E1E7     		b	.L51
 1886              	.L255:
 201:Drivers/STM32F4xx_HAL_Driver/Src/stm32f4xx_hal_dma_ex.c **** 
 1887              		.loc 1 201 0 is_stmt 1
 1888 0c50 0123     		movs	r3, #1
 1889              	.L53:
 201:Drivers/STM32F4xx_HAL_Driver/Src/stm32f4xx_hal_dma_ex.c **** 
 1890              		.loc 1 201 0 is_stmt 0 discriminator 50
 1891 0c52 114A     		ldr	r2, .L314
 1892 0c54 D360     		str	r3, [r2, #12]
 1893              	.L54:
 204:Drivers/STM32F4xx_HAL_Driver/Src/stm32f4xx_hal_dma_ex.c ****     hdma->Instance->FCR |= DMA_IT_FE;
 1894              		.loc 1 204 0 is_stmt 1
 1895 0c56 0268     		ldr	r2, [r0]
 1896 0c58 1368     		ldr	r3, [r2]
 1897 0c5a 43F01603 		orr	r3, r3, #22
 1898 0c5e 1360     		str	r3, [r2]
 205:Drivers/STM32F4xx_HAL_Driver/Src/stm32f4xx_hal_dma_ex.c ****     
 1899              		.loc 1 205 0
 1900 0c60 0268     		ldr	r2, [r0]
 1901 0c62 5369     		ldr	r3, [r2, #20]
 1902 0c64 43F08003 		orr	r3, r3, #128
 1903 0c68 5361     		str	r3, [r2, #20]
 207:Drivers/STM32F4xx_HAL_Driver/Src/stm32f4xx_hal_dma_ex.c ****     {
 1904              		.loc 1 207 0
 1905 0c6a 036C     		ldr	r3, [r0, #64]
 1906 0c6c 002B     		cmp	r3, #0
 1907 0c6e 00F02381 		beq	.L307
 1908              	.L60:
 209:Drivers/STM32F4xx_HAL_Driver/Src/stm32f4xx_hal_dma_ex.c ****     }
ARM GAS  /tmp/ccO8U11d.s 			page 45


 1909              		.loc 1 209 0
 1910 0c72 0268     		ldr	r2, [r0]
 1911 0c74 1368     		ldr	r3, [r2]
 1912 0c76 43F00803 		orr	r3, r3, #8
 1913 0c7a 1360     		str	r3, [r2]
 1914              	.L61:
 213:Drivers/STM32F4xx_HAL_Driver/Src/stm32f4xx_hal_dma_ex.c ****   }
 1915              		.loc 1 213 0
 1916 0c7c 0268     		ldr	r2, [r0]
 1917 0c7e 1368     		ldr	r3, [r2]
 1918 0c80 43F00103 		orr	r3, r3, #1
 1919 0c84 1360     		str	r3, [r2]
 157:Drivers/STM32F4xx_HAL_Driver/Src/stm32f4xx_hal_dma_ex.c ****   
 1920              		.loc 1 157 0
 1921 0c86 0020     		movs	r0, #0
 1922              	.LVL46:
 1923 0c88 FFF7DEB9 		b	.L14
 1924              	.LVL47:
 1925              	.L256:
 201:Drivers/STM32F4xx_HAL_Driver/Src/stm32f4xx_hal_dma_ex.c **** 
 1926              		.loc 1 201 0
 1927 0c8c 0123     		movs	r3, #1
 1928 0c8e E0E7     		b	.L53
 1929              	.L257:
 1930 0c90 0123     		movs	r3, #1
 1931 0c92 DEE7     		b	.L53
 1932              	.L258:
 1933 0c94 0123     		movs	r3, #1
 1934 0c96 DCE7     		b	.L53
 1935              	.L315:
 1936              		.align	2
 1937              	.L314:
 1938 0c98 00640240 		.word	1073898496
 1939 0c9c 58640240 		.word	1073898584
 1940 0ca0 B8600240 		.word	1073897656
 1941 0ca4 58600240 		.word	1073897560
 1942 0ca8 00600240 		.word	1073897472
 1943 0cac 10600240 		.word	1073897488
 1944              	.L259:
 1945 0cb0 4023     		movs	r3, #64
 1946 0cb2 CEE7     		b	.L53
 1947              	.L260:
 1948 0cb4 4023     		movs	r3, #64
 1949 0cb6 CCE7     		b	.L53
 1950              	.L261:
 1951 0cb8 4023     		movs	r3, #64
 1952 0cba CAE7     		b	.L53
 1953              	.L262:
 1954 0cbc 4023     		movs	r3, #64
 1955 0cbe C8E7     		b	.L53
 1956              	.L263:
 1957 0cc0 4FF48033 		mov	r3, #65536
 1958 0cc4 C5E7     		b	.L53
 1959              	.L264:
 1960 0cc6 4FF48033 		mov	r3, #65536
 1961 0cca C2E7     		b	.L53
 1962              	.L265:
ARM GAS  /tmp/ccO8U11d.s 			page 46


 1963 0ccc 4FF48033 		mov	r3, #65536
 1964 0cd0 BFE7     		b	.L53
 1965              	.L52:
 201:Drivers/STM32F4xx_HAL_Driver/Src/stm32f4xx_hal_dma_ex.c **** 
 1966              		.loc 1 201 0 is_stmt 0 discriminator 2
 1967 0cd2 7D4A     		ldr	r2, .L316
 1968 0cd4 9342     		cmp	r3, r2
 1969 0cd6 4ED9     		bls	.L55
 201:Drivers/STM32F4xx_HAL_Driver/Src/stm32f4xx_hal_dma_ex.c **** 
 1970              		.loc 1 201 0 discriminator 51
 1971 0cd8 A83A     		subs	r2, r2, #168
 1972 0cda 9342     		cmp	r3, r2
 1973 0cdc 30D0     		beq	.L267
 201:Drivers/STM32F4xx_HAL_Driver/Src/stm32f4xx_hal_dma_ex.c **** 
 1974              		.loc 1 201 0 discriminator 53
 1975 0cde 02F58062 		add	r2, r2, #1024
 1976 0ce2 9342     		cmp	r3, r2
 1977 0ce4 30D0     		beq	.L268
 201:Drivers/STM32F4xx_HAL_Driver/Src/stm32f4xx_hal_dma_ex.c **** 
 1978              		.loc 1 201 0 discriminator 55
 1979 0ce6 A2F56872 		sub	r2, r2, #928
 1980 0cea 9342     		cmp	r3, r2
 1981 0cec 2ED0     		beq	.L269
 201:Drivers/STM32F4xx_HAL_Driver/Src/stm32f4xx_hal_dma_ex.c **** 
 1982              		.loc 1 201 0 discriminator 57
 1983 0cee 02F58062 		add	r2, r2, #1024
 1984 0cf2 9342     		cmp	r3, r2
 1985 0cf4 2CD0     		beq	.L270
 201:Drivers/STM32F4xx_HAL_Driver/Src/stm32f4xx_hal_dma_ex.c **** 
 1986              		.loc 1 201 0 discriminator 59
 1987 0cf6 A2F58962 		sub	r2, r2, #1096
 1988 0cfa 9342     		cmp	r3, r2
 1989 0cfc 2AD0     		beq	.L271
 201:Drivers/STM32F4xx_HAL_Driver/Src/stm32f4xx_hal_dma_ex.c **** 
 1990              		.loc 1 201 0 discriminator 61
 1991 0cfe 02F58062 		add	r2, r2, #1024
 1992 0d02 9342     		cmp	r3, r2
 1993 0d04 28D0     		beq	.L272
 201:Drivers/STM32F4xx_HAL_Driver/Src/stm32f4xx_hal_dma_ex.c **** 
 1994              		.loc 1 201 0 discriminator 63
 1995 0d06 A2F56872 		sub	r2, r2, #928
 1996 0d0a 9342     		cmp	r3, r2
 1997 0d0c 26D0     		beq	.L273
 201:Drivers/STM32F4xx_HAL_Driver/Src/stm32f4xx_hal_dma_ex.c **** 
 1998              		.loc 1 201 0 discriminator 65
 1999 0d0e 02F58062 		add	r2, r2, #1024
 2000 0d12 9342     		cmp	r3, r2
 2001 0d14 24D0     		beq	.L274
 201:Drivers/STM32F4xx_HAL_Driver/Src/stm32f4xx_hal_dma_ex.c **** 
 2002              		.loc 1 201 0 discriminator 67
 2003 0d16 A2F58962 		sub	r2, r2, #1096
 2004 0d1a 9342     		cmp	r3, r2
 2005 0d1c 22D0     		beq	.L275
 201:Drivers/STM32F4xx_HAL_Driver/Src/stm32f4xx_hal_dma_ex.c **** 
 2006              		.loc 1 201 0 discriminator 69
 2007 0d1e 02F58062 		add	r2, r2, #1024
 2008 0d22 9342     		cmp	r3, r2
ARM GAS  /tmp/ccO8U11d.s 			page 47


 2009 0d24 21D0     		beq	.L276
 201:Drivers/STM32F4xx_HAL_Driver/Src/stm32f4xx_hal_dma_ex.c **** 
 2010              		.loc 1 201 0 discriminator 71
 2011 0d26 A2F56872 		sub	r2, r2, #928
 2012 0d2a 9342     		cmp	r3, r2
 2013 0d2c 20D0     		beq	.L277
 201:Drivers/STM32F4xx_HAL_Driver/Src/stm32f4xx_hal_dma_ex.c **** 
 2014              		.loc 1 201 0 discriminator 73
 2015 0d2e 02F58062 		add	r2, r2, #1024
 2016 0d32 9342     		cmp	r3, r2
 2017 0d34 0CBF     		ite	eq
 2018 0d36 4FF48033 		moveq	r3, #65536
 2019 0d3a 4FF48003 		movne	r3, #4194304
 2020 0d3e 00E0     		b	.L56
 2021              	.L267:
 201:Drivers/STM32F4xx_HAL_Driver/Src/stm32f4xx_hal_dma_ex.c **** 
 2022              		.loc 1 201 0
 2023 0d40 0123     		movs	r3, #1
 2024              	.L56:
 201:Drivers/STM32F4xx_HAL_Driver/Src/stm32f4xx_hal_dma_ex.c **** 
 2025              		.loc 1 201 0 discriminator 100
 2026 0d42 624A     		ldr	r2, .L316+4
 2027 0d44 9360     		str	r3, [r2, #8]
 2028 0d46 86E7     		b	.L54
 2029              	.L268:
 201:Drivers/STM32F4xx_HAL_Driver/Src/stm32f4xx_hal_dma_ex.c **** 
 2030              		.loc 1 201 0
 2031 0d48 0123     		movs	r3, #1
 2032 0d4a FAE7     		b	.L56
 2033              	.L269:
 2034 0d4c 0123     		movs	r3, #1
 2035 0d4e F8E7     		b	.L56
 2036              	.L270:
 2037 0d50 0123     		movs	r3, #1
 2038 0d52 F6E7     		b	.L56
 2039              	.L271:
 2040 0d54 4023     		movs	r3, #64
 2041 0d56 F4E7     		b	.L56
 2042              	.L272:
 2043 0d58 4023     		movs	r3, #64
 2044 0d5a F2E7     		b	.L56
 2045              	.L273:
 2046 0d5c 4023     		movs	r3, #64
 2047 0d5e F0E7     		b	.L56
 2048              	.L274:
 2049 0d60 4023     		movs	r3, #64
 2050 0d62 EEE7     		b	.L56
 2051              	.L275:
 2052 0d64 4FF48033 		mov	r3, #65536
 2053 0d68 EBE7     		b	.L56
 2054              	.L276:
 2055 0d6a 4FF48033 		mov	r3, #65536
 2056 0d6e E8E7     		b	.L56
 2057              	.L277:
 2058 0d70 4FF48033 		mov	r3, #65536
 2059 0d74 E5E7     		b	.L56
 2060              	.L55:
ARM GAS  /tmp/ccO8U11d.s 			page 48


 201:Drivers/STM32F4xx_HAL_Driver/Src/stm32f4xx_hal_dma_ex.c **** 
 2061              		.loc 1 201 0 discriminator 52
 2062 0d76 564A     		ldr	r2, .L316+8
 2063 0d78 9342     		cmp	r3, r2
 2064 0d7a 4ED9     		bls	.L57
 201:Drivers/STM32F4xx_HAL_Driver/Src/stm32f4xx_hal_dma_ex.c **** 
 2065              		.loc 1 201 0 discriminator 102
 2066 0d7c 483A     		subs	r2, r2, #72
 2067 0d7e 9342     		cmp	r3, r2
 2068 0d80 30D0     		beq	.L279
 201:Drivers/STM32F4xx_HAL_Driver/Src/stm32f4xx_hal_dma_ex.c **** 
 2069              		.loc 1 201 0 discriminator 104
 2070 0d82 02F58062 		add	r2, r2, #1024
 2071 0d86 9342     		cmp	r3, r2
 2072 0d88 30D0     		beq	.L280
 201:Drivers/STM32F4xx_HAL_Driver/Src/stm32f4xx_hal_dma_ex.c **** 
 2073              		.loc 1 201 0 discriminator 106
 2074 0d8a A2F56872 		sub	r2, r2, #928
 2075 0d8e 9342     		cmp	r3, r2
 2076 0d90 2ED0     		beq	.L281
 201:Drivers/STM32F4xx_HAL_Driver/Src/stm32f4xx_hal_dma_ex.c **** 
 2077              		.loc 1 201 0 discriminator 108
 2078 0d92 02F58062 		add	r2, r2, #1024
 2079 0d96 9342     		cmp	r3, r2
 2080 0d98 2CD0     		beq	.L282
 201:Drivers/STM32F4xx_HAL_Driver/Src/stm32f4xx_hal_dma_ex.c **** 
 2081              		.loc 1 201 0 discriminator 110
 2082 0d9a A2F58962 		sub	r2, r2, #1096
 2083 0d9e 9342     		cmp	r3, r2
 2084 0da0 2AD0     		beq	.L283
 201:Drivers/STM32F4xx_HAL_Driver/Src/stm32f4xx_hal_dma_ex.c **** 
 2085              		.loc 1 201 0 discriminator 112
 2086 0da2 02F58062 		add	r2, r2, #1024
 2087 0da6 9342     		cmp	r3, r2
 2088 0da8 28D0     		beq	.L284
 201:Drivers/STM32F4xx_HAL_Driver/Src/stm32f4xx_hal_dma_ex.c **** 
 2089              		.loc 1 201 0 discriminator 114
 2090 0daa A2F56872 		sub	r2, r2, #928
 2091 0dae 9342     		cmp	r3, r2
 2092 0db0 26D0     		beq	.L285
 201:Drivers/STM32F4xx_HAL_Driver/Src/stm32f4xx_hal_dma_ex.c **** 
 2093              		.loc 1 201 0 discriminator 116
 2094 0db2 02F58062 		add	r2, r2, #1024
 2095 0db6 9342     		cmp	r3, r2
 2096 0db8 24D0     		beq	.L286
 201:Drivers/STM32F4xx_HAL_Driver/Src/stm32f4xx_hal_dma_ex.c **** 
 2097              		.loc 1 201 0 discriminator 118
 2098 0dba A2F58962 		sub	r2, r2, #1096
 2099 0dbe 9342     		cmp	r3, r2
 2100 0dc0 22D0     		beq	.L287
 201:Drivers/STM32F4xx_HAL_Driver/Src/stm32f4xx_hal_dma_ex.c **** 
 2101              		.loc 1 201 0 discriminator 120
 2102 0dc2 02F58062 		add	r2, r2, #1024
 2103 0dc6 9342     		cmp	r3, r2
 2104 0dc8 21D0     		beq	.L288
 201:Drivers/STM32F4xx_HAL_Driver/Src/stm32f4xx_hal_dma_ex.c **** 
 2105              		.loc 1 201 0 discriminator 122
ARM GAS  /tmp/ccO8U11d.s 			page 49


 2106 0dca A2F56872 		sub	r2, r2, #928
 2107 0dce 9342     		cmp	r3, r2
 2108 0dd0 20D0     		beq	.L289
 201:Drivers/STM32F4xx_HAL_Driver/Src/stm32f4xx_hal_dma_ex.c **** 
 2109              		.loc 1 201 0 discriminator 124
 2110 0dd2 02F58062 		add	r2, r2, #1024
 2111 0dd6 9342     		cmp	r3, r2
 2112 0dd8 0CBF     		ite	eq
 2113 0dda 4FF48033 		moveq	r3, #65536
 2114 0dde 4FF48003 		movne	r3, #4194304
 2115 0de2 00E0     		b	.L58
 2116              	.L279:
 201:Drivers/STM32F4xx_HAL_Driver/Src/stm32f4xx_hal_dma_ex.c **** 
 2117              		.loc 1 201 0
 2118 0de4 0123     		movs	r3, #1
 2119              	.L58:
 201:Drivers/STM32F4xx_HAL_Driver/Src/stm32f4xx_hal_dma_ex.c **** 
 2120              		.loc 1 201 0 discriminator 151
 2121 0de6 3B4A     		ldr	r2, .L316+12
 2122 0de8 D360     		str	r3, [r2, #12]
 2123 0dea 34E7     		b	.L54
 2124              	.L280:
 201:Drivers/STM32F4xx_HAL_Driver/Src/stm32f4xx_hal_dma_ex.c **** 
 2125              		.loc 1 201 0
 2126 0dec 0123     		movs	r3, #1
 2127 0dee FAE7     		b	.L58
 2128              	.L281:
 2129 0df0 0123     		movs	r3, #1
 2130 0df2 F8E7     		b	.L58
 2131              	.L282:
 2132 0df4 0123     		movs	r3, #1
 2133 0df6 F6E7     		b	.L58
 2134              	.L283:
 2135 0df8 4023     		movs	r3, #64
 2136 0dfa F4E7     		b	.L58
 2137              	.L284:
 2138 0dfc 4023     		movs	r3, #64
 2139 0dfe F2E7     		b	.L58
 2140              	.L285:
 2141 0e00 4023     		movs	r3, #64
 2142 0e02 F0E7     		b	.L58
 2143              	.L286:
 2144 0e04 4023     		movs	r3, #64
 2145 0e06 EEE7     		b	.L58
 2146              	.L287:
 2147 0e08 4FF48033 		mov	r3, #65536
 2148 0e0c EBE7     		b	.L58
 2149              	.L288:
 2150 0e0e 4FF48033 		mov	r3, #65536
 2151 0e12 E8E7     		b	.L58
 2152              	.L289:
 2153 0e14 4FF48033 		mov	r3, #65536
 2154 0e18 E5E7     		b	.L58
 2155              	.L57:
 201:Drivers/STM32F4xx_HAL_Driver/Src/stm32f4xx_hal_dma_ex.c **** 
 2156              		.loc 1 201 0 discriminator 103
 2157 0e1a 2F4A     		ldr	r2, .L316+16
ARM GAS  /tmp/ccO8U11d.s 			page 50


 2158 0e1c 9342     		cmp	r3, r2
 2159 0e1e 30D0     		beq	.L291
 201:Drivers/STM32F4xx_HAL_Driver/Src/stm32f4xx_hal_dma_ex.c **** 
 2160              		.loc 1 201 0 discriminator 153
 2161 0e20 02F58062 		add	r2, r2, #1024
 2162 0e24 9342     		cmp	r3, r2
 2163 0e26 30D0     		beq	.L292
 201:Drivers/STM32F4xx_HAL_Driver/Src/stm32f4xx_hal_dma_ex.c **** 
 2164              		.loc 1 201 0 discriminator 155
 2165 0e28 A2F56872 		sub	r2, r2, #928
 2166 0e2c 9342     		cmp	r3, r2
 2167 0e2e 2ED0     		beq	.L293
 201:Drivers/STM32F4xx_HAL_Driver/Src/stm32f4xx_hal_dma_ex.c **** 
 2168              		.loc 1 201 0 discriminator 157
 2169 0e30 02F58062 		add	r2, r2, #1024
 2170 0e34 9342     		cmp	r3, r2
 2171 0e36 2CD0     		beq	.L294
 201:Drivers/STM32F4xx_HAL_Driver/Src/stm32f4xx_hal_dma_ex.c **** 
 2172              		.loc 1 201 0 discriminator 159
 2173 0e38 A2F58962 		sub	r2, r2, #1096
 2174 0e3c 9342     		cmp	r3, r2
 2175 0e3e 2AD0     		beq	.L295
 201:Drivers/STM32F4xx_HAL_Driver/Src/stm32f4xx_hal_dma_ex.c **** 
 2176              		.loc 1 201 0 discriminator 161
 2177 0e40 02F58062 		add	r2, r2, #1024
 2178 0e44 9342     		cmp	r3, r2
 2179 0e46 28D0     		beq	.L296
 201:Drivers/STM32F4xx_HAL_Driver/Src/stm32f4xx_hal_dma_ex.c **** 
 2180              		.loc 1 201 0 discriminator 163
 2181 0e48 A2F56872 		sub	r2, r2, #928
 2182 0e4c 9342     		cmp	r3, r2
 2183 0e4e 26D0     		beq	.L297
 201:Drivers/STM32F4xx_HAL_Driver/Src/stm32f4xx_hal_dma_ex.c **** 
 2184              		.loc 1 201 0 discriminator 165
 2185 0e50 02F58062 		add	r2, r2, #1024
 2186 0e54 9342     		cmp	r3, r2
 2187 0e56 24D0     		beq	.L298
 201:Drivers/STM32F4xx_HAL_Driver/Src/stm32f4xx_hal_dma_ex.c **** 
 2188              		.loc 1 201 0 discriminator 167
 2189 0e58 A2F58962 		sub	r2, r2, #1096
 2190 0e5c 9342     		cmp	r3, r2
 2191 0e5e 22D0     		beq	.L299
 201:Drivers/STM32F4xx_HAL_Driver/Src/stm32f4xx_hal_dma_ex.c **** 
 2192              		.loc 1 201 0 discriminator 169
 2193 0e60 02F58062 		add	r2, r2, #1024
 2194 0e64 9342     		cmp	r3, r2
 2195 0e66 21D0     		beq	.L300
 201:Drivers/STM32F4xx_HAL_Driver/Src/stm32f4xx_hal_dma_ex.c **** 
 2196              		.loc 1 201 0 discriminator 171
 2197 0e68 A2F56872 		sub	r2, r2, #928
 2198 0e6c 9342     		cmp	r3, r2
 2199 0e6e 20D0     		beq	.L301
 201:Drivers/STM32F4xx_HAL_Driver/Src/stm32f4xx_hal_dma_ex.c **** 
 2200              		.loc 1 201 0 discriminator 173
 2201 0e70 02F58062 		add	r2, r2, #1024
 2202 0e74 9342     		cmp	r3, r2
 2203 0e76 0CBF     		ite	eq
ARM GAS  /tmp/ccO8U11d.s 			page 51


 2204 0e78 4FF48033 		moveq	r3, #65536
 2205 0e7c 4FF48003 		movne	r3, #4194304
 2206 0e80 00E0     		b	.L59
 2207              	.L291:
 201:Drivers/STM32F4xx_HAL_Driver/Src/stm32f4xx_hal_dma_ex.c **** 
 2208              		.loc 1 201 0
 2209 0e82 0123     		movs	r3, #1
 2210              	.L59:
 201:Drivers/STM32F4xx_HAL_Driver/Src/stm32f4xx_hal_dma_ex.c **** 
 2211              		.loc 1 201 0 discriminator 200
 2212 0e84 134A     		ldr	r2, .L316+12
 2213 0e86 9360     		str	r3, [r2, #8]
 2214 0e88 E5E6     		b	.L54
 2215              	.L292:
 201:Drivers/STM32F4xx_HAL_Driver/Src/stm32f4xx_hal_dma_ex.c **** 
 2216              		.loc 1 201 0
 2217 0e8a 0123     		movs	r3, #1
 2218 0e8c FAE7     		b	.L59
 2219              	.L293:
 2220 0e8e 0123     		movs	r3, #1
 2221 0e90 F8E7     		b	.L59
 2222              	.L294:
 2223 0e92 0123     		movs	r3, #1
 2224 0e94 F6E7     		b	.L59
 2225              	.L295:
 2226 0e96 4023     		movs	r3, #64
 2227 0e98 F4E7     		b	.L59
 2228              	.L296:
 2229 0e9a 4023     		movs	r3, #64
 2230 0e9c F2E7     		b	.L59
 2231              	.L297:
 2232 0e9e 4023     		movs	r3, #64
 2233 0ea0 F0E7     		b	.L59
 2234              	.L298:
 2235 0ea2 4023     		movs	r3, #64
 2236 0ea4 EEE7     		b	.L59
 2237              	.L299:
 2238 0ea6 4FF48033 		mov	r3, #65536
 2239 0eaa EBE7     		b	.L59
 2240              	.L300:
 2241 0eac 4FF48033 		mov	r3, #65536
 2242 0eb0 E8E7     		b	.L59
 2243              	.L301:
 2244 0eb2 4FF48033 		mov	r3, #65536
 2245 0eb6 E5E7     		b	.L59
 2246              	.L307:
 207:Drivers/STM32F4xx_HAL_Driver/Src/stm32f4xx_hal_dma_ex.c ****     {
 2247              		.loc 1 207 0 is_stmt 1 discriminator 1
 2248 0eb8 836C     		ldr	r3, [r0, #72]
 2249 0eba 002B     		cmp	r3, #0
 2250 0ebc 7FF4D9AE 		bne	.L60
 2251 0ec0 DCE6     		b	.L61
 2252              	.LVL48:
 2253              	.L62:
 177:Drivers/STM32F4xx_HAL_Driver/Src/stm32f4xx_hal_dma_ex.c ****   
 2254              		.loc 1 177 0
 2255 0ec2 0220     		movs	r0, #2
ARM GAS  /tmp/ccO8U11d.s 			page 52


 2256              	.LVL49:
 2257 0ec4 FFF7C0B8 		b	.L14
 2258              	.L317:
 2259              		.align	2
 2260              	.L316:
 2261 0ec8 B8600240 		.word	1073897656
 2262 0ecc 00640240 		.word	1073898496
 2263 0ed0 58600240 		.word	1073897560
 2264 0ed4 00600240 		.word	1073897472
 2265 0ed8 10600240 		.word	1073897488
 2266              		.cfi_endproc
 2267              	.LFE131:
 2269              		.section	.text.HAL_DMAEx_ChangeMemory,"ax",%progbits
 2270              		.align	1
 2271              		.global	HAL_DMAEx_ChangeMemory
 2272              		.syntax unified
 2273              		.thumb
 2274              		.thumb_func
 2275              		.fpu fpv4-sp-d16
 2277              	HAL_DMAEx_ChangeMemory:
 2278              	.LFB132:
 241:Drivers/STM32F4xx_HAL_Driver/Src/stm32f4xx_hal_dma_ex.c ****   if(memory == MEMORY0)
 2279              		.loc 1 241 0
 2280              		.cfi_startproc
 2281              		@ args = 0, pretend = 0, frame = 0
 2282              		@ frame_needed = 0, uses_anonymous_args = 0
 2283              		@ link register save eliminated.
 2284              	.LVL50:
 242:Drivers/STM32F4xx_HAL_Driver/Src/stm32f4xx_hal_dma_ex.c ****   {
 2285              		.loc 1 242 0
 2286 0000 1AB1     		cbz	r2, .L321
 250:Drivers/STM32F4xx_HAL_Driver/Src/stm32f4xx_hal_dma_ex.c ****   }
 2287              		.loc 1 250 0
 2288 0002 0368     		ldr	r3, [r0]
 2289 0004 1961     		str	r1, [r3, #16]
 2290              	.L320:
 254:Drivers/STM32F4xx_HAL_Driver/Src/stm32f4xx_hal_dma_ex.c **** 
 2291              		.loc 1 254 0
 2292 0006 0020     		movs	r0, #0
 2293              	.LVL51:
 2294 0008 7047     		bx	lr
 2295              	.LVL52:
 2296              	.L321:
 245:Drivers/STM32F4xx_HAL_Driver/Src/stm32f4xx_hal_dma_ex.c ****   }
 2297              		.loc 1 245 0
 2298 000a 0368     		ldr	r3, [r0]
 2299 000c D960     		str	r1, [r3, #12]
 2300 000e FAE7     		b	.L320
 2301              		.cfi_endproc
 2302              	.LFE132:
 2304              		.text
 2305              	.Letext0:
 2306              		.file 2 "/usr/include/newlib/machine/_default_types.h"
 2307              		.file 3 "/usr/include/newlib/sys/_stdint.h"
 2308              		.file 4 "Drivers/CMSIS/Include/core_cm4.h"
 2309              		.file 5 "Drivers/CMSIS/Device/ST/STM32F4xx/Include/system_stm32f4xx.h"
 2310              		.file 6 "Drivers/CMSIS/Device/ST/STM32F4xx/Include/stm32f446xx.h"
ARM GAS  /tmp/ccO8U11d.s 			page 53


 2311              		.file 7 "Drivers/STM32F4xx_HAL_Driver/Inc/stm32f4xx_hal_def.h"
 2312              		.file 8 "Drivers/STM32F4xx_HAL_Driver/Inc/stm32f4xx_hal_dma.h"
 2313              		.file 9 "Drivers/STM32F4xx_HAL_Driver/Inc/stm32f4xx_hal_dma_ex.h"
 2314              		.file 10 "Drivers/STM32F4xx_HAL_Driver/Inc/stm32f4xx_hal.h"
ARM GAS  /tmp/ccO8U11d.s 			page 54

